
Driveunit_Fan.elf:     file format elf32-littlearm

Sections:
Idx Name          Size      VMA       LMA       File off  Algn
  0 .isr_vector   000000b8  08000000  08000000  00001000  2**0
                  CONTENTS, ALLOC, LOAD, READONLY, DATA
  1 .text         00004e54  080000b8  080000b8  000010b8  2**2
                  CONTENTS, ALLOC, LOAD, READONLY, CODE
  2 .rodata       000010bc  08004f0c  08004f0c  00005f0c  2**2
                  CONTENTS, ALLOC, LOAD, READONLY, DATA
  3 .ARM.extab    00000000  08005fc8  08005fc8  00007018  2**0
                  CONTENTS, READONLY
  4 .ARM          00000000  08005fc8  08005fc8  00007018  2**0
                  CONTENTS, READONLY
  5 .preinit_array 00000000  08005fc8  08005fc8  00007018  2**0
                  CONTENTS, ALLOC, LOAD, DATA
  6 .init_array   00000004  08005fc8  08005fc8  00006fc8  2**2
                  CONTENTS, ALLOC, LOAD, READONLY, DATA
  7 .fini_array   00000004  08005fcc  08005fcc  00006fcc  2**2
                  CONTENTS, ALLOC, LOAD, READONLY, DATA
  8 .data         00000018  20000000  08005fd0  00007000  2**2
                  CONTENTS, ALLOC, LOAD, DATA
  9 .bss          00000284  20000018  08005fe8  00007018  2**2
                  ALLOC
 10 ._user_heap_stack 00000604  2000029c  08005fe8  0000729c  2**0
                  ALLOC
 11 .ARM.attributes 00000028  00000000  00000000  00007018  2**0
                  CONTENTS, READONLY
 12 .debug_info   0001ad6f  00000000  00000000  00007040  2**0
                  CONTENTS, READONLY, DEBUGGING, OCTETS
 13 .debug_abbrev 0000382b  00000000  00000000  00021daf  2**0
                  CONTENTS, READONLY, DEBUGGING, OCTETS
 14 .debug_loclists 0000ac61  00000000  00000000  000255da  2**0
                  CONTENTS, READONLY, DEBUGGING, OCTETS
 15 .debug_aranges 00000fd8  00000000  00000000  00030240  2**3
                  CONTENTS, READONLY, DEBUGGING, OCTETS
 16 .debug_rnglists 00001075  00000000  00000000  00031218  2**0
                  CONTENTS, READONLY, DEBUGGING, OCTETS
 17 .debug_macro  000171c9  00000000  00000000  0003228d  2**0
                  CONTENTS, READONLY, DEBUGGING, OCTETS
 18 .debug_line   0001b187  00000000  00000000  00049456  2**0
                  CONTENTS, READONLY, DEBUGGING, OCTETS
 19 .debug_str    00091975  00000000  00000000  000645dd  2**0
                  CONTENTS, READONLY, DEBUGGING, OCTETS
 20 .comment      00000043  00000000  00000000  000f5f52  2**0
                  CONTENTS, READONLY
 21 .debug_frame  00002cf4  00000000  00000000  000f5f98  2**2
                  CONTENTS, READONLY, DEBUGGING, OCTETS
 22 .debug_line_str 00000068  00000000  00000000  000f8c8c  2**0
                  CONTENTS, READONLY, DEBUGGING, OCTETS

Disassembly of section .text:

080000b8 <__do_global_dtors_aux>:
 80000b8:	b510      	push	{r4, lr}
 80000ba:	4c06      	ldr	r4, [pc, #24]	@ (80000d4 <__do_global_dtors_aux+0x1c>)
 80000bc:	7823      	ldrb	r3, [r4, #0]
 80000be:	2b00      	cmp	r3, #0
 80000c0:	d107      	bne.n	80000d2 <__do_global_dtors_aux+0x1a>
 80000c2:	4b05      	ldr	r3, [pc, #20]	@ (80000d8 <__do_global_dtors_aux+0x20>)
 80000c4:	2b00      	cmp	r3, #0
 80000c6:	d002      	beq.n	80000ce <__do_global_dtors_aux+0x16>
 80000c8:	4804      	ldr	r0, [pc, #16]	@ (80000dc <__do_global_dtors_aux+0x24>)
 80000ca:	e000      	b.n	80000ce <__do_global_dtors_aux+0x16>
 80000cc:	bf00      	nop
 80000ce:	2301      	movs	r3, #1
 80000d0:	7023      	strb	r3, [r4, #0]
 80000d2:	bd10      	pop	{r4, pc}
 80000d4:	20000018 	.word	0x20000018
 80000d8:	00000000 	.word	0x00000000
 80000dc:	08004ef4 	.word	0x08004ef4

080000e0 <frame_dummy>:
 80000e0:	4b04      	ldr	r3, [pc, #16]	@ (80000f4 <frame_dummy+0x14>)
 80000e2:	b510      	push	{r4, lr}
 80000e4:	2b00      	cmp	r3, #0
 80000e6:	d003      	beq.n	80000f0 <frame_dummy+0x10>
 80000e8:	4903      	ldr	r1, [pc, #12]	@ (80000f8 <frame_dummy+0x18>)
 80000ea:	4804      	ldr	r0, [pc, #16]	@ (80000fc <frame_dummy+0x1c>)
 80000ec:	e000      	b.n	80000f0 <frame_dummy+0x10>
 80000ee:	bf00      	nop
 80000f0:	bd10      	pop	{r4, pc}
 80000f2:	46c0      	nop			@ (mov r8, r8)
 80000f4:	00000000 	.word	0x00000000
 80000f8:	2000001c 	.word	0x2000001c
 80000fc:	08004ef4 	.word	0x08004ef4

08000100 <__gnu_thumb1_case_uqi>:
 8000100:	b402      	push	{r1}
 8000102:	4671      	mov	r1, lr
 8000104:	0849      	lsrs	r1, r1, #1
 8000106:	0049      	lsls	r1, r1, #1
 8000108:	5c09      	ldrb	r1, [r1, r0]
 800010a:	0049      	lsls	r1, r1, #1
 800010c:	448e      	add	lr, r1
 800010e:	bc02      	pop	{r1}
 8000110:	4770      	bx	lr
 8000112:	46c0      	nop			@ (mov r8, r8)

08000114 <__udivsi3>:
 8000114:	2200      	movs	r2, #0
 8000116:	0843      	lsrs	r3, r0, #1
 8000118:	428b      	cmp	r3, r1
 800011a:	d374      	bcc.n	8000206 <__udivsi3+0xf2>
 800011c:	0903      	lsrs	r3, r0, #4
 800011e:	428b      	cmp	r3, r1
 8000120:	d35f      	bcc.n	80001e2 <__udivsi3+0xce>
 8000122:	0a03      	lsrs	r3, r0, #8
 8000124:	428b      	cmp	r3, r1
 8000126:	d344      	bcc.n	80001b2 <__udivsi3+0x9e>
 8000128:	0b03      	lsrs	r3, r0, #12
 800012a:	428b      	cmp	r3, r1
 800012c:	d328      	bcc.n	8000180 <__udivsi3+0x6c>
 800012e:	0c03      	lsrs	r3, r0, #16
 8000130:	428b      	cmp	r3, r1
 8000132:	d30d      	bcc.n	8000150 <__udivsi3+0x3c>
 8000134:	22ff      	movs	r2, #255	@ 0xff
 8000136:	0209      	lsls	r1, r1, #8
 8000138:	ba12      	rev	r2, r2
 800013a:	0c03      	lsrs	r3, r0, #16
 800013c:	428b      	cmp	r3, r1
 800013e:	d302      	bcc.n	8000146 <__udivsi3+0x32>
 8000140:	1212      	asrs	r2, r2, #8
 8000142:	0209      	lsls	r1, r1, #8
 8000144:	d065      	beq.n	8000212 <__udivsi3+0xfe>
 8000146:	0b03      	lsrs	r3, r0, #12
 8000148:	428b      	cmp	r3, r1
 800014a:	d319      	bcc.n	8000180 <__udivsi3+0x6c>
 800014c:	e000      	b.n	8000150 <__udivsi3+0x3c>
 800014e:	0a09      	lsrs	r1, r1, #8
 8000150:	0bc3      	lsrs	r3, r0, #15
 8000152:	428b      	cmp	r3, r1
 8000154:	d301      	bcc.n	800015a <__udivsi3+0x46>
 8000156:	03cb      	lsls	r3, r1, #15
 8000158:	1ac0      	subs	r0, r0, r3
 800015a:	4152      	adcs	r2, r2
 800015c:	0b83      	lsrs	r3, r0, #14
 800015e:	428b      	cmp	r3, r1
 8000160:	d301      	bcc.n	8000166 <__udivsi3+0x52>
 8000162:	038b      	lsls	r3, r1, #14
 8000164:	1ac0      	subs	r0, r0, r3
 8000166:	4152      	adcs	r2, r2
 8000168:	0b43      	lsrs	r3, r0, #13
 800016a:	428b      	cmp	r3, r1
 800016c:	d301      	bcc.n	8000172 <__udivsi3+0x5e>
 800016e:	034b      	lsls	r3, r1, #13
 8000170:	1ac0      	subs	r0, r0, r3
 8000172:	4152      	adcs	r2, r2
 8000174:	0b03      	lsrs	r3, r0, #12
 8000176:	428b      	cmp	r3, r1
 8000178:	d301      	bcc.n	800017e <__udivsi3+0x6a>
 800017a:	030b      	lsls	r3, r1, #12
 800017c:	1ac0      	subs	r0, r0, r3
 800017e:	4152      	adcs	r2, r2
 8000180:	0ac3      	lsrs	r3, r0, #11
 8000182:	428b      	cmp	r3, r1
 8000184:	d301      	bcc.n	800018a <__udivsi3+0x76>
 8000186:	02cb      	lsls	r3, r1, #11
 8000188:	1ac0      	subs	r0, r0, r3
 800018a:	4152      	adcs	r2, r2
 800018c:	0a83      	lsrs	r3, r0, #10
 800018e:	428b      	cmp	r3, r1
 8000190:	d301      	bcc.n	8000196 <__udivsi3+0x82>
 8000192:	028b      	lsls	r3, r1, #10
 8000194:	1ac0      	subs	r0, r0, r3
 8000196:	4152      	adcs	r2, r2
 8000198:	0a43      	lsrs	r3, r0, #9
 800019a:	428b      	cmp	r3, r1
 800019c:	d301      	bcc.n	80001a2 <__udivsi3+0x8e>
 800019e:	024b      	lsls	r3, r1, #9
 80001a0:	1ac0      	subs	r0, r0, r3
 80001a2:	4152      	adcs	r2, r2
 80001a4:	0a03      	lsrs	r3, r0, #8
 80001a6:	428b      	cmp	r3, r1
 80001a8:	d301      	bcc.n	80001ae <__udivsi3+0x9a>
 80001aa:	020b      	lsls	r3, r1, #8
 80001ac:	1ac0      	subs	r0, r0, r3
 80001ae:	4152      	adcs	r2, r2
 80001b0:	d2cd      	bcs.n	800014e <__udivsi3+0x3a>
 80001b2:	09c3      	lsrs	r3, r0, #7
 80001b4:	428b      	cmp	r3, r1
 80001b6:	d301      	bcc.n	80001bc <__udivsi3+0xa8>
 80001b8:	01cb      	lsls	r3, r1, #7
 80001ba:	1ac0      	subs	r0, r0, r3
 80001bc:	4152      	adcs	r2, r2
 80001be:	0983      	lsrs	r3, r0, #6
 80001c0:	428b      	cmp	r3, r1
 80001c2:	d301      	bcc.n	80001c8 <__udivsi3+0xb4>
 80001c4:	018b      	lsls	r3, r1, #6
 80001c6:	1ac0      	subs	r0, r0, r3
 80001c8:	4152      	adcs	r2, r2
 80001ca:	0943      	lsrs	r3, r0, #5
 80001cc:	428b      	cmp	r3, r1
 80001ce:	d301      	bcc.n	80001d4 <__udivsi3+0xc0>
 80001d0:	014b      	lsls	r3, r1, #5
 80001d2:	1ac0      	subs	r0, r0, r3
 80001d4:	4152      	adcs	r2, r2
 80001d6:	0903      	lsrs	r3, r0, #4
 80001d8:	428b      	cmp	r3, r1
 80001da:	d301      	bcc.n	80001e0 <__udivsi3+0xcc>
 80001dc:	010b      	lsls	r3, r1, #4
 80001de:	1ac0      	subs	r0, r0, r3
 80001e0:	4152      	adcs	r2, r2
 80001e2:	08c3      	lsrs	r3, r0, #3
 80001e4:	428b      	cmp	r3, r1
 80001e6:	d301      	bcc.n	80001ec <__udivsi3+0xd8>
 80001e8:	00cb      	lsls	r3, r1, #3
 80001ea:	1ac0      	subs	r0, r0, r3
 80001ec:	4152      	adcs	r2, r2
 80001ee:	0883      	lsrs	r3, r0, #2
 80001f0:	428b      	cmp	r3, r1
 80001f2:	d301      	bcc.n	80001f8 <__udivsi3+0xe4>
 80001f4:	008b      	lsls	r3, r1, #2
 80001f6:	1ac0      	subs	r0, r0, r3
 80001f8:	4152      	adcs	r2, r2
 80001fa:	0843      	lsrs	r3, r0, #1
 80001fc:	428b      	cmp	r3, r1
 80001fe:	d301      	bcc.n	8000204 <__udivsi3+0xf0>
 8000200:	004b      	lsls	r3, r1, #1
 8000202:	1ac0      	subs	r0, r0, r3
 8000204:	4152      	adcs	r2, r2
 8000206:	1a41      	subs	r1, r0, r1
 8000208:	d200      	bcs.n	800020c <__udivsi3+0xf8>
 800020a:	4601      	mov	r1, r0
 800020c:	4152      	adcs	r2, r2
 800020e:	4610      	mov	r0, r2
 8000210:	4770      	bx	lr
 8000212:	e7ff      	b.n	8000214 <__udivsi3+0x100>
 8000214:	b501      	push	{r0, lr}
 8000216:	2000      	movs	r0, #0
 8000218:	f000 f806 	bl	8000228 <__aeabi_idiv0>
 800021c:	bd02      	pop	{r1, pc}
 800021e:	46c0      	nop			@ (mov r8, r8)

08000220 <__aeabi_uidivmod>:
 8000220:	2900      	cmp	r1, #0
 8000222:	d0f7      	beq.n	8000214 <__udivsi3+0x100>
 8000224:	e776      	b.n	8000114 <__udivsi3>
 8000226:	4770      	bx	lr

08000228 <__aeabi_idiv0>:
 8000228:	4770      	bx	lr
 800022a:	46c0      	nop			@ (mov r8, r8)

0800022c <__aeabi_cfrcmple>:
 800022c:	4684      	mov	ip, r0
 800022e:	0008      	movs	r0, r1
 8000230:	4661      	mov	r1, ip
 8000232:	e7ff      	b.n	8000234 <__aeabi_cfcmpeq>

08000234 <__aeabi_cfcmpeq>:
 8000234:	b51f      	push	{r0, r1, r2, r3, r4, lr}
 8000236:	f000 fbc3 	bl	80009c0 <__lesf2>
 800023a:	2800      	cmp	r0, #0
 800023c:	d401      	bmi.n	8000242 <__aeabi_cfcmpeq+0xe>
 800023e:	2100      	movs	r1, #0
 8000240:	42c8      	cmn	r0, r1
 8000242:	bd1f      	pop	{r0, r1, r2, r3, r4, pc}

08000244 <__aeabi_fcmpeq>:
 8000244:	b510      	push	{r4, lr}
 8000246:	f000 fb4b 	bl	80008e0 <__eqsf2>
 800024a:	4240      	negs	r0, r0
 800024c:	3001      	adds	r0, #1
 800024e:	bd10      	pop	{r4, pc}

08000250 <__aeabi_fcmplt>:
 8000250:	b510      	push	{r4, lr}
 8000252:	f000 fbb5 	bl	80009c0 <__lesf2>
 8000256:	2800      	cmp	r0, #0
 8000258:	db01      	blt.n	800025e <__aeabi_fcmplt+0xe>
 800025a:	2000      	movs	r0, #0
 800025c:	bd10      	pop	{r4, pc}
 800025e:	2001      	movs	r0, #1
 8000260:	bd10      	pop	{r4, pc}
 8000262:	46c0      	nop			@ (mov r8, r8)

08000264 <__aeabi_fcmple>:
 8000264:	b510      	push	{r4, lr}
 8000266:	f000 fbab 	bl	80009c0 <__lesf2>
 800026a:	2800      	cmp	r0, #0
 800026c:	dd01      	ble.n	8000272 <__aeabi_fcmple+0xe>
 800026e:	2000      	movs	r0, #0
 8000270:	bd10      	pop	{r4, pc}
 8000272:	2001      	movs	r0, #1
 8000274:	bd10      	pop	{r4, pc}
 8000276:	46c0      	nop			@ (mov r8, r8)

08000278 <__aeabi_fcmpgt>:
 8000278:	b510      	push	{r4, lr}
 800027a:	f000 fb59 	bl	8000930 <__gesf2>
 800027e:	2800      	cmp	r0, #0
 8000280:	dc01      	bgt.n	8000286 <__aeabi_fcmpgt+0xe>
 8000282:	2000      	movs	r0, #0
 8000284:	bd10      	pop	{r4, pc}
 8000286:	2001      	movs	r0, #1
 8000288:	bd10      	pop	{r4, pc}
 800028a:	46c0      	nop			@ (mov r8, r8)

0800028c <__aeabi_fcmpge>:
 800028c:	b510      	push	{r4, lr}
 800028e:	f000 fb4f 	bl	8000930 <__gesf2>
 8000292:	2800      	cmp	r0, #0
 8000294:	da01      	bge.n	800029a <__aeabi_fcmpge+0xe>
 8000296:	2000      	movs	r0, #0
 8000298:	bd10      	pop	{r4, pc}
 800029a:	2001      	movs	r0, #1
 800029c:	bd10      	pop	{r4, pc}
 800029e:	46c0      	nop			@ (mov r8, r8)

080002a0 <__aeabi_f2uiz>:
 80002a0:	219e      	movs	r1, #158	@ 0x9e
 80002a2:	b510      	push	{r4, lr}
 80002a4:	05c9      	lsls	r1, r1, #23
 80002a6:	1c04      	adds	r4, r0, #0
 80002a8:	f7ff fff0 	bl	800028c <__aeabi_fcmpge>
 80002ac:	2800      	cmp	r0, #0
 80002ae:	d103      	bne.n	80002b8 <__aeabi_f2uiz+0x18>
 80002b0:	1c20      	adds	r0, r4, #0
 80002b2:	f000 ff8b 	bl	80011cc <__aeabi_f2iz>
 80002b6:	bd10      	pop	{r4, pc}
 80002b8:	219e      	movs	r1, #158	@ 0x9e
 80002ba:	1c20      	adds	r0, r4, #0
 80002bc:	05c9      	lsls	r1, r1, #23
 80002be:	f000 fd21 	bl	8000d04 <__aeabi_fsub>
 80002c2:	f000 ff83 	bl	80011cc <__aeabi_f2iz>
 80002c6:	2380      	movs	r3, #128	@ 0x80
 80002c8:	061b      	lsls	r3, r3, #24
 80002ca:	469c      	mov	ip, r3
 80002cc:	4460      	add	r0, ip
 80002ce:	e7f2      	b.n	80002b6 <__aeabi_f2uiz+0x16>

080002d0 <__aeabi_fadd>:
 80002d0:	b5f8      	push	{r3, r4, r5, r6, r7, lr}
 80002d2:	024b      	lsls	r3, r1, #9
 80002d4:	0a5a      	lsrs	r2, r3, #9
 80002d6:	4694      	mov	ip, r2
 80002d8:	004a      	lsls	r2, r1, #1
 80002da:	0fc9      	lsrs	r1, r1, #31
 80002dc:	46ce      	mov	lr, r9
 80002de:	4647      	mov	r7, r8
 80002e0:	4689      	mov	r9, r1
 80002e2:	0045      	lsls	r5, r0, #1
 80002e4:	0246      	lsls	r6, r0, #9
 80002e6:	0e2d      	lsrs	r5, r5, #24
 80002e8:	0e12      	lsrs	r2, r2, #24
 80002ea:	b580      	push	{r7, lr}
 80002ec:	0999      	lsrs	r1, r3, #6
 80002ee:	0a77      	lsrs	r7, r6, #9
 80002f0:	0fc4      	lsrs	r4, r0, #31
 80002f2:	09b6      	lsrs	r6, r6, #6
 80002f4:	1aab      	subs	r3, r5, r2
 80002f6:	454c      	cmp	r4, r9
 80002f8:	d020      	beq.n	800033c <__aeabi_fadd+0x6c>
 80002fa:	2b00      	cmp	r3, #0
 80002fc:	dd0c      	ble.n	8000318 <__aeabi_fadd+0x48>
 80002fe:	2a00      	cmp	r2, #0
 8000300:	d134      	bne.n	800036c <__aeabi_fadd+0x9c>
 8000302:	2900      	cmp	r1, #0
 8000304:	d02a      	beq.n	800035c <__aeabi_fadd+0x8c>
 8000306:	1e5a      	subs	r2, r3, #1
 8000308:	2b01      	cmp	r3, #1
 800030a:	d100      	bne.n	800030e <__aeabi_fadd+0x3e>
 800030c:	e08f      	b.n	800042e <__aeabi_fadd+0x15e>
 800030e:	2bff      	cmp	r3, #255	@ 0xff
 8000310:	d100      	bne.n	8000314 <__aeabi_fadd+0x44>
 8000312:	e0cd      	b.n	80004b0 <__aeabi_fadd+0x1e0>
 8000314:	0013      	movs	r3, r2
 8000316:	e02f      	b.n	8000378 <__aeabi_fadd+0xa8>
 8000318:	2b00      	cmp	r3, #0
 800031a:	d060      	beq.n	80003de <__aeabi_fadd+0x10e>
 800031c:	1b53      	subs	r3, r2, r5
 800031e:	2d00      	cmp	r5, #0
 8000320:	d000      	beq.n	8000324 <__aeabi_fadd+0x54>
 8000322:	e0ee      	b.n	8000502 <__aeabi_fadd+0x232>
 8000324:	2e00      	cmp	r6, #0
 8000326:	d100      	bne.n	800032a <__aeabi_fadd+0x5a>
 8000328:	e13e      	b.n	80005a8 <__aeabi_fadd+0x2d8>
 800032a:	1e5c      	subs	r4, r3, #1
 800032c:	2b01      	cmp	r3, #1
 800032e:	d100      	bne.n	8000332 <__aeabi_fadd+0x62>
 8000330:	e16b      	b.n	800060a <__aeabi_fadd+0x33a>
 8000332:	2bff      	cmp	r3, #255	@ 0xff
 8000334:	d100      	bne.n	8000338 <__aeabi_fadd+0x68>
 8000336:	e0b9      	b.n	80004ac <__aeabi_fadd+0x1dc>
 8000338:	0023      	movs	r3, r4
 800033a:	e0e7      	b.n	800050c <__aeabi_fadd+0x23c>
 800033c:	2b00      	cmp	r3, #0
 800033e:	dc00      	bgt.n	8000342 <__aeabi_fadd+0x72>
 8000340:	e0a4      	b.n	800048c <__aeabi_fadd+0x1bc>
 8000342:	2a00      	cmp	r2, #0
 8000344:	d069      	beq.n	800041a <__aeabi_fadd+0x14a>
 8000346:	2dff      	cmp	r5, #255	@ 0xff
 8000348:	d100      	bne.n	800034c <__aeabi_fadd+0x7c>
 800034a:	e0b1      	b.n	80004b0 <__aeabi_fadd+0x1e0>
 800034c:	2280      	movs	r2, #128	@ 0x80
 800034e:	04d2      	lsls	r2, r2, #19
 8000350:	4311      	orrs	r1, r2
 8000352:	2b1b      	cmp	r3, #27
 8000354:	dc00      	bgt.n	8000358 <__aeabi_fadd+0x88>
 8000356:	e0e9      	b.n	800052c <__aeabi_fadd+0x25c>
 8000358:	002b      	movs	r3, r5
 800035a:	3605      	adds	r6, #5
 800035c:	08f7      	lsrs	r7, r6, #3
 800035e:	2bff      	cmp	r3, #255	@ 0xff
 8000360:	d100      	bne.n	8000364 <__aeabi_fadd+0x94>
 8000362:	e0a5      	b.n	80004b0 <__aeabi_fadd+0x1e0>
 8000364:	027a      	lsls	r2, r7, #9
 8000366:	0a52      	lsrs	r2, r2, #9
 8000368:	b2d8      	uxtb	r0, r3
 800036a:	e030      	b.n	80003ce <__aeabi_fadd+0xfe>
 800036c:	2dff      	cmp	r5, #255	@ 0xff
 800036e:	d100      	bne.n	8000372 <__aeabi_fadd+0xa2>
 8000370:	e09e      	b.n	80004b0 <__aeabi_fadd+0x1e0>
 8000372:	2280      	movs	r2, #128	@ 0x80
 8000374:	04d2      	lsls	r2, r2, #19
 8000376:	4311      	orrs	r1, r2
 8000378:	2001      	movs	r0, #1
 800037a:	2b1b      	cmp	r3, #27
 800037c:	dc08      	bgt.n	8000390 <__aeabi_fadd+0xc0>
 800037e:	0008      	movs	r0, r1
 8000380:	2220      	movs	r2, #32
 8000382:	40d8      	lsrs	r0, r3
 8000384:	1ad3      	subs	r3, r2, r3
 8000386:	4099      	lsls	r1, r3
 8000388:	000b      	movs	r3, r1
 800038a:	1e5a      	subs	r2, r3, #1
 800038c:	4193      	sbcs	r3, r2
 800038e:	4318      	orrs	r0, r3
 8000390:	1a36      	subs	r6, r6, r0
 8000392:	0173      	lsls	r3, r6, #5
 8000394:	d400      	bmi.n	8000398 <__aeabi_fadd+0xc8>
 8000396:	e071      	b.n	800047c <__aeabi_fadd+0x1ac>
 8000398:	01b6      	lsls	r6, r6, #6
 800039a:	09b7      	lsrs	r7, r6, #6
 800039c:	0038      	movs	r0, r7
 800039e:	f000 ff85 	bl	80012ac <__clzsi2>
 80003a2:	003b      	movs	r3, r7
 80003a4:	3805      	subs	r0, #5
 80003a6:	4083      	lsls	r3, r0
 80003a8:	4285      	cmp	r5, r0
 80003aa:	dd4d      	ble.n	8000448 <__aeabi_fadd+0x178>
 80003ac:	4eb4      	ldr	r6, [pc, #720]	@ (8000680 <__aeabi_fadd+0x3b0>)
 80003ae:	1a2d      	subs	r5, r5, r0
 80003b0:	401e      	ands	r6, r3
 80003b2:	075a      	lsls	r2, r3, #29
 80003b4:	d068      	beq.n	8000488 <__aeabi_fadd+0x1b8>
 80003b6:	220f      	movs	r2, #15
 80003b8:	4013      	ands	r3, r2
 80003ba:	2b04      	cmp	r3, #4
 80003bc:	d064      	beq.n	8000488 <__aeabi_fadd+0x1b8>
 80003be:	3604      	adds	r6, #4
 80003c0:	0173      	lsls	r3, r6, #5
 80003c2:	d561      	bpl.n	8000488 <__aeabi_fadd+0x1b8>
 80003c4:	1c68      	adds	r0, r5, #1
 80003c6:	2dfe      	cmp	r5, #254	@ 0xfe
 80003c8:	d154      	bne.n	8000474 <__aeabi_fadd+0x1a4>
 80003ca:	20ff      	movs	r0, #255	@ 0xff
 80003cc:	2200      	movs	r2, #0
 80003ce:	05c0      	lsls	r0, r0, #23
 80003d0:	4310      	orrs	r0, r2
 80003d2:	07e4      	lsls	r4, r4, #31
 80003d4:	4320      	orrs	r0, r4
 80003d6:	bcc0      	pop	{r6, r7}
 80003d8:	46b9      	mov	r9, r7
 80003da:	46b0      	mov	r8, r6
 80003dc:	bdf8      	pop	{r3, r4, r5, r6, r7, pc}
 80003de:	22fe      	movs	r2, #254	@ 0xfe
 80003e0:	4690      	mov	r8, r2
 80003e2:	1c68      	adds	r0, r5, #1
 80003e4:	0002      	movs	r2, r0
 80003e6:	4640      	mov	r0, r8
 80003e8:	4210      	tst	r0, r2
 80003ea:	d16b      	bne.n	80004c4 <__aeabi_fadd+0x1f4>
 80003ec:	2d00      	cmp	r5, #0
 80003ee:	d000      	beq.n	80003f2 <__aeabi_fadd+0x122>
 80003f0:	e0dd      	b.n	80005ae <__aeabi_fadd+0x2de>
 80003f2:	2e00      	cmp	r6, #0
 80003f4:	d100      	bne.n	80003f8 <__aeabi_fadd+0x128>
 80003f6:	e102      	b.n	80005fe <__aeabi_fadd+0x32e>
 80003f8:	2900      	cmp	r1, #0
 80003fa:	d0b3      	beq.n	8000364 <__aeabi_fadd+0x94>
 80003fc:	2280      	movs	r2, #128	@ 0x80
 80003fe:	1a77      	subs	r7, r6, r1
 8000400:	04d2      	lsls	r2, r2, #19
 8000402:	4217      	tst	r7, r2
 8000404:	d100      	bne.n	8000408 <__aeabi_fadd+0x138>
 8000406:	e136      	b.n	8000676 <__aeabi_fadd+0x3a6>
 8000408:	464c      	mov	r4, r9
 800040a:	1b8e      	subs	r6, r1, r6
 800040c:	d061      	beq.n	80004d2 <__aeabi_fadd+0x202>
 800040e:	2001      	movs	r0, #1
 8000410:	4216      	tst	r6, r2
 8000412:	d130      	bne.n	8000476 <__aeabi_fadd+0x1a6>
 8000414:	2300      	movs	r3, #0
 8000416:	08f7      	lsrs	r7, r6, #3
 8000418:	e7a4      	b.n	8000364 <__aeabi_fadd+0x94>
 800041a:	2900      	cmp	r1, #0
 800041c:	d09e      	beq.n	800035c <__aeabi_fadd+0x8c>
 800041e:	1e5a      	subs	r2, r3, #1
 8000420:	2b01      	cmp	r3, #1
 8000422:	d100      	bne.n	8000426 <__aeabi_fadd+0x156>
 8000424:	e0ca      	b.n	80005bc <__aeabi_fadd+0x2ec>
 8000426:	2bff      	cmp	r3, #255	@ 0xff
 8000428:	d042      	beq.n	80004b0 <__aeabi_fadd+0x1e0>
 800042a:	0013      	movs	r3, r2
 800042c:	e791      	b.n	8000352 <__aeabi_fadd+0x82>
 800042e:	1a71      	subs	r1, r6, r1
 8000430:	014b      	lsls	r3, r1, #5
 8000432:	d400      	bmi.n	8000436 <__aeabi_fadd+0x166>
 8000434:	e0d1      	b.n	80005da <__aeabi_fadd+0x30a>
 8000436:	018f      	lsls	r7, r1, #6
 8000438:	09bf      	lsrs	r7, r7, #6
 800043a:	0038      	movs	r0, r7
 800043c:	f000 ff36 	bl	80012ac <__clzsi2>
 8000440:	003b      	movs	r3, r7
 8000442:	3805      	subs	r0, #5
 8000444:	4083      	lsls	r3, r0
 8000446:	2501      	movs	r5, #1
 8000448:	2220      	movs	r2, #32
 800044a:	1b40      	subs	r0, r0, r5
 800044c:	3001      	adds	r0, #1
 800044e:	1a12      	subs	r2, r2, r0
 8000450:	001e      	movs	r6, r3
 8000452:	4093      	lsls	r3, r2
 8000454:	40c6      	lsrs	r6, r0
 8000456:	1e5a      	subs	r2, r3, #1
 8000458:	4193      	sbcs	r3, r2
 800045a:	431e      	orrs	r6, r3
 800045c:	d039      	beq.n	80004d2 <__aeabi_fadd+0x202>
 800045e:	0773      	lsls	r3, r6, #29
 8000460:	d100      	bne.n	8000464 <__aeabi_fadd+0x194>
 8000462:	e11b      	b.n	800069c <__aeabi_fadd+0x3cc>
 8000464:	230f      	movs	r3, #15
 8000466:	2500      	movs	r5, #0
 8000468:	4033      	ands	r3, r6
 800046a:	2b04      	cmp	r3, #4
 800046c:	d1a7      	bne.n	80003be <__aeabi_fadd+0xee>
 800046e:	2001      	movs	r0, #1
 8000470:	0172      	lsls	r2, r6, #5
 8000472:	d57c      	bpl.n	800056e <__aeabi_fadd+0x29e>
 8000474:	b2c0      	uxtb	r0, r0
 8000476:	01b2      	lsls	r2, r6, #6
 8000478:	0a52      	lsrs	r2, r2, #9
 800047a:	e7a8      	b.n	80003ce <__aeabi_fadd+0xfe>
 800047c:	0773      	lsls	r3, r6, #29
 800047e:	d003      	beq.n	8000488 <__aeabi_fadd+0x1b8>
 8000480:	230f      	movs	r3, #15
 8000482:	4033      	ands	r3, r6
 8000484:	2b04      	cmp	r3, #4
 8000486:	d19a      	bne.n	80003be <__aeabi_fadd+0xee>
 8000488:	002b      	movs	r3, r5
 800048a:	e767      	b.n	800035c <__aeabi_fadd+0x8c>
 800048c:	2b00      	cmp	r3, #0
 800048e:	d023      	beq.n	80004d8 <__aeabi_fadd+0x208>
 8000490:	1b53      	subs	r3, r2, r5
 8000492:	2d00      	cmp	r5, #0
 8000494:	d17b      	bne.n	800058e <__aeabi_fadd+0x2be>
 8000496:	2e00      	cmp	r6, #0
 8000498:	d100      	bne.n	800049c <__aeabi_fadd+0x1cc>
 800049a:	e086      	b.n	80005aa <__aeabi_fadd+0x2da>
 800049c:	1e5d      	subs	r5, r3, #1
 800049e:	2b01      	cmp	r3, #1
 80004a0:	d100      	bne.n	80004a4 <__aeabi_fadd+0x1d4>
 80004a2:	e08b      	b.n	80005bc <__aeabi_fadd+0x2ec>
 80004a4:	2bff      	cmp	r3, #255	@ 0xff
 80004a6:	d002      	beq.n	80004ae <__aeabi_fadd+0x1de>
 80004a8:	002b      	movs	r3, r5
 80004aa:	e075      	b.n	8000598 <__aeabi_fadd+0x2c8>
 80004ac:	464c      	mov	r4, r9
 80004ae:	4667      	mov	r7, ip
 80004b0:	2f00      	cmp	r7, #0
 80004b2:	d100      	bne.n	80004b6 <__aeabi_fadd+0x1e6>
 80004b4:	e789      	b.n	80003ca <__aeabi_fadd+0xfa>
 80004b6:	2280      	movs	r2, #128	@ 0x80
 80004b8:	03d2      	lsls	r2, r2, #15
 80004ba:	433a      	orrs	r2, r7
 80004bc:	0252      	lsls	r2, r2, #9
 80004be:	20ff      	movs	r0, #255	@ 0xff
 80004c0:	0a52      	lsrs	r2, r2, #9
 80004c2:	e784      	b.n	80003ce <__aeabi_fadd+0xfe>
 80004c4:	1a77      	subs	r7, r6, r1
 80004c6:	017b      	lsls	r3, r7, #5
 80004c8:	d46b      	bmi.n	80005a2 <__aeabi_fadd+0x2d2>
 80004ca:	2f00      	cmp	r7, #0
 80004cc:	d000      	beq.n	80004d0 <__aeabi_fadd+0x200>
 80004ce:	e765      	b.n	800039c <__aeabi_fadd+0xcc>
 80004d0:	2400      	movs	r4, #0
 80004d2:	2000      	movs	r0, #0
 80004d4:	2200      	movs	r2, #0
 80004d6:	e77a      	b.n	80003ce <__aeabi_fadd+0xfe>
 80004d8:	22fe      	movs	r2, #254	@ 0xfe
 80004da:	1c6b      	adds	r3, r5, #1
 80004dc:	421a      	tst	r2, r3
 80004de:	d149      	bne.n	8000574 <__aeabi_fadd+0x2a4>
 80004e0:	2d00      	cmp	r5, #0
 80004e2:	d000      	beq.n	80004e6 <__aeabi_fadd+0x216>
 80004e4:	e09f      	b.n	8000626 <__aeabi_fadd+0x356>
 80004e6:	2e00      	cmp	r6, #0
 80004e8:	d100      	bne.n	80004ec <__aeabi_fadd+0x21c>
 80004ea:	e0ba      	b.n	8000662 <__aeabi_fadd+0x392>
 80004ec:	2900      	cmp	r1, #0
 80004ee:	d100      	bne.n	80004f2 <__aeabi_fadd+0x222>
 80004f0:	e0cf      	b.n	8000692 <__aeabi_fadd+0x3c2>
 80004f2:	1872      	adds	r2, r6, r1
 80004f4:	0153      	lsls	r3, r2, #5
 80004f6:	d400      	bmi.n	80004fa <__aeabi_fadd+0x22a>
 80004f8:	e0cd      	b.n	8000696 <__aeabi_fadd+0x3c6>
 80004fa:	0192      	lsls	r2, r2, #6
 80004fc:	2001      	movs	r0, #1
 80004fe:	0a52      	lsrs	r2, r2, #9
 8000500:	e765      	b.n	80003ce <__aeabi_fadd+0xfe>
 8000502:	2aff      	cmp	r2, #255	@ 0xff
 8000504:	d0d2      	beq.n	80004ac <__aeabi_fadd+0x1dc>
 8000506:	2080      	movs	r0, #128	@ 0x80
 8000508:	04c0      	lsls	r0, r0, #19
 800050a:	4306      	orrs	r6, r0
 800050c:	2001      	movs	r0, #1
 800050e:	2b1b      	cmp	r3, #27
 8000510:	dc08      	bgt.n	8000524 <__aeabi_fadd+0x254>
 8000512:	0030      	movs	r0, r6
 8000514:	2420      	movs	r4, #32
 8000516:	40d8      	lsrs	r0, r3
 8000518:	1ae3      	subs	r3, r4, r3
 800051a:	409e      	lsls	r6, r3
 800051c:	0033      	movs	r3, r6
 800051e:	1e5c      	subs	r4, r3, #1
 8000520:	41a3      	sbcs	r3, r4
 8000522:	4318      	orrs	r0, r3
 8000524:	464c      	mov	r4, r9
 8000526:	0015      	movs	r5, r2
 8000528:	1a0e      	subs	r6, r1, r0
 800052a:	e732      	b.n	8000392 <__aeabi_fadd+0xc2>
 800052c:	0008      	movs	r0, r1
 800052e:	2220      	movs	r2, #32
 8000530:	40d8      	lsrs	r0, r3
 8000532:	1ad3      	subs	r3, r2, r3
 8000534:	4099      	lsls	r1, r3
 8000536:	000b      	movs	r3, r1
 8000538:	1e5a      	subs	r2, r3, #1
 800053a:	4193      	sbcs	r3, r2
 800053c:	4303      	orrs	r3, r0
 800053e:	18f6      	adds	r6, r6, r3
 8000540:	0173      	lsls	r3, r6, #5
 8000542:	d59b      	bpl.n	800047c <__aeabi_fadd+0x1ac>
 8000544:	3501      	adds	r5, #1
 8000546:	2dff      	cmp	r5, #255	@ 0xff
 8000548:	d100      	bne.n	800054c <__aeabi_fadd+0x27c>
 800054a:	e73e      	b.n	80003ca <__aeabi_fadd+0xfa>
 800054c:	2301      	movs	r3, #1
 800054e:	494d      	ldr	r1, [pc, #308]	@ (8000684 <__aeabi_fadd+0x3b4>)
 8000550:	0872      	lsrs	r2, r6, #1
 8000552:	4033      	ands	r3, r6
 8000554:	400a      	ands	r2, r1
 8000556:	431a      	orrs	r2, r3
 8000558:	0016      	movs	r6, r2
 800055a:	0753      	lsls	r3, r2, #29
 800055c:	d004      	beq.n	8000568 <__aeabi_fadd+0x298>
 800055e:	230f      	movs	r3, #15
 8000560:	4013      	ands	r3, r2
 8000562:	2b04      	cmp	r3, #4
 8000564:	d000      	beq.n	8000568 <__aeabi_fadd+0x298>
 8000566:	e72a      	b.n	80003be <__aeabi_fadd+0xee>
 8000568:	0173      	lsls	r3, r6, #5
 800056a:	d500      	bpl.n	800056e <__aeabi_fadd+0x29e>
 800056c:	e72a      	b.n	80003c4 <__aeabi_fadd+0xf4>
 800056e:	002b      	movs	r3, r5
 8000570:	08f7      	lsrs	r7, r6, #3
 8000572:	e6f7      	b.n	8000364 <__aeabi_fadd+0x94>
 8000574:	2bff      	cmp	r3, #255	@ 0xff
 8000576:	d100      	bne.n	800057a <__aeabi_fadd+0x2aa>
 8000578:	e727      	b.n	80003ca <__aeabi_fadd+0xfa>
 800057a:	1871      	adds	r1, r6, r1
 800057c:	0849      	lsrs	r1, r1, #1
 800057e:	074a      	lsls	r2, r1, #29
 8000580:	d02f      	beq.n	80005e2 <__aeabi_fadd+0x312>
 8000582:	220f      	movs	r2, #15
 8000584:	400a      	ands	r2, r1
 8000586:	2a04      	cmp	r2, #4
 8000588:	d02b      	beq.n	80005e2 <__aeabi_fadd+0x312>
 800058a:	1d0e      	adds	r6, r1, #4
 800058c:	e6e6      	b.n	800035c <__aeabi_fadd+0x8c>
 800058e:	2aff      	cmp	r2, #255	@ 0xff
 8000590:	d08d      	beq.n	80004ae <__aeabi_fadd+0x1de>
 8000592:	2080      	movs	r0, #128	@ 0x80
 8000594:	04c0      	lsls	r0, r0, #19
 8000596:	4306      	orrs	r6, r0
 8000598:	2b1b      	cmp	r3, #27
 800059a:	dd24      	ble.n	80005e6 <__aeabi_fadd+0x316>
 800059c:	0013      	movs	r3, r2
 800059e:	1d4e      	adds	r6, r1, #5
 80005a0:	e6dc      	b.n	800035c <__aeabi_fadd+0x8c>
 80005a2:	464c      	mov	r4, r9
 80005a4:	1b8f      	subs	r7, r1, r6
 80005a6:	e6f9      	b.n	800039c <__aeabi_fadd+0xcc>
 80005a8:	464c      	mov	r4, r9
 80005aa:	000e      	movs	r6, r1
 80005ac:	e6d6      	b.n	800035c <__aeabi_fadd+0x8c>
 80005ae:	2e00      	cmp	r6, #0
 80005b0:	d149      	bne.n	8000646 <__aeabi_fadd+0x376>
 80005b2:	2900      	cmp	r1, #0
 80005b4:	d068      	beq.n	8000688 <__aeabi_fadd+0x3b8>
 80005b6:	4667      	mov	r7, ip
 80005b8:	464c      	mov	r4, r9
 80005ba:	e77c      	b.n	80004b6 <__aeabi_fadd+0x1e6>
 80005bc:	1870      	adds	r0, r6, r1
 80005be:	0143      	lsls	r3, r0, #5
 80005c0:	d574      	bpl.n	80006ac <__aeabi_fadd+0x3dc>
 80005c2:	4930      	ldr	r1, [pc, #192]	@ (8000684 <__aeabi_fadd+0x3b4>)
 80005c4:	0840      	lsrs	r0, r0, #1
 80005c6:	4001      	ands	r1, r0
 80005c8:	0743      	lsls	r3, r0, #29
 80005ca:	d009      	beq.n	80005e0 <__aeabi_fadd+0x310>
 80005cc:	230f      	movs	r3, #15
 80005ce:	4003      	ands	r3, r0
 80005d0:	2b04      	cmp	r3, #4
 80005d2:	d005      	beq.n	80005e0 <__aeabi_fadd+0x310>
 80005d4:	2302      	movs	r3, #2
 80005d6:	1d0e      	adds	r6, r1, #4
 80005d8:	e6c0      	b.n	800035c <__aeabi_fadd+0x8c>
 80005da:	2301      	movs	r3, #1
 80005dc:	08cf      	lsrs	r7, r1, #3
 80005de:	e6c1      	b.n	8000364 <__aeabi_fadd+0x94>
 80005e0:	2302      	movs	r3, #2
 80005e2:	08cf      	lsrs	r7, r1, #3
 80005e4:	e6be      	b.n	8000364 <__aeabi_fadd+0x94>
 80005e6:	2520      	movs	r5, #32
 80005e8:	0030      	movs	r0, r6
 80005ea:	40d8      	lsrs	r0, r3
 80005ec:	1aeb      	subs	r3, r5, r3
 80005ee:	409e      	lsls	r6, r3
 80005f0:	0033      	movs	r3, r6
 80005f2:	1e5d      	subs	r5, r3, #1
 80005f4:	41ab      	sbcs	r3, r5
 80005f6:	4303      	orrs	r3, r0
 80005f8:	0015      	movs	r5, r2
 80005fa:	185e      	adds	r6, r3, r1
 80005fc:	e7a0      	b.n	8000540 <__aeabi_fadd+0x270>
 80005fe:	2900      	cmp	r1, #0
 8000600:	d100      	bne.n	8000604 <__aeabi_fadd+0x334>
 8000602:	e765      	b.n	80004d0 <__aeabi_fadd+0x200>
 8000604:	464c      	mov	r4, r9
 8000606:	4667      	mov	r7, ip
 8000608:	e6ac      	b.n	8000364 <__aeabi_fadd+0x94>
 800060a:	1b8f      	subs	r7, r1, r6
 800060c:	017b      	lsls	r3, r7, #5
 800060e:	d52e      	bpl.n	800066e <__aeabi_fadd+0x39e>
 8000610:	01bf      	lsls	r7, r7, #6
 8000612:	09bf      	lsrs	r7, r7, #6
 8000614:	0038      	movs	r0, r7
 8000616:	f000 fe49 	bl	80012ac <__clzsi2>
 800061a:	003b      	movs	r3, r7
 800061c:	3805      	subs	r0, #5
 800061e:	4083      	lsls	r3, r0
 8000620:	464c      	mov	r4, r9
 8000622:	3501      	adds	r5, #1
 8000624:	e710      	b.n	8000448 <__aeabi_fadd+0x178>
 8000626:	2e00      	cmp	r6, #0
 8000628:	d100      	bne.n	800062c <__aeabi_fadd+0x35c>
 800062a:	e740      	b.n	80004ae <__aeabi_fadd+0x1de>
 800062c:	2900      	cmp	r1, #0
 800062e:	d100      	bne.n	8000632 <__aeabi_fadd+0x362>
 8000630:	e741      	b.n	80004b6 <__aeabi_fadd+0x1e6>
 8000632:	2380      	movs	r3, #128	@ 0x80
 8000634:	03db      	lsls	r3, r3, #15
 8000636:	429f      	cmp	r7, r3
 8000638:	d200      	bcs.n	800063c <__aeabi_fadd+0x36c>
 800063a:	e73c      	b.n	80004b6 <__aeabi_fadd+0x1e6>
 800063c:	459c      	cmp	ip, r3
 800063e:	d300      	bcc.n	8000642 <__aeabi_fadd+0x372>
 8000640:	e739      	b.n	80004b6 <__aeabi_fadd+0x1e6>
 8000642:	4667      	mov	r7, ip
 8000644:	e737      	b.n	80004b6 <__aeabi_fadd+0x1e6>
 8000646:	2900      	cmp	r1, #0
 8000648:	d100      	bne.n	800064c <__aeabi_fadd+0x37c>
 800064a:	e734      	b.n	80004b6 <__aeabi_fadd+0x1e6>
 800064c:	2380      	movs	r3, #128	@ 0x80
 800064e:	03db      	lsls	r3, r3, #15
 8000650:	429f      	cmp	r7, r3
 8000652:	d200      	bcs.n	8000656 <__aeabi_fadd+0x386>
 8000654:	e72f      	b.n	80004b6 <__aeabi_fadd+0x1e6>
 8000656:	459c      	cmp	ip, r3
 8000658:	d300      	bcc.n	800065c <__aeabi_fadd+0x38c>
 800065a:	e72c      	b.n	80004b6 <__aeabi_fadd+0x1e6>
 800065c:	464c      	mov	r4, r9
 800065e:	4667      	mov	r7, ip
 8000660:	e729      	b.n	80004b6 <__aeabi_fadd+0x1e6>
 8000662:	2900      	cmp	r1, #0
 8000664:	d100      	bne.n	8000668 <__aeabi_fadd+0x398>
 8000666:	e734      	b.n	80004d2 <__aeabi_fadd+0x202>
 8000668:	2300      	movs	r3, #0
 800066a:	08cf      	lsrs	r7, r1, #3
 800066c:	e67a      	b.n	8000364 <__aeabi_fadd+0x94>
 800066e:	464c      	mov	r4, r9
 8000670:	2301      	movs	r3, #1
 8000672:	08ff      	lsrs	r7, r7, #3
 8000674:	e676      	b.n	8000364 <__aeabi_fadd+0x94>
 8000676:	2f00      	cmp	r7, #0
 8000678:	d100      	bne.n	800067c <__aeabi_fadd+0x3ac>
 800067a:	e729      	b.n	80004d0 <__aeabi_fadd+0x200>
 800067c:	08ff      	lsrs	r7, r7, #3
 800067e:	e671      	b.n	8000364 <__aeabi_fadd+0x94>
 8000680:	fbffffff 	.word	0xfbffffff
 8000684:	7dffffff 	.word	0x7dffffff
 8000688:	2280      	movs	r2, #128	@ 0x80
 800068a:	2400      	movs	r4, #0
 800068c:	20ff      	movs	r0, #255	@ 0xff
 800068e:	03d2      	lsls	r2, r2, #15
 8000690:	e69d      	b.n	80003ce <__aeabi_fadd+0xfe>
 8000692:	2300      	movs	r3, #0
 8000694:	e666      	b.n	8000364 <__aeabi_fadd+0x94>
 8000696:	2300      	movs	r3, #0
 8000698:	08d7      	lsrs	r7, r2, #3
 800069a:	e663      	b.n	8000364 <__aeabi_fadd+0x94>
 800069c:	2001      	movs	r0, #1
 800069e:	0172      	lsls	r2, r6, #5
 80006a0:	d500      	bpl.n	80006a4 <__aeabi_fadd+0x3d4>
 80006a2:	e6e7      	b.n	8000474 <__aeabi_fadd+0x1a4>
 80006a4:	0031      	movs	r1, r6
 80006a6:	2300      	movs	r3, #0
 80006a8:	08cf      	lsrs	r7, r1, #3
 80006aa:	e65b      	b.n	8000364 <__aeabi_fadd+0x94>
 80006ac:	2301      	movs	r3, #1
 80006ae:	08c7      	lsrs	r7, r0, #3
 80006b0:	e658      	b.n	8000364 <__aeabi_fadd+0x94>
 80006b2:	46c0      	nop			@ (mov r8, r8)

080006b4 <__aeabi_fdiv>:
 80006b4:	b5f0      	push	{r4, r5, r6, r7, lr}
 80006b6:	4646      	mov	r6, r8
 80006b8:	464f      	mov	r7, r9
 80006ba:	46d6      	mov	lr, sl
 80006bc:	0245      	lsls	r5, r0, #9
 80006be:	b5c0      	push	{r6, r7, lr}
 80006c0:	0fc3      	lsrs	r3, r0, #31
 80006c2:	0047      	lsls	r7, r0, #1
 80006c4:	4698      	mov	r8, r3
 80006c6:	1c0e      	adds	r6, r1, #0
 80006c8:	0a6d      	lsrs	r5, r5, #9
 80006ca:	0e3f      	lsrs	r7, r7, #24
 80006cc:	d05b      	beq.n	8000786 <__aeabi_fdiv+0xd2>
 80006ce:	2fff      	cmp	r7, #255	@ 0xff
 80006d0:	d021      	beq.n	8000716 <__aeabi_fdiv+0x62>
 80006d2:	2380      	movs	r3, #128	@ 0x80
 80006d4:	00ed      	lsls	r5, r5, #3
 80006d6:	04db      	lsls	r3, r3, #19
 80006d8:	431d      	orrs	r5, r3
 80006da:	2300      	movs	r3, #0
 80006dc:	4699      	mov	r9, r3
 80006de:	469a      	mov	sl, r3
 80006e0:	3f7f      	subs	r7, #127	@ 0x7f
 80006e2:	0274      	lsls	r4, r6, #9
 80006e4:	0073      	lsls	r3, r6, #1
 80006e6:	0a64      	lsrs	r4, r4, #9
 80006e8:	0e1b      	lsrs	r3, r3, #24
 80006ea:	0ff6      	lsrs	r6, r6, #31
 80006ec:	2b00      	cmp	r3, #0
 80006ee:	d020      	beq.n	8000732 <__aeabi_fdiv+0x7e>
 80006f0:	2bff      	cmp	r3, #255	@ 0xff
 80006f2:	d043      	beq.n	800077c <__aeabi_fdiv+0xc8>
 80006f4:	2280      	movs	r2, #128	@ 0x80
 80006f6:	2000      	movs	r0, #0
 80006f8:	00e4      	lsls	r4, r4, #3
 80006fa:	04d2      	lsls	r2, r2, #19
 80006fc:	4314      	orrs	r4, r2
 80006fe:	3b7f      	subs	r3, #127	@ 0x7f
 8000700:	4642      	mov	r2, r8
 8000702:	1aff      	subs	r7, r7, r3
 8000704:	464b      	mov	r3, r9
 8000706:	4072      	eors	r2, r6
 8000708:	2b0f      	cmp	r3, #15
 800070a:	d900      	bls.n	800070e <__aeabi_fdiv+0x5a>
 800070c:	e09d      	b.n	800084a <__aeabi_fdiv+0x196>
 800070e:	4971      	ldr	r1, [pc, #452]	@ (80008d4 <__aeabi_fdiv+0x220>)
 8000710:	009b      	lsls	r3, r3, #2
 8000712:	58cb      	ldr	r3, [r1, r3]
 8000714:	469f      	mov	pc, r3
 8000716:	2d00      	cmp	r5, #0
 8000718:	d15a      	bne.n	80007d0 <__aeabi_fdiv+0x11c>
 800071a:	2308      	movs	r3, #8
 800071c:	4699      	mov	r9, r3
 800071e:	3b06      	subs	r3, #6
 8000720:	0274      	lsls	r4, r6, #9
 8000722:	469a      	mov	sl, r3
 8000724:	0073      	lsls	r3, r6, #1
 8000726:	27ff      	movs	r7, #255	@ 0xff
 8000728:	0a64      	lsrs	r4, r4, #9
 800072a:	0e1b      	lsrs	r3, r3, #24
 800072c:	0ff6      	lsrs	r6, r6, #31
 800072e:	2b00      	cmp	r3, #0
 8000730:	d1de      	bne.n	80006f0 <__aeabi_fdiv+0x3c>
 8000732:	2c00      	cmp	r4, #0
 8000734:	d13b      	bne.n	80007ae <__aeabi_fdiv+0xfa>
 8000736:	2301      	movs	r3, #1
 8000738:	4642      	mov	r2, r8
 800073a:	4649      	mov	r1, r9
 800073c:	4072      	eors	r2, r6
 800073e:	4319      	orrs	r1, r3
 8000740:	290e      	cmp	r1, #14
 8000742:	d818      	bhi.n	8000776 <__aeabi_fdiv+0xc2>
 8000744:	4864      	ldr	r0, [pc, #400]	@ (80008d8 <__aeabi_fdiv+0x224>)
 8000746:	0089      	lsls	r1, r1, #2
 8000748:	5841      	ldr	r1, [r0, r1]
 800074a:	468f      	mov	pc, r1
 800074c:	4653      	mov	r3, sl
 800074e:	2b02      	cmp	r3, #2
 8000750:	d100      	bne.n	8000754 <__aeabi_fdiv+0xa0>
 8000752:	e0b8      	b.n	80008c6 <__aeabi_fdiv+0x212>
 8000754:	2b03      	cmp	r3, #3
 8000756:	d06e      	beq.n	8000836 <__aeabi_fdiv+0x182>
 8000758:	4642      	mov	r2, r8
 800075a:	002c      	movs	r4, r5
 800075c:	2b01      	cmp	r3, #1
 800075e:	d140      	bne.n	80007e2 <__aeabi_fdiv+0x12e>
 8000760:	2000      	movs	r0, #0
 8000762:	2400      	movs	r4, #0
 8000764:	05c0      	lsls	r0, r0, #23
 8000766:	4320      	orrs	r0, r4
 8000768:	07d2      	lsls	r2, r2, #31
 800076a:	4310      	orrs	r0, r2
 800076c:	bce0      	pop	{r5, r6, r7}
 800076e:	46ba      	mov	sl, r7
 8000770:	46b1      	mov	r9, r6
 8000772:	46a8      	mov	r8, r5
 8000774:	bdf0      	pop	{r4, r5, r6, r7, pc}
 8000776:	20ff      	movs	r0, #255	@ 0xff
 8000778:	2400      	movs	r4, #0
 800077a:	e7f3      	b.n	8000764 <__aeabi_fdiv+0xb0>
 800077c:	2c00      	cmp	r4, #0
 800077e:	d120      	bne.n	80007c2 <__aeabi_fdiv+0x10e>
 8000780:	2302      	movs	r3, #2
 8000782:	3fff      	subs	r7, #255	@ 0xff
 8000784:	e7d8      	b.n	8000738 <__aeabi_fdiv+0x84>
 8000786:	2d00      	cmp	r5, #0
 8000788:	d105      	bne.n	8000796 <__aeabi_fdiv+0xe2>
 800078a:	2304      	movs	r3, #4
 800078c:	4699      	mov	r9, r3
 800078e:	3b03      	subs	r3, #3
 8000790:	2700      	movs	r7, #0
 8000792:	469a      	mov	sl, r3
 8000794:	e7a5      	b.n	80006e2 <__aeabi_fdiv+0x2e>
 8000796:	0028      	movs	r0, r5
 8000798:	f000 fd88 	bl	80012ac <__clzsi2>
 800079c:	2776      	movs	r7, #118	@ 0x76
 800079e:	1f43      	subs	r3, r0, #5
 80007a0:	409d      	lsls	r5, r3
 80007a2:	2300      	movs	r3, #0
 80007a4:	427f      	negs	r7, r7
 80007a6:	4699      	mov	r9, r3
 80007a8:	469a      	mov	sl, r3
 80007aa:	1a3f      	subs	r7, r7, r0
 80007ac:	e799      	b.n	80006e2 <__aeabi_fdiv+0x2e>
 80007ae:	0020      	movs	r0, r4
 80007b0:	f000 fd7c 	bl	80012ac <__clzsi2>
 80007b4:	1f43      	subs	r3, r0, #5
 80007b6:	409c      	lsls	r4, r3
 80007b8:	2376      	movs	r3, #118	@ 0x76
 80007ba:	425b      	negs	r3, r3
 80007bc:	1a1b      	subs	r3, r3, r0
 80007be:	2000      	movs	r0, #0
 80007c0:	e79e      	b.n	8000700 <__aeabi_fdiv+0x4c>
 80007c2:	2303      	movs	r3, #3
 80007c4:	464a      	mov	r2, r9
 80007c6:	431a      	orrs	r2, r3
 80007c8:	4691      	mov	r9, r2
 80007ca:	2003      	movs	r0, #3
 80007cc:	33fc      	adds	r3, #252	@ 0xfc
 80007ce:	e797      	b.n	8000700 <__aeabi_fdiv+0x4c>
 80007d0:	230c      	movs	r3, #12
 80007d2:	4699      	mov	r9, r3
 80007d4:	3b09      	subs	r3, #9
 80007d6:	27ff      	movs	r7, #255	@ 0xff
 80007d8:	469a      	mov	sl, r3
 80007da:	e782      	b.n	80006e2 <__aeabi_fdiv+0x2e>
 80007dc:	2803      	cmp	r0, #3
 80007de:	d02c      	beq.n	800083a <__aeabi_fdiv+0x186>
 80007e0:	0032      	movs	r2, r6
 80007e2:	0038      	movs	r0, r7
 80007e4:	307f      	adds	r0, #127	@ 0x7f
 80007e6:	2800      	cmp	r0, #0
 80007e8:	dd47      	ble.n	800087a <__aeabi_fdiv+0x1c6>
 80007ea:	0763      	lsls	r3, r4, #29
 80007ec:	d004      	beq.n	80007f8 <__aeabi_fdiv+0x144>
 80007ee:	230f      	movs	r3, #15
 80007f0:	4023      	ands	r3, r4
 80007f2:	2b04      	cmp	r3, #4
 80007f4:	d000      	beq.n	80007f8 <__aeabi_fdiv+0x144>
 80007f6:	3404      	adds	r4, #4
 80007f8:	0123      	lsls	r3, r4, #4
 80007fa:	d503      	bpl.n	8000804 <__aeabi_fdiv+0x150>
 80007fc:	0038      	movs	r0, r7
 80007fe:	4b37      	ldr	r3, [pc, #220]	@ (80008dc <__aeabi_fdiv+0x228>)
 8000800:	3080      	adds	r0, #128	@ 0x80
 8000802:	401c      	ands	r4, r3
 8000804:	28fe      	cmp	r0, #254	@ 0xfe
 8000806:	dcb6      	bgt.n	8000776 <__aeabi_fdiv+0xc2>
 8000808:	01a4      	lsls	r4, r4, #6
 800080a:	0a64      	lsrs	r4, r4, #9
 800080c:	b2c0      	uxtb	r0, r0
 800080e:	e7a9      	b.n	8000764 <__aeabi_fdiv+0xb0>
 8000810:	2480      	movs	r4, #128	@ 0x80
 8000812:	2200      	movs	r2, #0
 8000814:	20ff      	movs	r0, #255	@ 0xff
 8000816:	03e4      	lsls	r4, r4, #15
 8000818:	e7a4      	b.n	8000764 <__aeabi_fdiv+0xb0>
 800081a:	2380      	movs	r3, #128	@ 0x80
 800081c:	03db      	lsls	r3, r3, #15
 800081e:	421d      	tst	r5, r3
 8000820:	d001      	beq.n	8000826 <__aeabi_fdiv+0x172>
 8000822:	421c      	tst	r4, r3
 8000824:	d00b      	beq.n	800083e <__aeabi_fdiv+0x18a>
 8000826:	2480      	movs	r4, #128	@ 0x80
 8000828:	03e4      	lsls	r4, r4, #15
 800082a:	432c      	orrs	r4, r5
 800082c:	0264      	lsls	r4, r4, #9
 800082e:	4642      	mov	r2, r8
 8000830:	20ff      	movs	r0, #255	@ 0xff
 8000832:	0a64      	lsrs	r4, r4, #9
 8000834:	e796      	b.n	8000764 <__aeabi_fdiv+0xb0>
 8000836:	4646      	mov	r6, r8
 8000838:	002c      	movs	r4, r5
 800083a:	2380      	movs	r3, #128	@ 0x80
 800083c:	03db      	lsls	r3, r3, #15
 800083e:	431c      	orrs	r4, r3
 8000840:	0264      	lsls	r4, r4, #9
 8000842:	0032      	movs	r2, r6
 8000844:	20ff      	movs	r0, #255	@ 0xff
 8000846:	0a64      	lsrs	r4, r4, #9
 8000848:	e78c      	b.n	8000764 <__aeabi_fdiv+0xb0>
 800084a:	016d      	lsls	r5, r5, #5
 800084c:	0160      	lsls	r0, r4, #5
 800084e:	4285      	cmp	r5, r0
 8000850:	d22d      	bcs.n	80008ae <__aeabi_fdiv+0x1fa>
 8000852:	231b      	movs	r3, #27
 8000854:	2400      	movs	r4, #0
 8000856:	3f01      	subs	r7, #1
 8000858:	2601      	movs	r6, #1
 800085a:	0029      	movs	r1, r5
 800085c:	0064      	lsls	r4, r4, #1
 800085e:	006d      	lsls	r5, r5, #1
 8000860:	2900      	cmp	r1, #0
 8000862:	db01      	blt.n	8000868 <__aeabi_fdiv+0x1b4>
 8000864:	4285      	cmp	r5, r0
 8000866:	d301      	bcc.n	800086c <__aeabi_fdiv+0x1b8>
 8000868:	1a2d      	subs	r5, r5, r0
 800086a:	4334      	orrs	r4, r6
 800086c:	3b01      	subs	r3, #1
 800086e:	2b00      	cmp	r3, #0
 8000870:	d1f3      	bne.n	800085a <__aeabi_fdiv+0x1a6>
 8000872:	1e6b      	subs	r3, r5, #1
 8000874:	419d      	sbcs	r5, r3
 8000876:	432c      	orrs	r4, r5
 8000878:	e7b3      	b.n	80007e2 <__aeabi_fdiv+0x12e>
 800087a:	2301      	movs	r3, #1
 800087c:	1a1b      	subs	r3, r3, r0
 800087e:	2b1b      	cmp	r3, #27
 8000880:	dd00      	ble.n	8000884 <__aeabi_fdiv+0x1d0>
 8000882:	e76d      	b.n	8000760 <__aeabi_fdiv+0xac>
 8000884:	0021      	movs	r1, r4
 8000886:	379e      	adds	r7, #158	@ 0x9e
 8000888:	40d9      	lsrs	r1, r3
 800088a:	40bc      	lsls	r4, r7
 800088c:	000b      	movs	r3, r1
 800088e:	1e61      	subs	r1, r4, #1
 8000890:	418c      	sbcs	r4, r1
 8000892:	4323      	orrs	r3, r4
 8000894:	0759      	lsls	r1, r3, #29
 8000896:	d004      	beq.n	80008a2 <__aeabi_fdiv+0x1ee>
 8000898:	210f      	movs	r1, #15
 800089a:	4019      	ands	r1, r3
 800089c:	2904      	cmp	r1, #4
 800089e:	d000      	beq.n	80008a2 <__aeabi_fdiv+0x1ee>
 80008a0:	3304      	adds	r3, #4
 80008a2:	0159      	lsls	r1, r3, #5
 80008a4:	d413      	bmi.n	80008ce <__aeabi_fdiv+0x21a>
 80008a6:	019b      	lsls	r3, r3, #6
 80008a8:	2000      	movs	r0, #0
 80008aa:	0a5c      	lsrs	r4, r3, #9
 80008ac:	e75a      	b.n	8000764 <__aeabi_fdiv+0xb0>
 80008ae:	231a      	movs	r3, #26
 80008b0:	2401      	movs	r4, #1
 80008b2:	1a2d      	subs	r5, r5, r0
 80008b4:	e7d0      	b.n	8000858 <__aeabi_fdiv+0x1a4>
 80008b6:	1e98      	subs	r0, r3, #2
 80008b8:	4243      	negs	r3, r0
 80008ba:	4158      	adcs	r0, r3
 80008bc:	4240      	negs	r0, r0
 80008be:	0032      	movs	r2, r6
 80008c0:	2400      	movs	r4, #0
 80008c2:	b2c0      	uxtb	r0, r0
 80008c4:	e74e      	b.n	8000764 <__aeabi_fdiv+0xb0>
 80008c6:	4642      	mov	r2, r8
 80008c8:	20ff      	movs	r0, #255	@ 0xff
 80008ca:	2400      	movs	r4, #0
 80008cc:	e74a      	b.n	8000764 <__aeabi_fdiv+0xb0>
 80008ce:	2001      	movs	r0, #1
 80008d0:	2400      	movs	r4, #0
 80008d2:	e747      	b.n	8000764 <__aeabi_fdiv+0xb0>
 80008d4:	08004f0c 	.word	0x08004f0c
 80008d8:	08004f4c 	.word	0x08004f4c
 80008dc:	f7ffffff 	.word	0xf7ffffff

080008e0 <__eqsf2>:
 80008e0:	b570      	push	{r4, r5, r6, lr}
 80008e2:	0042      	lsls	r2, r0, #1
 80008e4:	024e      	lsls	r6, r1, #9
 80008e6:	004c      	lsls	r4, r1, #1
 80008e8:	0245      	lsls	r5, r0, #9
 80008ea:	0a6d      	lsrs	r5, r5, #9
 80008ec:	0e12      	lsrs	r2, r2, #24
 80008ee:	0fc3      	lsrs	r3, r0, #31
 80008f0:	0a76      	lsrs	r6, r6, #9
 80008f2:	0e24      	lsrs	r4, r4, #24
 80008f4:	0fc9      	lsrs	r1, r1, #31
 80008f6:	2aff      	cmp	r2, #255	@ 0xff
 80008f8:	d010      	beq.n	800091c <__eqsf2+0x3c>
 80008fa:	2cff      	cmp	r4, #255	@ 0xff
 80008fc:	d00c      	beq.n	8000918 <__eqsf2+0x38>
 80008fe:	2001      	movs	r0, #1
 8000900:	42a2      	cmp	r2, r4
 8000902:	d10a      	bne.n	800091a <__eqsf2+0x3a>
 8000904:	42b5      	cmp	r5, r6
 8000906:	d108      	bne.n	800091a <__eqsf2+0x3a>
 8000908:	428b      	cmp	r3, r1
 800090a:	d00f      	beq.n	800092c <__eqsf2+0x4c>
 800090c:	2a00      	cmp	r2, #0
 800090e:	d104      	bne.n	800091a <__eqsf2+0x3a>
 8000910:	0028      	movs	r0, r5
 8000912:	1e43      	subs	r3, r0, #1
 8000914:	4198      	sbcs	r0, r3
 8000916:	e000      	b.n	800091a <__eqsf2+0x3a>
 8000918:	2001      	movs	r0, #1
 800091a:	bd70      	pop	{r4, r5, r6, pc}
 800091c:	2001      	movs	r0, #1
 800091e:	2cff      	cmp	r4, #255	@ 0xff
 8000920:	d1fb      	bne.n	800091a <__eqsf2+0x3a>
 8000922:	4335      	orrs	r5, r6
 8000924:	d1f9      	bne.n	800091a <__eqsf2+0x3a>
 8000926:	404b      	eors	r3, r1
 8000928:	0018      	movs	r0, r3
 800092a:	e7f6      	b.n	800091a <__eqsf2+0x3a>
 800092c:	2000      	movs	r0, #0
 800092e:	e7f4      	b.n	800091a <__eqsf2+0x3a>

08000930 <__gesf2>:
 8000930:	b530      	push	{r4, r5, lr}
 8000932:	0042      	lsls	r2, r0, #1
 8000934:	0244      	lsls	r4, r0, #9
 8000936:	024d      	lsls	r5, r1, #9
 8000938:	0fc3      	lsrs	r3, r0, #31
 800093a:	0048      	lsls	r0, r1, #1
 800093c:	0a64      	lsrs	r4, r4, #9
 800093e:	0e12      	lsrs	r2, r2, #24
 8000940:	0a6d      	lsrs	r5, r5, #9
 8000942:	0e00      	lsrs	r0, r0, #24
 8000944:	0fc9      	lsrs	r1, r1, #31
 8000946:	2aff      	cmp	r2, #255	@ 0xff
 8000948:	d018      	beq.n	800097c <__gesf2+0x4c>
 800094a:	28ff      	cmp	r0, #255	@ 0xff
 800094c:	d00a      	beq.n	8000964 <__gesf2+0x34>
 800094e:	2a00      	cmp	r2, #0
 8000950:	d11e      	bne.n	8000990 <__gesf2+0x60>
 8000952:	2800      	cmp	r0, #0
 8000954:	d10a      	bne.n	800096c <__gesf2+0x3c>
 8000956:	2d00      	cmp	r5, #0
 8000958:	d029      	beq.n	80009ae <__gesf2+0x7e>
 800095a:	2c00      	cmp	r4, #0
 800095c:	d12d      	bne.n	80009ba <__gesf2+0x8a>
 800095e:	0048      	lsls	r0, r1, #1
 8000960:	3801      	subs	r0, #1
 8000962:	bd30      	pop	{r4, r5, pc}
 8000964:	2d00      	cmp	r5, #0
 8000966:	d125      	bne.n	80009b4 <__gesf2+0x84>
 8000968:	2a00      	cmp	r2, #0
 800096a:	d101      	bne.n	8000970 <__gesf2+0x40>
 800096c:	2c00      	cmp	r4, #0
 800096e:	d0f6      	beq.n	800095e <__gesf2+0x2e>
 8000970:	428b      	cmp	r3, r1
 8000972:	d019      	beq.n	80009a8 <__gesf2+0x78>
 8000974:	2001      	movs	r0, #1
 8000976:	425b      	negs	r3, r3
 8000978:	4318      	orrs	r0, r3
 800097a:	e7f2      	b.n	8000962 <__gesf2+0x32>
 800097c:	2c00      	cmp	r4, #0
 800097e:	d119      	bne.n	80009b4 <__gesf2+0x84>
 8000980:	28ff      	cmp	r0, #255	@ 0xff
 8000982:	d1f7      	bne.n	8000974 <__gesf2+0x44>
 8000984:	2d00      	cmp	r5, #0
 8000986:	d115      	bne.n	80009b4 <__gesf2+0x84>
 8000988:	2000      	movs	r0, #0
 800098a:	428b      	cmp	r3, r1
 800098c:	d1f2      	bne.n	8000974 <__gesf2+0x44>
 800098e:	e7e8      	b.n	8000962 <__gesf2+0x32>
 8000990:	2800      	cmp	r0, #0
 8000992:	d0ef      	beq.n	8000974 <__gesf2+0x44>
 8000994:	428b      	cmp	r3, r1
 8000996:	d1ed      	bne.n	8000974 <__gesf2+0x44>
 8000998:	4282      	cmp	r2, r0
 800099a:	dceb      	bgt.n	8000974 <__gesf2+0x44>
 800099c:	db04      	blt.n	80009a8 <__gesf2+0x78>
 800099e:	42ac      	cmp	r4, r5
 80009a0:	d8e8      	bhi.n	8000974 <__gesf2+0x44>
 80009a2:	2000      	movs	r0, #0
 80009a4:	42ac      	cmp	r4, r5
 80009a6:	d2dc      	bcs.n	8000962 <__gesf2+0x32>
 80009a8:	0058      	lsls	r0, r3, #1
 80009aa:	3801      	subs	r0, #1
 80009ac:	e7d9      	b.n	8000962 <__gesf2+0x32>
 80009ae:	2c00      	cmp	r4, #0
 80009b0:	d0d7      	beq.n	8000962 <__gesf2+0x32>
 80009b2:	e7df      	b.n	8000974 <__gesf2+0x44>
 80009b4:	2002      	movs	r0, #2
 80009b6:	4240      	negs	r0, r0
 80009b8:	e7d3      	b.n	8000962 <__gesf2+0x32>
 80009ba:	428b      	cmp	r3, r1
 80009bc:	d1da      	bne.n	8000974 <__gesf2+0x44>
 80009be:	e7ee      	b.n	800099e <__gesf2+0x6e>

080009c0 <__lesf2>:
 80009c0:	b530      	push	{r4, r5, lr}
 80009c2:	0042      	lsls	r2, r0, #1
 80009c4:	0244      	lsls	r4, r0, #9
 80009c6:	024d      	lsls	r5, r1, #9
 80009c8:	0fc3      	lsrs	r3, r0, #31
 80009ca:	0048      	lsls	r0, r1, #1
 80009cc:	0a64      	lsrs	r4, r4, #9
 80009ce:	0e12      	lsrs	r2, r2, #24
 80009d0:	0a6d      	lsrs	r5, r5, #9
 80009d2:	0e00      	lsrs	r0, r0, #24
 80009d4:	0fc9      	lsrs	r1, r1, #31
 80009d6:	2aff      	cmp	r2, #255	@ 0xff
 80009d8:	d017      	beq.n	8000a0a <__lesf2+0x4a>
 80009da:	28ff      	cmp	r0, #255	@ 0xff
 80009dc:	d00a      	beq.n	80009f4 <__lesf2+0x34>
 80009de:	2a00      	cmp	r2, #0
 80009e0:	d11b      	bne.n	8000a1a <__lesf2+0x5a>
 80009e2:	2800      	cmp	r0, #0
 80009e4:	d10a      	bne.n	80009fc <__lesf2+0x3c>
 80009e6:	2d00      	cmp	r5, #0
 80009e8:	d01d      	beq.n	8000a26 <__lesf2+0x66>
 80009ea:	2c00      	cmp	r4, #0
 80009ec:	d12d      	bne.n	8000a4a <__lesf2+0x8a>
 80009ee:	0048      	lsls	r0, r1, #1
 80009f0:	3801      	subs	r0, #1
 80009f2:	e011      	b.n	8000a18 <__lesf2+0x58>
 80009f4:	2d00      	cmp	r5, #0
 80009f6:	d10e      	bne.n	8000a16 <__lesf2+0x56>
 80009f8:	2a00      	cmp	r2, #0
 80009fa:	d101      	bne.n	8000a00 <__lesf2+0x40>
 80009fc:	2c00      	cmp	r4, #0
 80009fe:	d0f6      	beq.n	80009ee <__lesf2+0x2e>
 8000a00:	428b      	cmp	r3, r1
 8000a02:	d10c      	bne.n	8000a1e <__lesf2+0x5e>
 8000a04:	0058      	lsls	r0, r3, #1
 8000a06:	3801      	subs	r0, #1
 8000a08:	e006      	b.n	8000a18 <__lesf2+0x58>
 8000a0a:	2c00      	cmp	r4, #0
 8000a0c:	d103      	bne.n	8000a16 <__lesf2+0x56>
 8000a0e:	28ff      	cmp	r0, #255	@ 0xff
 8000a10:	d105      	bne.n	8000a1e <__lesf2+0x5e>
 8000a12:	2d00      	cmp	r5, #0
 8000a14:	d015      	beq.n	8000a42 <__lesf2+0x82>
 8000a16:	2002      	movs	r0, #2
 8000a18:	bd30      	pop	{r4, r5, pc}
 8000a1a:	2800      	cmp	r0, #0
 8000a1c:	d106      	bne.n	8000a2c <__lesf2+0x6c>
 8000a1e:	2001      	movs	r0, #1
 8000a20:	425b      	negs	r3, r3
 8000a22:	4318      	orrs	r0, r3
 8000a24:	e7f8      	b.n	8000a18 <__lesf2+0x58>
 8000a26:	2c00      	cmp	r4, #0
 8000a28:	d0f6      	beq.n	8000a18 <__lesf2+0x58>
 8000a2a:	e7f8      	b.n	8000a1e <__lesf2+0x5e>
 8000a2c:	428b      	cmp	r3, r1
 8000a2e:	d1f6      	bne.n	8000a1e <__lesf2+0x5e>
 8000a30:	4282      	cmp	r2, r0
 8000a32:	dcf4      	bgt.n	8000a1e <__lesf2+0x5e>
 8000a34:	dbe6      	blt.n	8000a04 <__lesf2+0x44>
 8000a36:	42ac      	cmp	r4, r5
 8000a38:	d8f1      	bhi.n	8000a1e <__lesf2+0x5e>
 8000a3a:	2000      	movs	r0, #0
 8000a3c:	42ac      	cmp	r4, r5
 8000a3e:	d2eb      	bcs.n	8000a18 <__lesf2+0x58>
 8000a40:	e7e0      	b.n	8000a04 <__lesf2+0x44>
 8000a42:	2000      	movs	r0, #0
 8000a44:	428b      	cmp	r3, r1
 8000a46:	d1ea      	bne.n	8000a1e <__lesf2+0x5e>
 8000a48:	e7e6      	b.n	8000a18 <__lesf2+0x58>
 8000a4a:	428b      	cmp	r3, r1
 8000a4c:	d1e7      	bne.n	8000a1e <__lesf2+0x5e>
 8000a4e:	e7f2      	b.n	8000a36 <__lesf2+0x76>

08000a50 <__aeabi_fmul>:
 8000a50:	b5f0      	push	{r4, r5, r6, r7, lr}
 8000a52:	464f      	mov	r7, r9
 8000a54:	4646      	mov	r6, r8
 8000a56:	46d6      	mov	lr, sl
 8000a58:	0044      	lsls	r4, r0, #1
 8000a5a:	b5c0      	push	{r6, r7, lr}
 8000a5c:	0246      	lsls	r6, r0, #9
 8000a5e:	1c0f      	adds	r7, r1, #0
 8000a60:	0a76      	lsrs	r6, r6, #9
 8000a62:	0e24      	lsrs	r4, r4, #24
 8000a64:	0fc5      	lsrs	r5, r0, #31
 8000a66:	2c00      	cmp	r4, #0
 8000a68:	d100      	bne.n	8000a6c <__aeabi_fmul+0x1c>
 8000a6a:	e0da      	b.n	8000c22 <__aeabi_fmul+0x1d2>
 8000a6c:	2cff      	cmp	r4, #255	@ 0xff
 8000a6e:	d074      	beq.n	8000b5a <__aeabi_fmul+0x10a>
 8000a70:	2380      	movs	r3, #128	@ 0x80
 8000a72:	00f6      	lsls	r6, r6, #3
 8000a74:	04db      	lsls	r3, r3, #19
 8000a76:	431e      	orrs	r6, r3
 8000a78:	2300      	movs	r3, #0
 8000a7a:	4699      	mov	r9, r3
 8000a7c:	469a      	mov	sl, r3
 8000a7e:	3c7f      	subs	r4, #127	@ 0x7f
 8000a80:	027b      	lsls	r3, r7, #9
 8000a82:	0a5b      	lsrs	r3, r3, #9
 8000a84:	4698      	mov	r8, r3
 8000a86:	007b      	lsls	r3, r7, #1
 8000a88:	0e1b      	lsrs	r3, r3, #24
 8000a8a:	0fff      	lsrs	r7, r7, #31
 8000a8c:	2b00      	cmp	r3, #0
 8000a8e:	d074      	beq.n	8000b7a <__aeabi_fmul+0x12a>
 8000a90:	2bff      	cmp	r3, #255	@ 0xff
 8000a92:	d100      	bne.n	8000a96 <__aeabi_fmul+0x46>
 8000a94:	e08e      	b.n	8000bb4 <__aeabi_fmul+0x164>
 8000a96:	4642      	mov	r2, r8
 8000a98:	2180      	movs	r1, #128	@ 0x80
 8000a9a:	00d2      	lsls	r2, r2, #3
 8000a9c:	04c9      	lsls	r1, r1, #19
 8000a9e:	4311      	orrs	r1, r2
 8000aa0:	3b7f      	subs	r3, #127	@ 0x7f
 8000aa2:	002a      	movs	r2, r5
 8000aa4:	18e4      	adds	r4, r4, r3
 8000aa6:	464b      	mov	r3, r9
 8000aa8:	407a      	eors	r2, r7
 8000aaa:	4688      	mov	r8, r1
 8000aac:	b2d2      	uxtb	r2, r2
 8000aae:	2b0a      	cmp	r3, #10
 8000ab0:	dc75      	bgt.n	8000b9e <__aeabi_fmul+0x14e>
 8000ab2:	464b      	mov	r3, r9
 8000ab4:	2000      	movs	r0, #0
 8000ab6:	2b02      	cmp	r3, #2
 8000ab8:	dd0f      	ble.n	8000ada <__aeabi_fmul+0x8a>
 8000aba:	4649      	mov	r1, r9
 8000abc:	2301      	movs	r3, #1
 8000abe:	408b      	lsls	r3, r1
 8000ac0:	21a6      	movs	r1, #166	@ 0xa6
 8000ac2:	00c9      	lsls	r1, r1, #3
 8000ac4:	420b      	tst	r3, r1
 8000ac6:	d169      	bne.n	8000b9c <__aeabi_fmul+0x14c>
 8000ac8:	2190      	movs	r1, #144	@ 0x90
 8000aca:	0089      	lsls	r1, r1, #2
 8000acc:	420b      	tst	r3, r1
 8000ace:	d000      	beq.n	8000ad2 <__aeabi_fmul+0x82>
 8000ad0:	e100      	b.n	8000cd4 <__aeabi_fmul+0x284>
 8000ad2:	2188      	movs	r1, #136	@ 0x88
 8000ad4:	4219      	tst	r1, r3
 8000ad6:	d000      	beq.n	8000ada <__aeabi_fmul+0x8a>
 8000ad8:	e0f5      	b.n	8000cc6 <__aeabi_fmul+0x276>
 8000ada:	4641      	mov	r1, r8
 8000adc:	0409      	lsls	r1, r1, #16
 8000ade:	0c09      	lsrs	r1, r1, #16
 8000ae0:	4643      	mov	r3, r8
 8000ae2:	0008      	movs	r0, r1
 8000ae4:	0c35      	lsrs	r5, r6, #16
 8000ae6:	0436      	lsls	r6, r6, #16
 8000ae8:	0c1b      	lsrs	r3, r3, #16
 8000aea:	0c36      	lsrs	r6, r6, #16
 8000aec:	4370      	muls	r0, r6
 8000aee:	4369      	muls	r1, r5
 8000af0:	435e      	muls	r6, r3
 8000af2:	435d      	muls	r5, r3
 8000af4:	1876      	adds	r6, r6, r1
 8000af6:	0c03      	lsrs	r3, r0, #16
 8000af8:	199b      	adds	r3, r3, r6
 8000afa:	4299      	cmp	r1, r3
 8000afc:	d903      	bls.n	8000b06 <__aeabi_fmul+0xb6>
 8000afe:	2180      	movs	r1, #128	@ 0x80
 8000b00:	0249      	lsls	r1, r1, #9
 8000b02:	468c      	mov	ip, r1
 8000b04:	4465      	add	r5, ip
 8000b06:	0400      	lsls	r0, r0, #16
 8000b08:	0419      	lsls	r1, r3, #16
 8000b0a:	0c00      	lsrs	r0, r0, #16
 8000b0c:	1809      	adds	r1, r1, r0
 8000b0e:	018e      	lsls	r6, r1, #6
 8000b10:	1e70      	subs	r0, r6, #1
 8000b12:	4186      	sbcs	r6, r0
 8000b14:	0c1b      	lsrs	r3, r3, #16
 8000b16:	0e89      	lsrs	r1, r1, #26
 8000b18:	195b      	adds	r3, r3, r5
 8000b1a:	430e      	orrs	r6, r1
 8000b1c:	019b      	lsls	r3, r3, #6
 8000b1e:	431e      	orrs	r6, r3
 8000b20:	011b      	lsls	r3, r3, #4
 8000b22:	d46c      	bmi.n	8000bfe <__aeabi_fmul+0x1ae>
 8000b24:	0023      	movs	r3, r4
 8000b26:	337f      	adds	r3, #127	@ 0x7f
 8000b28:	2b00      	cmp	r3, #0
 8000b2a:	dc00      	bgt.n	8000b2e <__aeabi_fmul+0xde>
 8000b2c:	e0b1      	b.n	8000c92 <__aeabi_fmul+0x242>
 8000b2e:	0015      	movs	r5, r2
 8000b30:	0771      	lsls	r1, r6, #29
 8000b32:	d00b      	beq.n	8000b4c <__aeabi_fmul+0xfc>
 8000b34:	200f      	movs	r0, #15
 8000b36:	0021      	movs	r1, r4
 8000b38:	4030      	ands	r0, r6
 8000b3a:	2804      	cmp	r0, #4
 8000b3c:	d006      	beq.n	8000b4c <__aeabi_fmul+0xfc>
 8000b3e:	3604      	adds	r6, #4
 8000b40:	0132      	lsls	r2, r6, #4
 8000b42:	d503      	bpl.n	8000b4c <__aeabi_fmul+0xfc>
 8000b44:	4b6e      	ldr	r3, [pc, #440]	@ (8000d00 <__aeabi_fmul+0x2b0>)
 8000b46:	401e      	ands	r6, r3
 8000b48:	000b      	movs	r3, r1
 8000b4a:	3380      	adds	r3, #128	@ 0x80
 8000b4c:	2bfe      	cmp	r3, #254	@ 0xfe
 8000b4e:	dd00      	ble.n	8000b52 <__aeabi_fmul+0x102>
 8000b50:	e0bd      	b.n	8000cce <__aeabi_fmul+0x27e>
 8000b52:	01b2      	lsls	r2, r6, #6
 8000b54:	0a52      	lsrs	r2, r2, #9
 8000b56:	b2db      	uxtb	r3, r3
 8000b58:	e048      	b.n	8000bec <__aeabi_fmul+0x19c>
 8000b5a:	2e00      	cmp	r6, #0
 8000b5c:	d000      	beq.n	8000b60 <__aeabi_fmul+0x110>
 8000b5e:	e092      	b.n	8000c86 <__aeabi_fmul+0x236>
 8000b60:	2308      	movs	r3, #8
 8000b62:	4699      	mov	r9, r3
 8000b64:	3b06      	subs	r3, #6
 8000b66:	469a      	mov	sl, r3
 8000b68:	027b      	lsls	r3, r7, #9
 8000b6a:	0a5b      	lsrs	r3, r3, #9
 8000b6c:	4698      	mov	r8, r3
 8000b6e:	007b      	lsls	r3, r7, #1
 8000b70:	24ff      	movs	r4, #255	@ 0xff
 8000b72:	0e1b      	lsrs	r3, r3, #24
 8000b74:	0fff      	lsrs	r7, r7, #31
 8000b76:	2b00      	cmp	r3, #0
 8000b78:	d18a      	bne.n	8000a90 <__aeabi_fmul+0x40>
 8000b7a:	4642      	mov	r2, r8
 8000b7c:	2a00      	cmp	r2, #0
 8000b7e:	d164      	bne.n	8000c4a <__aeabi_fmul+0x1fa>
 8000b80:	4649      	mov	r1, r9
 8000b82:	3201      	adds	r2, #1
 8000b84:	4311      	orrs	r1, r2
 8000b86:	4689      	mov	r9, r1
 8000b88:	290a      	cmp	r1, #10
 8000b8a:	dc08      	bgt.n	8000b9e <__aeabi_fmul+0x14e>
 8000b8c:	407d      	eors	r5, r7
 8000b8e:	2001      	movs	r0, #1
 8000b90:	b2ea      	uxtb	r2, r5
 8000b92:	2902      	cmp	r1, #2
 8000b94:	dc91      	bgt.n	8000aba <__aeabi_fmul+0x6a>
 8000b96:	0015      	movs	r5, r2
 8000b98:	2200      	movs	r2, #0
 8000b9a:	e027      	b.n	8000bec <__aeabi_fmul+0x19c>
 8000b9c:	0015      	movs	r5, r2
 8000b9e:	4653      	mov	r3, sl
 8000ba0:	2b02      	cmp	r3, #2
 8000ba2:	d100      	bne.n	8000ba6 <__aeabi_fmul+0x156>
 8000ba4:	e093      	b.n	8000cce <__aeabi_fmul+0x27e>
 8000ba6:	2b03      	cmp	r3, #3
 8000ba8:	d01a      	beq.n	8000be0 <__aeabi_fmul+0x190>
 8000baa:	2b01      	cmp	r3, #1
 8000bac:	d12c      	bne.n	8000c08 <__aeabi_fmul+0x1b8>
 8000bae:	2300      	movs	r3, #0
 8000bb0:	2200      	movs	r2, #0
 8000bb2:	e01b      	b.n	8000bec <__aeabi_fmul+0x19c>
 8000bb4:	4643      	mov	r3, r8
 8000bb6:	34ff      	adds	r4, #255	@ 0xff
 8000bb8:	2b00      	cmp	r3, #0
 8000bba:	d055      	beq.n	8000c68 <__aeabi_fmul+0x218>
 8000bbc:	2103      	movs	r1, #3
 8000bbe:	464b      	mov	r3, r9
 8000bc0:	430b      	orrs	r3, r1
 8000bc2:	0019      	movs	r1, r3
 8000bc4:	2b0a      	cmp	r3, #10
 8000bc6:	dc00      	bgt.n	8000bca <__aeabi_fmul+0x17a>
 8000bc8:	e092      	b.n	8000cf0 <__aeabi_fmul+0x2a0>
 8000bca:	2b0f      	cmp	r3, #15
 8000bcc:	d000      	beq.n	8000bd0 <__aeabi_fmul+0x180>
 8000bce:	e08c      	b.n	8000cea <__aeabi_fmul+0x29a>
 8000bd0:	2280      	movs	r2, #128	@ 0x80
 8000bd2:	03d2      	lsls	r2, r2, #15
 8000bd4:	4216      	tst	r6, r2
 8000bd6:	d003      	beq.n	8000be0 <__aeabi_fmul+0x190>
 8000bd8:	4643      	mov	r3, r8
 8000bda:	4213      	tst	r3, r2
 8000bdc:	d100      	bne.n	8000be0 <__aeabi_fmul+0x190>
 8000bde:	e07d      	b.n	8000cdc <__aeabi_fmul+0x28c>
 8000be0:	2280      	movs	r2, #128	@ 0x80
 8000be2:	03d2      	lsls	r2, r2, #15
 8000be4:	4332      	orrs	r2, r6
 8000be6:	0252      	lsls	r2, r2, #9
 8000be8:	0a52      	lsrs	r2, r2, #9
 8000bea:	23ff      	movs	r3, #255	@ 0xff
 8000bec:	05d8      	lsls	r0, r3, #23
 8000bee:	07ed      	lsls	r5, r5, #31
 8000bf0:	4310      	orrs	r0, r2
 8000bf2:	4328      	orrs	r0, r5
 8000bf4:	bce0      	pop	{r5, r6, r7}
 8000bf6:	46ba      	mov	sl, r7
 8000bf8:	46b1      	mov	r9, r6
 8000bfa:	46a8      	mov	r8, r5
 8000bfc:	bdf0      	pop	{r4, r5, r6, r7, pc}
 8000bfe:	2301      	movs	r3, #1
 8000c00:	0015      	movs	r5, r2
 8000c02:	0871      	lsrs	r1, r6, #1
 8000c04:	401e      	ands	r6, r3
 8000c06:	430e      	orrs	r6, r1
 8000c08:	0023      	movs	r3, r4
 8000c0a:	3380      	adds	r3, #128	@ 0x80
 8000c0c:	1c61      	adds	r1, r4, #1
 8000c0e:	2b00      	cmp	r3, #0
 8000c10:	dd41      	ble.n	8000c96 <__aeabi_fmul+0x246>
 8000c12:	0772      	lsls	r2, r6, #29
 8000c14:	d094      	beq.n	8000b40 <__aeabi_fmul+0xf0>
 8000c16:	220f      	movs	r2, #15
 8000c18:	4032      	ands	r2, r6
 8000c1a:	2a04      	cmp	r2, #4
 8000c1c:	d000      	beq.n	8000c20 <__aeabi_fmul+0x1d0>
 8000c1e:	e78e      	b.n	8000b3e <__aeabi_fmul+0xee>
 8000c20:	e78e      	b.n	8000b40 <__aeabi_fmul+0xf0>
 8000c22:	2e00      	cmp	r6, #0
 8000c24:	d105      	bne.n	8000c32 <__aeabi_fmul+0x1e2>
 8000c26:	2304      	movs	r3, #4
 8000c28:	4699      	mov	r9, r3
 8000c2a:	3b03      	subs	r3, #3
 8000c2c:	2400      	movs	r4, #0
 8000c2e:	469a      	mov	sl, r3
 8000c30:	e726      	b.n	8000a80 <__aeabi_fmul+0x30>
 8000c32:	0030      	movs	r0, r6
 8000c34:	f000 fb3a 	bl	80012ac <__clzsi2>
 8000c38:	2476      	movs	r4, #118	@ 0x76
 8000c3a:	1f43      	subs	r3, r0, #5
 8000c3c:	409e      	lsls	r6, r3
 8000c3e:	2300      	movs	r3, #0
 8000c40:	4264      	negs	r4, r4
 8000c42:	4699      	mov	r9, r3
 8000c44:	469a      	mov	sl, r3
 8000c46:	1a24      	subs	r4, r4, r0
 8000c48:	e71a      	b.n	8000a80 <__aeabi_fmul+0x30>
 8000c4a:	4640      	mov	r0, r8
 8000c4c:	f000 fb2e 	bl	80012ac <__clzsi2>
 8000c50:	464b      	mov	r3, r9
 8000c52:	1a24      	subs	r4, r4, r0
 8000c54:	3c76      	subs	r4, #118	@ 0x76
 8000c56:	2b0a      	cmp	r3, #10
 8000c58:	dca1      	bgt.n	8000b9e <__aeabi_fmul+0x14e>
 8000c5a:	4643      	mov	r3, r8
 8000c5c:	3805      	subs	r0, #5
 8000c5e:	4083      	lsls	r3, r0
 8000c60:	407d      	eors	r5, r7
 8000c62:	4698      	mov	r8, r3
 8000c64:	b2ea      	uxtb	r2, r5
 8000c66:	e724      	b.n	8000ab2 <__aeabi_fmul+0x62>
 8000c68:	464a      	mov	r2, r9
 8000c6a:	3302      	adds	r3, #2
 8000c6c:	4313      	orrs	r3, r2
 8000c6e:	002a      	movs	r2, r5
 8000c70:	407a      	eors	r2, r7
 8000c72:	b2d2      	uxtb	r2, r2
 8000c74:	2b0a      	cmp	r3, #10
 8000c76:	dc92      	bgt.n	8000b9e <__aeabi_fmul+0x14e>
 8000c78:	4649      	mov	r1, r9
 8000c7a:	0015      	movs	r5, r2
 8000c7c:	2900      	cmp	r1, #0
 8000c7e:	d026      	beq.n	8000cce <__aeabi_fmul+0x27e>
 8000c80:	4699      	mov	r9, r3
 8000c82:	2002      	movs	r0, #2
 8000c84:	e719      	b.n	8000aba <__aeabi_fmul+0x6a>
 8000c86:	230c      	movs	r3, #12
 8000c88:	4699      	mov	r9, r3
 8000c8a:	3b09      	subs	r3, #9
 8000c8c:	24ff      	movs	r4, #255	@ 0xff
 8000c8e:	469a      	mov	sl, r3
 8000c90:	e6f6      	b.n	8000a80 <__aeabi_fmul+0x30>
 8000c92:	0015      	movs	r5, r2
 8000c94:	0021      	movs	r1, r4
 8000c96:	2201      	movs	r2, #1
 8000c98:	1ad3      	subs	r3, r2, r3
 8000c9a:	2b1b      	cmp	r3, #27
 8000c9c:	dd00      	ble.n	8000ca0 <__aeabi_fmul+0x250>
 8000c9e:	e786      	b.n	8000bae <__aeabi_fmul+0x15e>
 8000ca0:	319e      	adds	r1, #158	@ 0x9e
 8000ca2:	0032      	movs	r2, r6
 8000ca4:	408e      	lsls	r6, r1
 8000ca6:	40da      	lsrs	r2, r3
 8000ca8:	1e73      	subs	r3, r6, #1
 8000caa:	419e      	sbcs	r6, r3
 8000cac:	4332      	orrs	r2, r6
 8000cae:	0753      	lsls	r3, r2, #29
 8000cb0:	d004      	beq.n	8000cbc <__aeabi_fmul+0x26c>
 8000cb2:	230f      	movs	r3, #15
 8000cb4:	4013      	ands	r3, r2
 8000cb6:	2b04      	cmp	r3, #4
 8000cb8:	d000      	beq.n	8000cbc <__aeabi_fmul+0x26c>
 8000cba:	3204      	adds	r2, #4
 8000cbc:	0153      	lsls	r3, r2, #5
 8000cbe:	d510      	bpl.n	8000ce2 <__aeabi_fmul+0x292>
 8000cc0:	2301      	movs	r3, #1
 8000cc2:	2200      	movs	r2, #0
 8000cc4:	e792      	b.n	8000bec <__aeabi_fmul+0x19c>
 8000cc6:	003d      	movs	r5, r7
 8000cc8:	4646      	mov	r6, r8
 8000cca:	4682      	mov	sl, r0
 8000ccc:	e767      	b.n	8000b9e <__aeabi_fmul+0x14e>
 8000cce:	23ff      	movs	r3, #255	@ 0xff
 8000cd0:	2200      	movs	r2, #0
 8000cd2:	e78b      	b.n	8000bec <__aeabi_fmul+0x19c>
 8000cd4:	2280      	movs	r2, #128	@ 0x80
 8000cd6:	2500      	movs	r5, #0
 8000cd8:	03d2      	lsls	r2, r2, #15
 8000cda:	e786      	b.n	8000bea <__aeabi_fmul+0x19a>
 8000cdc:	003d      	movs	r5, r7
 8000cde:	431a      	orrs	r2, r3
 8000ce0:	e783      	b.n	8000bea <__aeabi_fmul+0x19a>
 8000ce2:	0192      	lsls	r2, r2, #6
 8000ce4:	2300      	movs	r3, #0
 8000ce6:	0a52      	lsrs	r2, r2, #9
 8000ce8:	e780      	b.n	8000bec <__aeabi_fmul+0x19c>
 8000cea:	003d      	movs	r5, r7
 8000cec:	4646      	mov	r6, r8
 8000cee:	e777      	b.n	8000be0 <__aeabi_fmul+0x190>
 8000cf0:	002a      	movs	r2, r5
 8000cf2:	2301      	movs	r3, #1
 8000cf4:	407a      	eors	r2, r7
 8000cf6:	408b      	lsls	r3, r1
 8000cf8:	2003      	movs	r0, #3
 8000cfa:	b2d2      	uxtb	r2, r2
 8000cfc:	e6e9      	b.n	8000ad2 <__aeabi_fmul+0x82>
 8000cfe:	46c0      	nop			@ (mov r8, r8)
 8000d00:	f7ffffff 	.word	0xf7ffffff

08000d04 <__aeabi_fsub>:
 8000d04:	b5f8      	push	{r3, r4, r5, r6, r7, lr}
 8000d06:	4647      	mov	r7, r8
 8000d08:	46ce      	mov	lr, r9
 8000d0a:	0243      	lsls	r3, r0, #9
 8000d0c:	b580      	push	{r7, lr}
 8000d0e:	0a5f      	lsrs	r7, r3, #9
 8000d10:	099b      	lsrs	r3, r3, #6
 8000d12:	0045      	lsls	r5, r0, #1
 8000d14:	004a      	lsls	r2, r1, #1
 8000d16:	469c      	mov	ip, r3
 8000d18:	024b      	lsls	r3, r1, #9
 8000d1a:	0fc4      	lsrs	r4, r0, #31
 8000d1c:	0fce      	lsrs	r6, r1, #31
 8000d1e:	0e2d      	lsrs	r5, r5, #24
 8000d20:	0a58      	lsrs	r0, r3, #9
 8000d22:	0e12      	lsrs	r2, r2, #24
 8000d24:	0999      	lsrs	r1, r3, #6
 8000d26:	2aff      	cmp	r2, #255	@ 0xff
 8000d28:	d06b      	beq.n	8000e02 <__aeabi_fsub+0xfe>
 8000d2a:	2301      	movs	r3, #1
 8000d2c:	405e      	eors	r6, r3
 8000d2e:	1aab      	subs	r3, r5, r2
 8000d30:	42b4      	cmp	r4, r6
 8000d32:	d04b      	beq.n	8000dcc <__aeabi_fsub+0xc8>
 8000d34:	2b00      	cmp	r3, #0
 8000d36:	dc00      	bgt.n	8000d3a <__aeabi_fsub+0x36>
 8000d38:	e0ff      	b.n	8000f3a <__aeabi_fsub+0x236>
 8000d3a:	2a00      	cmp	r2, #0
 8000d3c:	d100      	bne.n	8000d40 <__aeabi_fsub+0x3c>
 8000d3e:	e088      	b.n	8000e52 <__aeabi_fsub+0x14e>
 8000d40:	2dff      	cmp	r5, #255	@ 0xff
 8000d42:	d100      	bne.n	8000d46 <__aeabi_fsub+0x42>
 8000d44:	e0ef      	b.n	8000f26 <__aeabi_fsub+0x222>
 8000d46:	2280      	movs	r2, #128	@ 0x80
 8000d48:	04d2      	lsls	r2, r2, #19
 8000d4a:	4311      	orrs	r1, r2
 8000d4c:	2001      	movs	r0, #1
 8000d4e:	2b1b      	cmp	r3, #27
 8000d50:	dc08      	bgt.n	8000d64 <__aeabi_fsub+0x60>
 8000d52:	0008      	movs	r0, r1
 8000d54:	2220      	movs	r2, #32
 8000d56:	40d8      	lsrs	r0, r3
 8000d58:	1ad3      	subs	r3, r2, r3
 8000d5a:	4099      	lsls	r1, r3
 8000d5c:	000b      	movs	r3, r1
 8000d5e:	1e5a      	subs	r2, r3, #1
 8000d60:	4193      	sbcs	r3, r2
 8000d62:	4318      	orrs	r0, r3
 8000d64:	4663      	mov	r3, ip
 8000d66:	1a1b      	subs	r3, r3, r0
 8000d68:	469c      	mov	ip, r3
 8000d6a:	4663      	mov	r3, ip
 8000d6c:	015b      	lsls	r3, r3, #5
 8000d6e:	d400      	bmi.n	8000d72 <__aeabi_fsub+0x6e>
 8000d70:	e0cd      	b.n	8000f0e <__aeabi_fsub+0x20a>
 8000d72:	4663      	mov	r3, ip
 8000d74:	019f      	lsls	r7, r3, #6
 8000d76:	09bf      	lsrs	r7, r7, #6
 8000d78:	0038      	movs	r0, r7
 8000d7a:	f000 fa97 	bl	80012ac <__clzsi2>
 8000d7e:	003b      	movs	r3, r7
 8000d80:	3805      	subs	r0, #5
 8000d82:	4083      	lsls	r3, r0
 8000d84:	4285      	cmp	r5, r0
 8000d86:	dc00      	bgt.n	8000d8a <__aeabi_fsub+0x86>
 8000d88:	e0a2      	b.n	8000ed0 <__aeabi_fsub+0x1cc>
 8000d8a:	4ab7      	ldr	r2, [pc, #732]	@ (8001068 <__aeabi_fsub+0x364>)
 8000d8c:	1a2d      	subs	r5, r5, r0
 8000d8e:	401a      	ands	r2, r3
 8000d90:	4694      	mov	ip, r2
 8000d92:	075a      	lsls	r2, r3, #29
 8000d94:	d100      	bne.n	8000d98 <__aeabi_fsub+0x94>
 8000d96:	e0c3      	b.n	8000f20 <__aeabi_fsub+0x21c>
 8000d98:	220f      	movs	r2, #15
 8000d9a:	4013      	ands	r3, r2
 8000d9c:	2b04      	cmp	r3, #4
 8000d9e:	d100      	bne.n	8000da2 <__aeabi_fsub+0x9e>
 8000da0:	e0be      	b.n	8000f20 <__aeabi_fsub+0x21c>
 8000da2:	2304      	movs	r3, #4
 8000da4:	4698      	mov	r8, r3
 8000da6:	44c4      	add	ip, r8
 8000da8:	4663      	mov	r3, ip
 8000daa:	015b      	lsls	r3, r3, #5
 8000dac:	d400      	bmi.n	8000db0 <__aeabi_fsub+0xac>
 8000dae:	e0b7      	b.n	8000f20 <__aeabi_fsub+0x21c>
 8000db0:	1c68      	adds	r0, r5, #1
 8000db2:	2dfe      	cmp	r5, #254	@ 0xfe
 8000db4:	d000      	beq.n	8000db8 <__aeabi_fsub+0xb4>
 8000db6:	e0a5      	b.n	8000f04 <__aeabi_fsub+0x200>
 8000db8:	20ff      	movs	r0, #255	@ 0xff
 8000dba:	2200      	movs	r2, #0
 8000dbc:	05c0      	lsls	r0, r0, #23
 8000dbe:	4310      	orrs	r0, r2
 8000dc0:	07e4      	lsls	r4, r4, #31
 8000dc2:	4320      	orrs	r0, r4
 8000dc4:	bcc0      	pop	{r6, r7}
 8000dc6:	46b9      	mov	r9, r7
 8000dc8:	46b0      	mov	r8, r6
 8000dca:	bdf8      	pop	{r3, r4, r5, r6, r7, pc}
 8000dcc:	2b00      	cmp	r3, #0
 8000dce:	dc00      	bgt.n	8000dd2 <__aeabi_fsub+0xce>
 8000dd0:	e1eb      	b.n	80011aa <__aeabi_fsub+0x4a6>
 8000dd2:	2a00      	cmp	r2, #0
 8000dd4:	d046      	beq.n	8000e64 <__aeabi_fsub+0x160>
 8000dd6:	2dff      	cmp	r5, #255	@ 0xff
 8000dd8:	d100      	bne.n	8000ddc <__aeabi_fsub+0xd8>
 8000dda:	e0a4      	b.n	8000f26 <__aeabi_fsub+0x222>
 8000ddc:	2280      	movs	r2, #128	@ 0x80
 8000dde:	04d2      	lsls	r2, r2, #19
 8000de0:	4311      	orrs	r1, r2
 8000de2:	2b1b      	cmp	r3, #27
 8000de4:	dc00      	bgt.n	8000de8 <__aeabi_fsub+0xe4>
 8000de6:	e0fb      	b.n	8000fe0 <__aeabi_fsub+0x2dc>
 8000de8:	2305      	movs	r3, #5
 8000dea:	4698      	mov	r8, r3
 8000dec:	002b      	movs	r3, r5
 8000dee:	44c4      	add	ip, r8
 8000df0:	4662      	mov	r2, ip
 8000df2:	08d7      	lsrs	r7, r2, #3
 8000df4:	2bff      	cmp	r3, #255	@ 0xff
 8000df6:	d100      	bne.n	8000dfa <__aeabi_fsub+0xf6>
 8000df8:	e095      	b.n	8000f26 <__aeabi_fsub+0x222>
 8000dfa:	027a      	lsls	r2, r7, #9
 8000dfc:	0a52      	lsrs	r2, r2, #9
 8000dfe:	b2d8      	uxtb	r0, r3
 8000e00:	e7dc      	b.n	8000dbc <__aeabi_fsub+0xb8>
 8000e02:	002b      	movs	r3, r5
 8000e04:	3bff      	subs	r3, #255	@ 0xff
 8000e06:	4699      	mov	r9, r3
 8000e08:	2900      	cmp	r1, #0
 8000e0a:	d118      	bne.n	8000e3e <__aeabi_fsub+0x13a>
 8000e0c:	2301      	movs	r3, #1
 8000e0e:	405e      	eors	r6, r3
 8000e10:	42b4      	cmp	r4, r6
 8000e12:	d100      	bne.n	8000e16 <__aeabi_fsub+0x112>
 8000e14:	e0ca      	b.n	8000fac <__aeabi_fsub+0x2a8>
 8000e16:	464b      	mov	r3, r9
 8000e18:	2b00      	cmp	r3, #0
 8000e1a:	d02d      	beq.n	8000e78 <__aeabi_fsub+0x174>
 8000e1c:	2d00      	cmp	r5, #0
 8000e1e:	d000      	beq.n	8000e22 <__aeabi_fsub+0x11e>
 8000e20:	e13c      	b.n	800109c <__aeabi_fsub+0x398>
 8000e22:	23ff      	movs	r3, #255	@ 0xff
 8000e24:	4664      	mov	r4, ip
 8000e26:	2c00      	cmp	r4, #0
 8000e28:	d100      	bne.n	8000e2c <__aeabi_fsub+0x128>
 8000e2a:	e15f      	b.n	80010ec <__aeabi_fsub+0x3e8>
 8000e2c:	1e5d      	subs	r5, r3, #1
 8000e2e:	2b01      	cmp	r3, #1
 8000e30:	d100      	bne.n	8000e34 <__aeabi_fsub+0x130>
 8000e32:	e174      	b.n	800111e <__aeabi_fsub+0x41a>
 8000e34:	0034      	movs	r4, r6
 8000e36:	2bff      	cmp	r3, #255	@ 0xff
 8000e38:	d074      	beq.n	8000f24 <__aeabi_fsub+0x220>
 8000e3a:	002b      	movs	r3, r5
 8000e3c:	e103      	b.n	8001046 <__aeabi_fsub+0x342>
 8000e3e:	42b4      	cmp	r4, r6
 8000e40:	d100      	bne.n	8000e44 <__aeabi_fsub+0x140>
 8000e42:	e09c      	b.n	8000f7e <__aeabi_fsub+0x27a>
 8000e44:	2b00      	cmp	r3, #0
 8000e46:	d017      	beq.n	8000e78 <__aeabi_fsub+0x174>
 8000e48:	2d00      	cmp	r5, #0
 8000e4a:	d0ea      	beq.n	8000e22 <__aeabi_fsub+0x11e>
 8000e4c:	0007      	movs	r7, r0
 8000e4e:	0034      	movs	r4, r6
 8000e50:	e06c      	b.n	8000f2c <__aeabi_fsub+0x228>
 8000e52:	2900      	cmp	r1, #0
 8000e54:	d0cc      	beq.n	8000df0 <__aeabi_fsub+0xec>
 8000e56:	1e5a      	subs	r2, r3, #1
 8000e58:	2b01      	cmp	r3, #1
 8000e5a:	d02b      	beq.n	8000eb4 <__aeabi_fsub+0x1b0>
 8000e5c:	2bff      	cmp	r3, #255	@ 0xff
 8000e5e:	d062      	beq.n	8000f26 <__aeabi_fsub+0x222>
 8000e60:	0013      	movs	r3, r2
 8000e62:	e773      	b.n	8000d4c <__aeabi_fsub+0x48>
 8000e64:	2900      	cmp	r1, #0
 8000e66:	d0c3      	beq.n	8000df0 <__aeabi_fsub+0xec>
 8000e68:	1e5a      	subs	r2, r3, #1
 8000e6a:	2b01      	cmp	r3, #1
 8000e6c:	d100      	bne.n	8000e70 <__aeabi_fsub+0x16c>
 8000e6e:	e11e      	b.n	80010ae <__aeabi_fsub+0x3aa>
 8000e70:	2bff      	cmp	r3, #255	@ 0xff
 8000e72:	d058      	beq.n	8000f26 <__aeabi_fsub+0x222>
 8000e74:	0013      	movs	r3, r2
 8000e76:	e7b4      	b.n	8000de2 <__aeabi_fsub+0xde>
 8000e78:	22fe      	movs	r2, #254	@ 0xfe
 8000e7a:	1c6b      	adds	r3, r5, #1
 8000e7c:	421a      	tst	r2, r3
 8000e7e:	d10d      	bne.n	8000e9c <__aeabi_fsub+0x198>
 8000e80:	2d00      	cmp	r5, #0
 8000e82:	d060      	beq.n	8000f46 <__aeabi_fsub+0x242>
 8000e84:	4663      	mov	r3, ip
 8000e86:	2b00      	cmp	r3, #0
 8000e88:	d000      	beq.n	8000e8c <__aeabi_fsub+0x188>
 8000e8a:	e120      	b.n	80010ce <__aeabi_fsub+0x3ca>
 8000e8c:	2900      	cmp	r1, #0
 8000e8e:	d000      	beq.n	8000e92 <__aeabi_fsub+0x18e>
 8000e90:	e128      	b.n	80010e4 <__aeabi_fsub+0x3e0>
 8000e92:	2280      	movs	r2, #128	@ 0x80
 8000e94:	2400      	movs	r4, #0
 8000e96:	20ff      	movs	r0, #255	@ 0xff
 8000e98:	03d2      	lsls	r2, r2, #15
 8000e9a:	e78f      	b.n	8000dbc <__aeabi_fsub+0xb8>
 8000e9c:	4663      	mov	r3, ip
 8000e9e:	1a5f      	subs	r7, r3, r1
 8000ea0:	017b      	lsls	r3, r7, #5
 8000ea2:	d500      	bpl.n	8000ea6 <__aeabi_fsub+0x1a2>
 8000ea4:	e0fe      	b.n	80010a4 <__aeabi_fsub+0x3a0>
 8000ea6:	2f00      	cmp	r7, #0
 8000ea8:	d000      	beq.n	8000eac <__aeabi_fsub+0x1a8>
 8000eaa:	e765      	b.n	8000d78 <__aeabi_fsub+0x74>
 8000eac:	2400      	movs	r4, #0
 8000eae:	2000      	movs	r0, #0
 8000eb0:	2200      	movs	r2, #0
 8000eb2:	e783      	b.n	8000dbc <__aeabi_fsub+0xb8>
 8000eb4:	4663      	mov	r3, ip
 8000eb6:	1a59      	subs	r1, r3, r1
 8000eb8:	014b      	lsls	r3, r1, #5
 8000eba:	d400      	bmi.n	8000ebe <__aeabi_fsub+0x1ba>
 8000ebc:	e119      	b.n	80010f2 <__aeabi_fsub+0x3ee>
 8000ebe:	018f      	lsls	r7, r1, #6
 8000ec0:	09bf      	lsrs	r7, r7, #6
 8000ec2:	0038      	movs	r0, r7
 8000ec4:	f000 f9f2 	bl	80012ac <__clzsi2>
 8000ec8:	003b      	movs	r3, r7
 8000eca:	3805      	subs	r0, #5
 8000ecc:	4083      	lsls	r3, r0
 8000ece:	2501      	movs	r5, #1
 8000ed0:	2220      	movs	r2, #32
 8000ed2:	1b40      	subs	r0, r0, r5
 8000ed4:	3001      	adds	r0, #1
 8000ed6:	1a12      	subs	r2, r2, r0
 8000ed8:	0019      	movs	r1, r3
 8000eda:	4093      	lsls	r3, r2
 8000edc:	40c1      	lsrs	r1, r0
 8000ede:	1e5a      	subs	r2, r3, #1
 8000ee0:	4193      	sbcs	r3, r2
 8000ee2:	4319      	orrs	r1, r3
 8000ee4:	468c      	mov	ip, r1
 8000ee6:	1e0b      	subs	r3, r1, #0
 8000ee8:	d0e1      	beq.n	8000eae <__aeabi_fsub+0x1aa>
 8000eea:	075b      	lsls	r3, r3, #29
 8000eec:	d100      	bne.n	8000ef0 <__aeabi_fsub+0x1ec>
 8000eee:	e152      	b.n	8001196 <__aeabi_fsub+0x492>
 8000ef0:	230f      	movs	r3, #15
 8000ef2:	2500      	movs	r5, #0
 8000ef4:	400b      	ands	r3, r1
 8000ef6:	2b04      	cmp	r3, #4
 8000ef8:	d000      	beq.n	8000efc <__aeabi_fsub+0x1f8>
 8000efa:	e752      	b.n	8000da2 <__aeabi_fsub+0x9e>
 8000efc:	2001      	movs	r0, #1
 8000efe:	014a      	lsls	r2, r1, #5
 8000f00:	d400      	bmi.n	8000f04 <__aeabi_fsub+0x200>
 8000f02:	e092      	b.n	800102a <__aeabi_fsub+0x326>
 8000f04:	b2c0      	uxtb	r0, r0
 8000f06:	4663      	mov	r3, ip
 8000f08:	019a      	lsls	r2, r3, #6
 8000f0a:	0a52      	lsrs	r2, r2, #9
 8000f0c:	e756      	b.n	8000dbc <__aeabi_fsub+0xb8>
 8000f0e:	4663      	mov	r3, ip
 8000f10:	075b      	lsls	r3, r3, #29
 8000f12:	d005      	beq.n	8000f20 <__aeabi_fsub+0x21c>
 8000f14:	230f      	movs	r3, #15
 8000f16:	4662      	mov	r2, ip
 8000f18:	4013      	ands	r3, r2
 8000f1a:	2b04      	cmp	r3, #4
 8000f1c:	d000      	beq.n	8000f20 <__aeabi_fsub+0x21c>
 8000f1e:	e740      	b.n	8000da2 <__aeabi_fsub+0x9e>
 8000f20:	002b      	movs	r3, r5
 8000f22:	e765      	b.n	8000df0 <__aeabi_fsub+0xec>
 8000f24:	0007      	movs	r7, r0
 8000f26:	2f00      	cmp	r7, #0
 8000f28:	d100      	bne.n	8000f2c <__aeabi_fsub+0x228>
 8000f2a:	e745      	b.n	8000db8 <__aeabi_fsub+0xb4>
 8000f2c:	2280      	movs	r2, #128	@ 0x80
 8000f2e:	03d2      	lsls	r2, r2, #15
 8000f30:	433a      	orrs	r2, r7
 8000f32:	0252      	lsls	r2, r2, #9
 8000f34:	20ff      	movs	r0, #255	@ 0xff
 8000f36:	0a52      	lsrs	r2, r2, #9
 8000f38:	e740      	b.n	8000dbc <__aeabi_fsub+0xb8>
 8000f3a:	2b00      	cmp	r3, #0
 8000f3c:	d179      	bne.n	8001032 <__aeabi_fsub+0x32e>
 8000f3e:	22fe      	movs	r2, #254	@ 0xfe
 8000f40:	1c6b      	adds	r3, r5, #1
 8000f42:	421a      	tst	r2, r3
 8000f44:	d1aa      	bne.n	8000e9c <__aeabi_fsub+0x198>
 8000f46:	4663      	mov	r3, ip
 8000f48:	2b00      	cmp	r3, #0
 8000f4a:	d100      	bne.n	8000f4e <__aeabi_fsub+0x24a>
 8000f4c:	e0f5      	b.n	800113a <__aeabi_fsub+0x436>
 8000f4e:	2900      	cmp	r1, #0
 8000f50:	d100      	bne.n	8000f54 <__aeabi_fsub+0x250>
 8000f52:	e0d1      	b.n	80010f8 <__aeabi_fsub+0x3f4>
 8000f54:	1a5f      	subs	r7, r3, r1
 8000f56:	2380      	movs	r3, #128	@ 0x80
 8000f58:	04db      	lsls	r3, r3, #19
 8000f5a:	421f      	tst	r7, r3
 8000f5c:	d100      	bne.n	8000f60 <__aeabi_fsub+0x25c>
 8000f5e:	e10e      	b.n	800117e <__aeabi_fsub+0x47a>
 8000f60:	4662      	mov	r2, ip
 8000f62:	2401      	movs	r4, #1
 8000f64:	1a8a      	subs	r2, r1, r2
 8000f66:	4694      	mov	ip, r2
 8000f68:	2000      	movs	r0, #0
 8000f6a:	4034      	ands	r4, r6
 8000f6c:	2a00      	cmp	r2, #0
 8000f6e:	d100      	bne.n	8000f72 <__aeabi_fsub+0x26e>
 8000f70:	e724      	b.n	8000dbc <__aeabi_fsub+0xb8>
 8000f72:	2001      	movs	r0, #1
 8000f74:	421a      	tst	r2, r3
 8000f76:	d1c6      	bne.n	8000f06 <__aeabi_fsub+0x202>
 8000f78:	2300      	movs	r3, #0
 8000f7a:	08d7      	lsrs	r7, r2, #3
 8000f7c:	e73d      	b.n	8000dfa <__aeabi_fsub+0xf6>
 8000f7e:	2b00      	cmp	r3, #0
 8000f80:	d017      	beq.n	8000fb2 <__aeabi_fsub+0x2ae>
 8000f82:	2d00      	cmp	r5, #0
 8000f84:	d000      	beq.n	8000f88 <__aeabi_fsub+0x284>
 8000f86:	e0af      	b.n	80010e8 <__aeabi_fsub+0x3e4>
 8000f88:	23ff      	movs	r3, #255	@ 0xff
 8000f8a:	4665      	mov	r5, ip
 8000f8c:	2d00      	cmp	r5, #0
 8000f8e:	d100      	bne.n	8000f92 <__aeabi_fsub+0x28e>
 8000f90:	e0ad      	b.n	80010ee <__aeabi_fsub+0x3ea>
 8000f92:	1e5e      	subs	r6, r3, #1
 8000f94:	2b01      	cmp	r3, #1
 8000f96:	d100      	bne.n	8000f9a <__aeabi_fsub+0x296>
 8000f98:	e089      	b.n	80010ae <__aeabi_fsub+0x3aa>
 8000f9a:	2bff      	cmp	r3, #255	@ 0xff
 8000f9c:	d0c2      	beq.n	8000f24 <__aeabi_fsub+0x220>
 8000f9e:	2e1b      	cmp	r6, #27
 8000fa0:	dc00      	bgt.n	8000fa4 <__aeabi_fsub+0x2a0>
 8000fa2:	e0ab      	b.n	80010fc <__aeabi_fsub+0x3f8>
 8000fa4:	1d4b      	adds	r3, r1, #5
 8000fa6:	469c      	mov	ip, r3
 8000fa8:	0013      	movs	r3, r2
 8000faa:	e721      	b.n	8000df0 <__aeabi_fsub+0xec>
 8000fac:	464b      	mov	r3, r9
 8000fae:	2b00      	cmp	r3, #0
 8000fb0:	d170      	bne.n	8001094 <__aeabi_fsub+0x390>
 8000fb2:	22fe      	movs	r2, #254	@ 0xfe
 8000fb4:	1c6b      	adds	r3, r5, #1
 8000fb6:	421a      	tst	r2, r3
 8000fb8:	d15e      	bne.n	8001078 <__aeabi_fsub+0x374>
 8000fba:	2d00      	cmp	r5, #0
 8000fbc:	d000      	beq.n	8000fc0 <__aeabi_fsub+0x2bc>
 8000fbe:	e0c3      	b.n	8001148 <__aeabi_fsub+0x444>
 8000fc0:	4663      	mov	r3, ip
 8000fc2:	2b00      	cmp	r3, #0
 8000fc4:	d100      	bne.n	8000fc8 <__aeabi_fsub+0x2c4>
 8000fc6:	e0d0      	b.n	800116a <__aeabi_fsub+0x466>
 8000fc8:	2900      	cmp	r1, #0
 8000fca:	d100      	bne.n	8000fce <__aeabi_fsub+0x2ca>
 8000fcc:	e094      	b.n	80010f8 <__aeabi_fsub+0x3f4>
 8000fce:	000a      	movs	r2, r1
 8000fd0:	4462      	add	r2, ip
 8000fd2:	0153      	lsls	r3, r2, #5
 8000fd4:	d400      	bmi.n	8000fd8 <__aeabi_fsub+0x2d4>
 8000fd6:	e0d8      	b.n	800118a <__aeabi_fsub+0x486>
 8000fd8:	0192      	lsls	r2, r2, #6
 8000fda:	2001      	movs	r0, #1
 8000fdc:	0a52      	lsrs	r2, r2, #9
 8000fde:	e6ed      	b.n	8000dbc <__aeabi_fsub+0xb8>
 8000fe0:	0008      	movs	r0, r1
 8000fe2:	2220      	movs	r2, #32
 8000fe4:	40d8      	lsrs	r0, r3
 8000fe6:	1ad3      	subs	r3, r2, r3
 8000fe8:	4099      	lsls	r1, r3
 8000fea:	000b      	movs	r3, r1
 8000fec:	1e5a      	subs	r2, r3, #1
 8000fee:	4193      	sbcs	r3, r2
 8000ff0:	4303      	orrs	r3, r0
 8000ff2:	449c      	add	ip, r3
 8000ff4:	4663      	mov	r3, ip
 8000ff6:	015b      	lsls	r3, r3, #5
 8000ff8:	d589      	bpl.n	8000f0e <__aeabi_fsub+0x20a>
 8000ffa:	3501      	adds	r5, #1
 8000ffc:	2dff      	cmp	r5, #255	@ 0xff
 8000ffe:	d100      	bne.n	8001002 <__aeabi_fsub+0x2fe>
 8001000:	e6da      	b.n	8000db8 <__aeabi_fsub+0xb4>
 8001002:	4662      	mov	r2, ip
 8001004:	2301      	movs	r3, #1
 8001006:	4919      	ldr	r1, [pc, #100]	@ (800106c <__aeabi_fsub+0x368>)
 8001008:	4013      	ands	r3, r2
 800100a:	0852      	lsrs	r2, r2, #1
 800100c:	400a      	ands	r2, r1
 800100e:	431a      	orrs	r2, r3
 8001010:	0013      	movs	r3, r2
 8001012:	4694      	mov	ip, r2
 8001014:	075b      	lsls	r3, r3, #29
 8001016:	d004      	beq.n	8001022 <__aeabi_fsub+0x31e>
 8001018:	230f      	movs	r3, #15
 800101a:	4013      	ands	r3, r2
 800101c:	2b04      	cmp	r3, #4
 800101e:	d000      	beq.n	8001022 <__aeabi_fsub+0x31e>
 8001020:	e6bf      	b.n	8000da2 <__aeabi_fsub+0x9e>
 8001022:	4663      	mov	r3, ip
 8001024:	015b      	lsls	r3, r3, #5
 8001026:	d500      	bpl.n	800102a <__aeabi_fsub+0x326>
 8001028:	e6c2      	b.n	8000db0 <__aeabi_fsub+0xac>
 800102a:	4663      	mov	r3, ip
 800102c:	08df      	lsrs	r7, r3, #3
 800102e:	002b      	movs	r3, r5
 8001030:	e6e3      	b.n	8000dfa <__aeabi_fsub+0xf6>
 8001032:	1b53      	subs	r3, r2, r5
 8001034:	2d00      	cmp	r5, #0
 8001036:	d100      	bne.n	800103a <__aeabi_fsub+0x336>
 8001038:	e6f4      	b.n	8000e24 <__aeabi_fsub+0x120>
 800103a:	2080      	movs	r0, #128	@ 0x80
 800103c:	4664      	mov	r4, ip
 800103e:	04c0      	lsls	r0, r0, #19
 8001040:	4304      	orrs	r4, r0
 8001042:	46a4      	mov	ip, r4
 8001044:	0034      	movs	r4, r6
 8001046:	2001      	movs	r0, #1
 8001048:	2b1b      	cmp	r3, #27
 800104a:	dc09      	bgt.n	8001060 <__aeabi_fsub+0x35c>
 800104c:	2520      	movs	r5, #32
 800104e:	4660      	mov	r0, ip
 8001050:	40d8      	lsrs	r0, r3
 8001052:	1aeb      	subs	r3, r5, r3
 8001054:	4665      	mov	r5, ip
 8001056:	409d      	lsls	r5, r3
 8001058:	002b      	movs	r3, r5
 800105a:	1e5d      	subs	r5, r3, #1
 800105c:	41ab      	sbcs	r3, r5
 800105e:	4318      	orrs	r0, r3
 8001060:	1a0b      	subs	r3, r1, r0
 8001062:	469c      	mov	ip, r3
 8001064:	0015      	movs	r5, r2
 8001066:	e680      	b.n	8000d6a <__aeabi_fsub+0x66>
 8001068:	fbffffff 	.word	0xfbffffff
 800106c:	7dffffff 	.word	0x7dffffff
 8001070:	22fe      	movs	r2, #254	@ 0xfe
 8001072:	1c6b      	adds	r3, r5, #1
 8001074:	4213      	tst	r3, r2
 8001076:	d0a3      	beq.n	8000fc0 <__aeabi_fsub+0x2bc>
 8001078:	2bff      	cmp	r3, #255	@ 0xff
 800107a:	d100      	bne.n	800107e <__aeabi_fsub+0x37a>
 800107c:	e69c      	b.n	8000db8 <__aeabi_fsub+0xb4>
 800107e:	4461      	add	r1, ip
 8001080:	0849      	lsrs	r1, r1, #1
 8001082:	074a      	lsls	r2, r1, #29
 8001084:	d049      	beq.n	800111a <__aeabi_fsub+0x416>
 8001086:	220f      	movs	r2, #15
 8001088:	400a      	ands	r2, r1
 800108a:	2a04      	cmp	r2, #4
 800108c:	d045      	beq.n	800111a <__aeabi_fsub+0x416>
 800108e:	1d0a      	adds	r2, r1, #4
 8001090:	4694      	mov	ip, r2
 8001092:	e6ad      	b.n	8000df0 <__aeabi_fsub+0xec>
 8001094:	2d00      	cmp	r5, #0
 8001096:	d100      	bne.n	800109a <__aeabi_fsub+0x396>
 8001098:	e776      	b.n	8000f88 <__aeabi_fsub+0x284>
 800109a:	e68d      	b.n	8000db8 <__aeabi_fsub+0xb4>
 800109c:	0034      	movs	r4, r6
 800109e:	20ff      	movs	r0, #255	@ 0xff
 80010a0:	2200      	movs	r2, #0
 80010a2:	e68b      	b.n	8000dbc <__aeabi_fsub+0xb8>
 80010a4:	4663      	mov	r3, ip
 80010a6:	2401      	movs	r4, #1
 80010a8:	1acf      	subs	r7, r1, r3
 80010aa:	4034      	ands	r4, r6
 80010ac:	e664      	b.n	8000d78 <__aeabi_fsub+0x74>
 80010ae:	4461      	add	r1, ip
 80010b0:	014b      	lsls	r3, r1, #5
 80010b2:	d56d      	bpl.n	8001190 <__aeabi_fsub+0x48c>
 80010b4:	0848      	lsrs	r0, r1, #1
 80010b6:	4944      	ldr	r1, [pc, #272]	@ (80011c8 <__aeabi_fsub+0x4c4>)
 80010b8:	4001      	ands	r1, r0
 80010ba:	0743      	lsls	r3, r0, #29
 80010bc:	d02c      	beq.n	8001118 <__aeabi_fsub+0x414>
 80010be:	230f      	movs	r3, #15
 80010c0:	4003      	ands	r3, r0
 80010c2:	2b04      	cmp	r3, #4
 80010c4:	d028      	beq.n	8001118 <__aeabi_fsub+0x414>
 80010c6:	1d0b      	adds	r3, r1, #4
 80010c8:	469c      	mov	ip, r3
 80010ca:	2302      	movs	r3, #2
 80010cc:	e690      	b.n	8000df0 <__aeabi_fsub+0xec>
 80010ce:	2900      	cmp	r1, #0
 80010d0:	d100      	bne.n	80010d4 <__aeabi_fsub+0x3d0>
 80010d2:	e72b      	b.n	8000f2c <__aeabi_fsub+0x228>
 80010d4:	2380      	movs	r3, #128	@ 0x80
 80010d6:	03db      	lsls	r3, r3, #15
 80010d8:	429f      	cmp	r7, r3
 80010da:	d200      	bcs.n	80010de <__aeabi_fsub+0x3da>
 80010dc:	e726      	b.n	8000f2c <__aeabi_fsub+0x228>
 80010de:	4298      	cmp	r0, r3
 80010e0:	d300      	bcc.n	80010e4 <__aeabi_fsub+0x3e0>
 80010e2:	e723      	b.n	8000f2c <__aeabi_fsub+0x228>
 80010e4:	2401      	movs	r4, #1
 80010e6:	4034      	ands	r4, r6
 80010e8:	0007      	movs	r7, r0
 80010ea:	e71f      	b.n	8000f2c <__aeabi_fsub+0x228>
 80010ec:	0034      	movs	r4, r6
 80010ee:	468c      	mov	ip, r1
 80010f0:	e67e      	b.n	8000df0 <__aeabi_fsub+0xec>
 80010f2:	2301      	movs	r3, #1
 80010f4:	08cf      	lsrs	r7, r1, #3
 80010f6:	e680      	b.n	8000dfa <__aeabi_fsub+0xf6>
 80010f8:	2300      	movs	r3, #0
 80010fa:	e67e      	b.n	8000dfa <__aeabi_fsub+0xf6>
 80010fc:	2020      	movs	r0, #32
 80010fe:	4665      	mov	r5, ip
 8001100:	1b80      	subs	r0, r0, r6
 8001102:	4085      	lsls	r5, r0
 8001104:	4663      	mov	r3, ip
 8001106:	0028      	movs	r0, r5
 8001108:	40f3      	lsrs	r3, r6
 800110a:	1e45      	subs	r5, r0, #1
 800110c:	41a8      	sbcs	r0, r5
 800110e:	4303      	orrs	r3, r0
 8001110:	469c      	mov	ip, r3
 8001112:	0015      	movs	r5, r2
 8001114:	448c      	add	ip, r1
 8001116:	e76d      	b.n	8000ff4 <__aeabi_fsub+0x2f0>
 8001118:	2302      	movs	r3, #2
 800111a:	08cf      	lsrs	r7, r1, #3
 800111c:	e66d      	b.n	8000dfa <__aeabi_fsub+0xf6>
 800111e:	1b0f      	subs	r7, r1, r4
 8001120:	017b      	lsls	r3, r7, #5
 8001122:	d528      	bpl.n	8001176 <__aeabi_fsub+0x472>
 8001124:	01bf      	lsls	r7, r7, #6
 8001126:	09bf      	lsrs	r7, r7, #6
 8001128:	0038      	movs	r0, r7
 800112a:	f000 f8bf 	bl	80012ac <__clzsi2>
 800112e:	003b      	movs	r3, r7
 8001130:	3805      	subs	r0, #5
 8001132:	4083      	lsls	r3, r0
 8001134:	0034      	movs	r4, r6
 8001136:	2501      	movs	r5, #1
 8001138:	e6ca      	b.n	8000ed0 <__aeabi_fsub+0x1cc>
 800113a:	2900      	cmp	r1, #0
 800113c:	d100      	bne.n	8001140 <__aeabi_fsub+0x43c>
 800113e:	e6b5      	b.n	8000eac <__aeabi_fsub+0x1a8>
 8001140:	2401      	movs	r4, #1
 8001142:	0007      	movs	r7, r0
 8001144:	4034      	ands	r4, r6
 8001146:	e658      	b.n	8000dfa <__aeabi_fsub+0xf6>
 8001148:	4663      	mov	r3, ip
 800114a:	2b00      	cmp	r3, #0
 800114c:	d100      	bne.n	8001150 <__aeabi_fsub+0x44c>
 800114e:	e6e9      	b.n	8000f24 <__aeabi_fsub+0x220>
 8001150:	2900      	cmp	r1, #0
 8001152:	d100      	bne.n	8001156 <__aeabi_fsub+0x452>
 8001154:	e6ea      	b.n	8000f2c <__aeabi_fsub+0x228>
 8001156:	2380      	movs	r3, #128	@ 0x80
 8001158:	03db      	lsls	r3, r3, #15
 800115a:	429f      	cmp	r7, r3
 800115c:	d200      	bcs.n	8001160 <__aeabi_fsub+0x45c>
 800115e:	e6e5      	b.n	8000f2c <__aeabi_fsub+0x228>
 8001160:	4298      	cmp	r0, r3
 8001162:	d300      	bcc.n	8001166 <__aeabi_fsub+0x462>
 8001164:	e6e2      	b.n	8000f2c <__aeabi_fsub+0x228>
 8001166:	0007      	movs	r7, r0
 8001168:	e6e0      	b.n	8000f2c <__aeabi_fsub+0x228>
 800116a:	2900      	cmp	r1, #0
 800116c:	d100      	bne.n	8001170 <__aeabi_fsub+0x46c>
 800116e:	e69e      	b.n	8000eae <__aeabi_fsub+0x1aa>
 8001170:	2300      	movs	r3, #0
 8001172:	08cf      	lsrs	r7, r1, #3
 8001174:	e641      	b.n	8000dfa <__aeabi_fsub+0xf6>
 8001176:	0034      	movs	r4, r6
 8001178:	2301      	movs	r3, #1
 800117a:	08ff      	lsrs	r7, r7, #3
 800117c:	e63d      	b.n	8000dfa <__aeabi_fsub+0xf6>
 800117e:	2f00      	cmp	r7, #0
 8001180:	d100      	bne.n	8001184 <__aeabi_fsub+0x480>
 8001182:	e693      	b.n	8000eac <__aeabi_fsub+0x1a8>
 8001184:	2300      	movs	r3, #0
 8001186:	08ff      	lsrs	r7, r7, #3
 8001188:	e637      	b.n	8000dfa <__aeabi_fsub+0xf6>
 800118a:	2300      	movs	r3, #0
 800118c:	08d7      	lsrs	r7, r2, #3
 800118e:	e634      	b.n	8000dfa <__aeabi_fsub+0xf6>
 8001190:	2301      	movs	r3, #1
 8001192:	08cf      	lsrs	r7, r1, #3
 8001194:	e631      	b.n	8000dfa <__aeabi_fsub+0xf6>
 8001196:	2280      	movs	r2, #128	@ 0x80
 8001198:	000b      	movs	r3, r1
 800119a:	04d2      	lsls	r2, r2, #19
 800119c:	2001      	movs	r0, #1
 800119e:	4013      	ands	r3, r2
 80011a0:	4211      	tst	r1, r2
 80011a2:	d000      	beq.n	80011a6 <__aeabi_fsub+0x4a2>
 80011a4:	e6ae      	b.n	8000f04 <__aeabi_fsub+0x200>
 80011a6:	08cf      	lsrs	r7, r1, #3
 80011a8:	e627      	b.n	8000dfa <__aeabi_fsub+0xf6>
 80011aa:	2b00      	cmp	r3, #0
 80011ac:	d100      	bne.n	80011b0 <__aeabi_fsub+0x4ac>
 80011ae:	e75f      	b.n	8001070 <__aeabi_fsub+0x36c>
 80011b0:	1b56      	subs	r6, r2, r5
 80011b2:	2d00      	cmp	r5, #0
 80011b4:	d101      	bne.n	80011ba <__aeabi_fsub+0x4b6>
 80011b6:	0033      	movs	r3, r6
 80011b8:	e6e7      	b.n	8000f8a <__aeabi_fsub+0x286>
 80011ba:	2380      	movs	r3, #128	@ 0x80
 80011bc:	4660      	mov	r0, ip
 80011be:	04db      	lsls	r3, r3, #19
 80011c0:	4318      	orrs	r0, r3
 80011c2:	4684      	mov	ip, r0
 80011c4:	e6eb      	b.n	8000f9e <__aeabi_fsub+0x29a>
 80011c6:	46c0      	nop			@ (mov r8, r8)
 80011c8:	7dffffff 	.word	0x7dffffff

080011cc <__aeabi_f2iz>:
 80011cc:	0241      	lsls	r1, r0, #9
 80011ce:	0042      	lsls	r2, r0, #1
 80011d0:	0fc3      	lsrs	r3, r0, #31
 80011d2:	0a49      	lsrs	r1, r1, #9
 80011d4:	2000      	movs	r0, #0
 80011d6:	0e12      	lsrs	r2, r2, #24
 80011d8:	2a7e      	cmp	r2, #126	@ 0x7e
 80011da:	dd03      	ble.n	80011e4 <__aeabi_f2iz+0x18>
 80011dc:	2a9d      	cmp	r2, #157	@ 0x9d
 80011de:	dd02      	ble.n	80011e6 <__aeabi_f2iz+0x1a>
 80011e0:	4a09      	ldr	r2, [pc, #36]	@ (8001208 <__aeabi_f2iz+0x3c>)
 80011e2:	1898      	adds	r0, r3, r2
 80011e4:	4770      	bx	lr
 80011e6:	2080      	movs	r0, #128	@ 0x80
 80011e8:	0400      	lsls	r0, r0, #16
 80011ea:	4301      	orrs	r1, r0
 80011ec:	2a95      	cmp	r2, #149	@ 0x95
 80011ee:	dc07      	bgt.n	8001200 <__aeabi_f2iz+0x34>
 80011f0:	2096      	movs	r0, #150	@ 0x96
 80011f2:	1a82      	subs	r2, r0, r2
 80011f4:	40d1      	lsrs	r1, r2
 80011f6:	4248      	negs	r0, r1
 80011f8:	2b00      	cmp	r3, #0
 80011fa:	d1f3      	bne.n	80011e4 <__aeabi_f2iz+0x18>
 80011fc:	0008      	movs	r0, r1
 80011fe:	e7f1      	b.n	80011e4 <__aeabi_f2iz+0x18>
 8001200:	3a96      	subs	r2, #150	@ 0x96
 8001202:	4091      	lsls	r1, r2
 8001204:	e7f7      	b.n	80011f6 <__aeabi_f2iz+0x2a>
 8001206:	46c0      	nop			@ (mov r8, r8)
 8001208:	7fffffff 	.word	0x7fffffff

0800120c <__aeabi_i2f>:
 800120c:	b570      	push	{r4, r5, r6, lr}
 800120e:	2800      	cmp	r0, #0
 8001210:	d012      	beq.n	8001238 <__aeabi_i2f+0x2c>
 8001212:	17c3      	asrs	r3, r0, #31
 8001214:	18c5      	adds	r5, r0, r3
 8001216:	405d      	eors	r5, r3
 8001218:	0fc4      	lsrs	r4, r0, #31
 800121a:	0028      	movs	r0, r5
 800121c:	f000 f846 	bl	80012ac <__clzsi2>
 8001220:	239e      	movs	r3, #158	@ 0x9e
 8001222:	1a1b      	subs	r3, r3, r0
 8001224:	2b96      	cmp	r3, #150	@ 0x96
 8001226:	dc0f      	bgt.n	8001248 <__aeabi_i2f+0x3c>
 8001228:	2808      	cmp	r0, #8
 800122a:	d038      	beq.n	800129e <__aeabi_i2f+0x92>
 800122c:	3808      	subs	r0, #8
 800122e:	4085      	lsls	r5, r0
 8001230:	026d      	lsls	r5, r5, #9
 8001232:	0a6d      	lsrs	r5, r5, #9
 8001234:	b2d8      	uxtb	r0, r3
 8001236:	e002      	b.n	800123e <__aeabi_i2f+0x32>
 8001238:	2400      	movs	r4, #0
 800123a:	2000      	movs	r0, #0
 800123c:	2500      	movs	r5, #0
 800123e:	05c0      	lsls	r0, r0, #23
 8001240:	4328      	orrs	r0, r5
 8001242:	07e4      	lsls	r4, r4, #31
 8001244:	4320      	orrs	r0, r4
 8001246:	bd70      	pop	{r4, r5, r6, pc}
 8001248:	2b99      	cmp	r3, #153	@ 0x99
 800124a:	dc14      	bgt.n	8001276 <__aeabi_i2f+0x6a>
 800124c:	1f42      	subs	r2, r0, #5
 800124e:	4095      	lsls	r5, r2
 8001250:	002a      	movs	r2, r5
 8001252:	4915      	ldr	r1, [pc, #84]	@ (80012a8 <__aeabi_i2f+0x9c>)
 8001254:	4011      	ands	r1, r2
 8001256:	0755      	lsls	r5, r2, #29
 8001258:	d01c      	beq.n	8001294 <__aeabi_i2f+0x88>
 800125a:	250f      	movs	r5, #15
 800125c:	402a      	ands	r2, r5
 800125e:	2a04      	cmp	r2, #4
 8001260:	d018      	beq.n	8001294 <__aeabi_i2f+0x88>
 8001262:	3104      	adds	r1, #4
 8001264:	08ca      	lsrs	r2, r1, #3
 8001266:	0149      	lsls	r1, r1, #5
 8001268:	d515      	bpl.n	8001296 <__aeabi_i2f+0x8a>
 800126a:	239f      	movs	r3, #159	@ 0x9f
 800126c:	0252      	lsls	r2, r2, #9
 800126e:	1a18      	subs	r0, r3, r0
 8001270:	0a55      	lsrs	r5, r2, #9
 8001272:	b2c0      	uxtb	r0, r0
 8001274:	e7e3      	b.n	800123e <__aeabi_i2f+0x32>
 8001276:	2205      	movs	r2, #5
 8001278:	0029      	movs	r1, r5
 800127a:	1a12      	subs	r2, r2, r0
 800127c:	40d1      	lsrs	r1, r2
 800127e:	0002      	movs	r2, r0
 8001280:	321b      	adds	r2, #27
 8001282:	4095      	lsls	r5, r2
 8001284:	002a      	movs	r2, r5
 8001286:	1e55      	subs	r5, r2, #1
 8001288:	41aa      	sbcs	r2, r5
 800128a:	430a      	orrs	r2, r1
 800128c:	4906      	ldr	r1, [pc, #24]	@ (80012a8 <__aeabi_i2f+0x9c>)
 800128e:	4011      	ands	r1, r2
 8001290:	0755      	lsls	r5, r2, #29
 8001292:	d1e2      	bne.n	800125a <__aeabi_i2f+0x4e>
 8001294:	08ca      	lsrs	r2, r1, #3
 8001296:	0252      	lsls	r2, r2, #9
 8001298:	0a55      	lsrs	r5, r2, #9
 800129a:	b2d8      	uxtb	r0, r3
 800129c:	e7cf      	b.n	800123e <__aeabi_i2f+0x32>
 800129e:	026d      	lsls	r5, r5, #9
 80012a0:	0a6d      	lsrs	r5, r5, #9
 80012a2:	308e      	adds	r0, #142	@ 0x8e
 80012a4:	e7cb      	b.n	800123e <__aeabi_i2f+0x32>
 80012a6:	46c0      	nop			@ (mov r8, r8)
 80012a8:	fbffffff 	.word	0xfbffffff

080012ac <__clzsi2>:
 80012ac:	211c      	movs	r1, #28
 80012ae:	2301      	movs	r3, #1
 80012b0:	041b      	lsls	r3, r3, #16
 80012b2:	4298      	cmp	r0, r3
 80012b4:	d301      	bcc.n	80012ba <__clzsi2+0xe>
 80012b6:	0c00      	lsrs	r0, r0, #16
 80012b8:	3910      	subs	r1, #16
 80012ba:	0a1b      	lsrs	r3, r3, #8
 80012bc:	4298      	cmp	r0, r3
 80012be:	d301      	bcc.n	80012c4 <__clzsi2+0x18>
 80012c0:	0a00      	lsrs	r0, r0, #8
 80012c2:	3908      	subs	r1, #8
 80012c4:	091b      	lsrs	r3, r3, #4
 80012c6:	4298      	cmp	r0, r3
 80012c8:	d301      	bcc.n	80012ce <__clzsi2+0x22>
 80012ca:	0900      	lsrs	r0, r0, #4
 80012cc:	3904      	subs	r1, #4
 80012ce:	a202      	add	r2, pc, #8	@ (adr r2, 80012d8 <__clzsi2+0x2c>)
 80012d0:	5c10      	ldrb	r0, [r2, r0]
 80012d2:	1840      	adds	r0, r0, r1
 80012d4:	4770      	bx	lr
 80012d6:	46c0      	nop			@ (mov r8, r8)
 80012d8:	02020304 	.word	0x02020304
 80012dc:	01010101 	.word	0x01010101
	...

080012e8 <AS5600_init>:

#include "AS5600.h"


void AS5600_init(I2C_HandleTypeDef *hi2c, uint8_t conf_L, uint8_t conf_H)
{
 80012e8:	b5f0      	push	{r4, r5, r6, r7, lr}
 80012ea:	2317      	movs	r3, #23
 80012ec:	2616      	movs	r6, #22
	HAL_I2C_Mem_Write(hi2c, AS5600_I2C_ADDR, AS5600_REG_CONF_L, I2C_MEMADD_SIZE_8BIT, &conf_L, 1, 100);
 80012ee:	2501      	movs	r5, #1
 80012f0:	2764      	movs	r7, #100	@ 0x64
{
 80012f2:	0004      	movs	r4, r0
 80012f4:	b087      	sub	sp, #28
 80012f6:	446b      	add	r3, sp
 80012f8:	446e      	add	r6, sp
 80012fa:	7019      	strb	r1, [r3, #0]
 80012fc:	7032      	strb	r2, [r6, #0]
	HAL_I2C_Mem_Write(hi2c, AS5600_I2C_ADDR, AS5600_REG_CONF_L, I2C_MEMADD_SIZE_8BIT, &conf_L, 1, 100);
 80012fe:	2180      	movs	r1, #128	@ 0x80
 8001300:	9300      	str	r3, [sp, #0]
 8001302:	2208      	movs	r2, #8
 8001304:	002b      	movs	r3, r5
 8001306:	9702      	str	r7, [sp, #8]
 8001308:	9501      	str	r5, [sp, #4]
 800130a:	f001 fe15 	bl	8002f38 <HAL_I2C_Mem_Write>
	HAL_I2C_Mem_Write(hi2c, AS5600_I2C_ADDR, AS5600_REG_CONF_H, I2C_MEMADD_SIZE_8BIT, &conf_H, 1, 100);
 800130e:	002b      	movs	r3, r5
 8001310:	2207      	movs	r2, #7
 8001312:	2180      	movs	r1, #128	@ 0x80
 8001314:	0020      	movs	r0, r4
 8001316:	9702      	str	r7, [sp, #8]
 8001318:	9501      	str	r5, [sp, #4]
 800131a:	9600      	str	r6, [sp, #0]
 800131c:	f001 fe0c 	bl	8002f38 <HAL_I2C_Mem_Write>
}
 8001320:	b007      	add	sp, #28
 8001322:	bdf0      	pop	{r4, r5, r6, r7, pc}

08001324 <setup>:
uint8_t fireCount = 0;


void setup()
{
	HAL_TIM_PWM_Start(&htim16, TIM_CHANNEL_1);
 8001324:	2100      	movs	r1, #0
{
 8001326:	b510      	push	{r4, lr}
	HAL_TIM_PWM_Start(&htim16, TIM_CHANNEL_1);
 8001328:	4817      	ldr	r0, [pc, #92]	@ (8001388 <setup+0x64>)
 800132a:	f003 fd25 	bl	8004d78 <HAL_TIM_PWM_Start>

	initMotorControl();
 800132e:	f000 fadf 	bl	80018f0 <initMotorControl>

	moco.position = get_meas_angle();
 8001332:	f000 fd05 	bl	8001d40 <get_meas_angle>
	moco.old_angle = moco.position;
	moco.target = targetA;
 8001336:	4b15      	ldr	r3, [pc, #84]	@ (800138c <setup+0x68>)
	moco.position = get_meas_angle();
 8001338:	4c15      	ldr	r4, [pc, #84]	@ (8001390 <setup+0x6c>)
	moco.target = targetA;
 800133a:	681b      	ldr	r3, [r3, #0]
	moco.position = get_meas_angle();
 800133c:	6120      	str	r0, [r4, #16]
	moco.old_angle = moco.position;
 800133e:	8420      	strh	r0, [r4, #32]
	moco.target = targetA;
 8001340:	61a3      	str	r3, [r4, #24]

	setnewData();
 8001342:	f000 fd1b 	bl	8001d7c <setnewData>
	update();
 8001346:	f000 fcc5 	bl	8001cd4 <update>

	while (moco.position > 1024) moco.position -= 2048;
 800134a:	2180      	movs	r1, #128	@ 0x80
 800134c:	2200      	movs	r2, #0
 800134e:	2001      	movs	r0, #1
 8001350:	6923      	ldr	r3, [r4, #16]
 8001352:	00c9      	lsls	r1, r1, #3
 8001354:	428b      	cmp	r3, r1
 8001356:	dc0e      	bgt.n	8001376 <setup+0x52>
 8001358:	2a00      	cmp	r2, #0
 800135a:	d000      	beq.n	800135e <setup+0x3a>
 800135c:	6123      	str	r3, [r4, #16]
 800135e:	2200      	movs	r2, #0
	while (moco.position < -1024) moco.position += 2048;
 8001360:	2001      	movs	r0, #1
 8001362:	6923      	ldr	r3, [r4, #16]
 8001364:	490b      	ldr	r1, [pc, #44]	@ (8001394 <setup+0x70>)
 8001366:	428b      	cmp	r3, r1
 8001368:	db09      	blt.n	800137e <setup+0x5a>
 800136a:	2a00      	cmp	r2, #0
 800136c:	d000      	beq.n	8001370 <setup+0x4c>
 800136e:	6123      	str	r3, [r4, #16]

	//setnewData();
	//update();
	enableMotor();
 8001370:	f000 fcdc 	bl	8001d2c <enableMotor>
	//calibrateOffset(64);  // broken :/
}
 8001374:	bd10      	pop	{r4, pc}
	while (moco.position > 1024) moco.position -= 2048;
 8001376:	4a08      	ldr	r2, [pc, #32]	@ (8001398 <setup+0x74>)
 8001378:	189b      	adds	r3, r3, r2
 800137a:	0002      	movs	r2, r0
 800137c:	e7ea      	b.n	8001354 <setup+0x30>
	while (moco.position < -1024) moco.position += 2048;
 800137e:	2280      	movs	r2, #128	@ 0x80
 8001380:	0112      	lsls	r2, r2, #4
 8001382:	189b      	adds	r3, r3, r2
 8001384:	0002      	movs	r2, r0
 8001386:	e7ee      	b.n	8001366 <setup+0x42>
 8001388:	20000090 	.word	0x20000090
 800138c:	2000003c 	.word	0x2000003c
 8001390:	20000244 	.word	0x20000244
 8001394:	fffffc00 	.word	0xfffffc00
 8001398:	fffff800 	.word	0xfffff800

0800139c <enableFlywheels>:
	oldTriggerState = HAL_GPIO_ReadPin(Trigger_GPIO_Port, Trigger_Pin);
}

void enableFlywheels()
{
	htim16.Instance->CCR1 = 1300;
 800139c:	4b02      	ldr	r3, [pc, #8]	@ (80013a8 <enableFlywheels+0xc>)
 800139e:	4a03      	ldr	r2, [pc, #12]	@ (80013ac <enableFlywheels+0x10>)
 80013a0:	681b      	ldr	r3, [r3, #0]
 80013a2:	635a      	str	r2, [r3, #52]	@ 0x34
}
 80013a4:	4770      	bx	lr
 80013a6:	46c0      	nop			@ (mov r8, r8)
 80013a8:	20000090 	.word	0x20000090
 80013ac:	00000514 	.word	0x00000514

080013b0 <disableFlywheels>:

void disableFlywheels()
{
	htim16.Instance->CCR1 = 540;
 80013b0:	2287      	movs	r2, #135	@ 0x87
 80013b2:	4b02      	ldr	r3, [pc, #8]	@ (80013bc <disableFlywheels+0xc>)
 80013b4:	0092      	lsls	r2, r2, #2
 80013b6:	681b      	ldr	r3, [r3, #0]
 80013b8:	635a      	str	r2, [r3, #52]	@ 0x34
}
 80013ba:	4770      	bx	lr
 80013bc:	20000090 	.word	0x20000090

080013c0 <loop>:
{
 80013c0:	b5f8      	push	{r3, r4, r5, r6, r7, lr}
	update();
 80013c2:	f000 fc87 	bl	8001cd4 <update>
	if ((oldTriggerState == 1) && (HAL_GPIO_ReadPin(Trigger_GPIO_Port, Trigger_Pin) == 0) && (stateMachine == 0))
 80013c6:	4d53      	ldr	r5, [pc, #332]	@ (8001514 <loop+0x154>)
 80013c8:	4c53      	ldr	r4, [pc, #332]	@ (8001518 <loop+0x158>)
 80013ca:	782b      	ldrb	r3, [r5, #0]
 80013cc:	2b00      	cmp	r3, #0
 80013ce:	d015      	beq.n	80013fc <loop+0x3c>
 80013d0:	2180      	movs	r1, #128	@ 0x80
 80013d2:	4852      	ldr	r0, [pc, #328]	@ (800151c <loop+0x15c>)
 80013d4:	0209      	lsls	r1, r1, #8
 80013d6:	f001 fbaf 	bl	8002b38 <HAL_GPIO_ReadPin>
 80013da:	7823      	ldrb	r3, [r4, #0]
 80013dc:	4318      	orrs	r0, r3
 80013de:	b2c0      	uxtb	r0, r0
 80013e0:	2800      	cmp	r0, #0
 80013e2:	d10b      	bne.n	80013fc <loop+0x3c>
		stateMachine = 1;
 80013e4:	2301      	movs	r3, #1
 80013e6:	7023      	strb	r3, [r4, #0]
		timestamp = HAL_GetTick();
 80013e8:	f000 feaa 	bl	8002140 <HAL_GetTick>
 80013ec:	4b4c      	ldr	r3, [pc, #304]	@ (8001520 <loop+0x160>)
 80013ee:	6018      	str	r0, [r3, #0]
		enableFlywheels();
 80013f0:	f7ff ffd4 	bl	800139c <enableFlywheels>
		fireCount = rapidFireCount;
 80013f4:	4a4b      	ldr	r2, [pc, #300]	@ (8001524 <loop+0x164>)
 80013f6:	4b4c      	ldr	r3, [pc, #304]	@ (8001528 <loop+0x168>)
 80013f8:	7812      	ldrb	r2, [r2, #0]
 80013fa:	701a      	strb	r2, [r3, #0]
	if (stateMachine == 1)
 80013fc:	7823      	ldrb	r3, [r4, #0]
 80013fe:	2b01      	cmp	r3, #1
 8001400:	d113      	bne.n	800142a <loop+0x6a>
		if ((HAL_GetTick() - timestamp) >= SERVO_WAIT_MS)
 8001402:	f000 fe9d 	bl	8002140 <HAL_GetTick>
 8001406:	4e46      	ldr	r6, [pc, #280]	@ (8001520 <loop+0x160>)
 8001408:	6833      	ldr	r3, [r6, #0]
 800140a:	1ac0      	subs	r0, r0, r3
 800140c:	2396      	movs	r3, #150	@ 0x96
 800140e:	009b      	lsls	r3, r3, #2
 8001410:	4298      	cmp	r0, r3
 8001412:	d30a      	bcc.n	800142a <loop+0x6a>
			stateMachine = 2;
 8001414:	2302      	movs	r3, #2
 8001416:	7023      	strb	r3, [r4, #0]
			timestamp = HAL_GetTick();
 8001418:	f000 fe92 	bl	8002140 <HAL_GetTick>
			moco.power_limit = 127;		// bump up power
 800141c:	227f      	movs	r2, #127	@ 0x7f
 800141e:	4b43      	ldr	r3, [pc, #268]	@ (800152c <loop+0x16c>)
			timestamp = HAL_GetTick();
 8001420:	6030      	str	r0, [r6, #0]
			moco.power_limit = 127;		// bump up power
 8001422:	73da      	strb	r2, [r3, #15]
			moco.target = targetA;
 8001424:	4a42      	ldr	r2, [pc, #264]	@ (8001530 <loop+0x170>)
 8001426:	6812      	ldr	r2, [r2, #0]
 8001428:	619a      	str	r2, [r3, #24]
	if (stateMachine == 2)
 800142a:	7823      	ldrb	r3, [r4, #0]
 800142c:	2b02      	cmp	r3, #2
 800142e:	d110      	bne.n	8001452 <loop+0x92>
		if ((abs(moco.position - targetA) < 10) || ((HAL_GetTick() - timestamp) >= BLOCK_ABORT_MS))
 8001430:	4f3e      	ldr	r7, [pc, #248]	@ (800152c <loop+0x16c>)
 8001432:	4a3f      	ldr	r2, [pc, #252]	@ (8001530 <loop+0x170>)
 8001434:	693b      	ldr	r3, [r7, #16]
 8001436:	6812      	ldr	r2, [r2, #0]
 8001438:	4e39      	ldr	r6, [pc, #228]	@ (8001520 <loop+0x160>)
 800143a:	1a9b      	subs	r3, r3, r2
 800143c:	3309      	adds	r3, #9
 800143e:	2b12      	cmp	r3, #18
 8001440:	d82b      	bhi.n	800149a <loop+0xda>
			stateMachine = 3;
 8001442:	2303      	movs	r3, #3
 8001444:	7023      	strb	r3, [r4, #0]
			timestamp = HAL_GetTick();
 8001446:	f000 fe7b 	bl	8002140 <HAL_GetTick>
			moco.target = targetB;
 800144a:	4b3a      	ldr	r3, [pc, #232]	@ (8001534 <loop+0x174>)
			timestamp = HAL_GetTick();
 800144c:	6030      	str	r0, [r6, #0]
			moco.target = targetB;
 800144e:	681b      	ldr	r3, [r3, #0]
 8001450:	61bb      	str	r3, [r7, #24]
	if (stateMachine == 3)
 8001452:	7823      	ldrb	r3, [r4, #0]
 8001454:	2b03      	cmp	r3, #3
 8001456:	d131      	bne.n	80014bc <loop+0xfc>
		if ((abs(moco.position - targetB) < 10) || ((HAL_GetTick() - timestamp) >= BLOCK_ABORT_MS))
 8001458:	4f34      	ldr	r7, [pc, #208]	@ (800152c <loop+0x16c>)
 800145a:	4a36      	ldr	r2, [pc, #216]	@ (8001534 <loop+0x174>)
 800145c:	693b      	ldr	r3, [r7, #16]
 800145e:	6812      	ldr	r2, [r2, #0]
 8001460:	4e2f      	ldr	r6, [pc, #188]	@ (8001520 <loop+0x160>)
 8001462:	1a9b      	subs	r3, r3, r2
 8001464:	3309      	adds	r3, #9
 8001466:	2b12      	cmp	r3, #18
 8001468:	d820      	bhi.n	80014ac <loop+0xec>
			moco.target = targetA;
 800146a:	4b31      	ldr	r3, [pc, #196]	@ (8001530 <loop+0x170>)
 800146c:	681b      	ldr	r3, [r3, #0]
 800146e:	61bb      	str	r3, [r7, #24]
			fireCount--;
 8001470:	4f2d      	ldr	r7, [pc, #180]	@ (8001528 <loop+0x168>)
 8001472:	783b      	ldrb	r3, [r7, #0]
 8001474:	3b01      	subs	r3, #1
 8001476:	703b      	strb	r3, [r7, #0]
			if ((HAL_GetTick() - timestamp) >= BLOCK_ABORT_MS)
 8001478:	f000 fe62 	bl	8002140 <HAL_GetTick>
 800147c:	6833      	ldr	r3, [r6, #0]
 800147e:	1ac0      	subs	r0, r0, r3
 8001480:	2396      	movs	r3, #150	@ 0x96
 8001482:	005b      	lsls	r3, r3, #1
 8001484:	4298      	cmp	r0, r3
 8001486:	d237      	bcs.n	80014f8 <loop+0x138>
			if (fireCount > 0)
 8001488:	783a      	ldrb	r2, [r7, #0]
				stateMachine = 2;
 800148a:	2302      	movs	r3, #2
			if (fireCount > 0)
 800148c:	2a00      	cmp	r2, #0
 800148e:	d035      	beq.n	80014fc <loop+0x13c>
 8001490:	7023      	strb	r3, [r4, #0]
			timestamp = HAL_GetTick();
 8001492:	f000 fe55 	bl	8002140 <HAL_GetTick>
 8001496:	6030      	str	r0, [r6, #0]
 8001498:	e010      	b.n	80014bc <loop+0xfc>
		if ((abs(moco.position - targetA) < 10) || ((HAL_GetTick() - timestamp) >= BLOCK_ABORT_MS))
 800149a:	f000 fe51 	bl	8002140 <HAL_GetTick>
 800149e:	6833      	ldr	r3, [r6, #0]
 80014a0:	1ac0      	subs	r0, r0, r3
 80014a2:	2396      	movs	r3, #150	@ 0x96
 80014a4:	005b      	lsls	r3, r3, #1
 80014a6:	4298      	cmp	r0, r3
 80014a8:	d2cb      	bcs.n	8001442 <loop+0x82>
 80014aa:	e7d2      	b.n	8001452 <loop+0x92>
		if ((abs(moco.position - targetB) < 10) || ((HAL_GetTick() - timestamp) >= BLOCK_ABORT_MS))
 80014ac:	f000 fe48 	bl	8002140 <HAL_GetTick>
 80014b0:	6833      	ldr	r3, [r6, #0]
 80014b2:	1ac0      	subs	r0, r0, r3
 80014b4:	2396      	movs	r3, #150	@ 0x96
 80014b6:	005b      	lsls	r3, r3, #1
 80014b8:	4298      	cmp	r0, r3
 80014ba:	d2d6      	bcs.n	800146a <loop+0xaa>
	if (stateMachine == 4)
 80014bc:	7823      	ldrb	r3, [r4, #0]
 80014be:	2b04      	cmp	r3, #4
 80014c0:	d111      	bne.n	80014e6 <loop+0x126>
		if ((abs(moco.position - targetA) < 10) || ((HAL_GetTick() - timestamp) >= BLOCK_ABORT_MS))
 80014c2:	4f1a      	ldr	r7, [pc, #104]	@ (800152c <loop+0x16c>)
 80014c4:	4a1a      	ldr	r2, [pc, #104]	@ (8001530 <loop+0x170>)
 80014c6:	693b      	ldr	r3, [r7, #16]
 80014c8:	6812      	ldr	r2, [r2, #0]
 80014ca:	4e15      	ldr	r6, [pc, #84]	@ (8001520 <loop+0x160>)
 80014cc:	1a9b      	subs	r3, r3, r2
 80014ce:	3309      	adds	r3, #9
 80014d0:	2b12      	cmp	r3, #18
 80014d2:	d815      	bhi.n	8001500 <loop+0x140>
			disableFlywheels();
 80014d4:	f7ff ff6c 	bl	80013b0 <disableFlywheels>
			stateMachine = 0;
 80014d8:	2300      	movs	r3, #0
 80014da:	7023      	strb	r3, [r4, #0]
			timestamp = HAL_GetTick();
 80014dc:	f000 fe30 	bl	8002140 <HAL_GetTick>
			moco.power_limit = 32;		// reduce power for only holding position
 80014e0:	2320      	movs	r3, #32
			timestamp = HAL_GetTick();
 80014e2:	6030      	str	r0, [r6, #0]
			moco.power_limit = 32;		// reduce power for only holding position
 80014e4:	73fb      	strb	r3, [r7, #15]
	oldTriggerState = HAL_GPIO_ReadPin(Trigger_GPIO_Port, Trigger_Pin);
 80014e6:	2180      	movs	r1, #128	@ 0x80
 80014e8:	0209      	lsls	r1, r1, #8
 80014ea:	480c      	ldr	r0, [pc, #48]	@ (800151c <loop+0x15c>)
 80014ec:	f001 fb24 	bl	8002b38 <HAL_GPIO_ReadPin>
 80014f0:	1e43      	subs	r3, r0, #1
 80014f2:	4198      	sbcs	r0, r3
 80014f4:	7028      	strb	r0, [r5, #0]
}
 80014f6:	bdf8      	pop	{r3, r4, r5, r6, r7, pc}
				fireCount = 0;	// abort rapid fire when blocked
 80014f8:	2300      	movs	r3, #0
 80014fa:	703b      	strb	r3, [r7, #0]
				stateMachine = 4;
 80014fc:	2304      	movs	r3, #4
 80014fe:	e7c7      	b.n	8001490 <loop+0xd0>
		if ((abs(moco.position - targetA) < 10) || ((HAL_GetTick() - timestamp) >= BLOCK_ABORT_MS))
 8001500:	f000 fe1e 	bl	8002140 <HAL_GetTick>
 8001504:	6833      	ldr	r3, [r6, #0]
 8001506:	1ac0      	subs	r0, r0, r3
 8001508:	2396      	movs	r3, #150	@ 0x96
 800150a:	005b      	lsls	r3, r3, #1
 800150c:	4298      	cmp	r0, r3
 800150e:	d2e1      	bcs.n	80014d4 <loop+0x114>
 8001510:	e7e9      	b.n	80014e6 <loop+0x126>
 8001512:	46c0      	nop			@ (mov r8, r8)
 8001514:	20000008 	.word	0x20000008
 8001518:	20000040 	.word	0x20000040
 800151c:	50000800 	.word	0x50000800
 8001520:	20000038 	.word	0x20000038
 8001524:	20000000 	.word	0x20000000
 8001528:	20000034 	.word	0x20000034
 800152c:	20000244 	.word	0x20000244
 8001530:	2000003c 	.word	0x2000003c
 8001534:	20000004 	.word	0x20000004

08001538 <SystemClock_Config>:
/**
  * @brief System Clock Configuration
  * @retval None
  */
void SystemClock_Config(void)
{
 8001538:	b510      	push	{r4, lr}
 800153a:	b092      	sub	sp, #72	@ 0x48
  RCC_OscInitTypeDef RCC_OscInitStruct = {0};
 800153c:	2234      	movs	r2, #52	@ 0x34
 800153e:	2100      	movs	r1, #0
 8001540:	a805      	add	r0, sp, #20
 8001542:	f003 fcab 	bl	8004e9c <memset>
  RCC_ClkInitTypeDef RCC_ClkInitStruct = {0};
 8001546:	2210      	movs	r2, #16
 8001548:	2100      	movs	r1, #0
 800154a:	a801      	add	r0, sp, #4
 800154c:	f003 fca6 	bl	8004e9c <memset>

  /** Configure the main internal regulator output voltage
  */
  HAL_PWREx_ControlVoltageScaling(PWR_REGULATOR_VOLTAGE_SCALE1);
 8001550:	2080      	movs	r0, #128	@ 0x80
 8001552:	0080      	lsls	r0, r0, #2
 8001554:	f002 fc76 	bl	8003e44 <HAL_PWREx_ControlVoltageScaling>

  /** Initializes the RCC Oscillators according to the specified parameters
  * in the RCC_OscInitTypeDef structure.
  */
  RCC_OscInitStruct.OscillatorType = RCC_OSCILLATORTYPE_HSI;
  RCC_OscInitStruct.HSIState = RCC_HSI_ON;
 8001558:	2380      	movs	r3, #128	@ 0x80
 800155a:	005b      	lsls	r3, r3, #1
 800155c:	9308      	str	r3, [sp, #32]
  RCC_OscInitStruct.HSIDiv = RCC_HSI_DIV1;
 800155e:	2300      	movs	r3, #0
 8001560:	9309      	str	r3, [sp, #36]	@ 0x24
  RCC_OscInitStruct.HSICalibrationValue = RCC_HSICALIBRATION_DEFAULT;
  RCC_OscInitStruct.PLL.PLLState = RCC_PLL_ON;
  RCC_OscInitStruct.PLL.PLLSource = RCC_PLLSOURCE_HSI;
  RCC_OscInitStruct.PLL.PLLM = RCC_PLLM_DIV1;
 8001562:	930e      	str	r3, [sp, #56]	@ 0x38
  RCC_OscInitStruct.PLL.PLLN = 8;
 8001564:	3308      	adds	r3, #8
 8001566:	930f      	str	r3, [sp, #60]	@ 0x3c
  RCC_OscInitStruct.PLL.PLLP = RCC_PLLP_DIV2;
 8001568:	2380      	movs	r3, #128	@ 0x80
 800156a:	029b      	lsls	r3, r3, #10
 800156c:	9310      	str	r3, [sp, #64]	@ 0x40
  RCC_OscInitStruct.PLL.PLLR = RCC_PLLR_DIV2;
 800156e:	2380      	movs	r3, #128	@ 0x80
  RCC_OscInitStruct.OscillatorType = RCC_OSCILLATORTYPE_HSI;
 8001570:	2402      	movs	r4, #2
  RCC_OscInitStruct.HSICalibrationValue = RCC_HSICALIBRATION_DEFAULT;
 8001572:	2240      	movs	r2, #64	@ 0x40
  RCC_OscInitStruct.PLL.PLLR = RCC_PLLR_DIV2;
 8001574:	059b      	lsls	r3, r3, #22
  if (HAL_RCC_OscConfig(&RCC_OscInitStruct) != HAL_OK)
 8001576:	a805      	add	r0, sp, #20
  RCC_OscInitStruct.OscillatorType = RCC_OSCILLATORTYPE_HSI;
 8001578:	9405      	str	r4, [sp, #20]
  RCC_OscInitStruct.HSICalibrationValue = RCC_HSICALIBRATION_DEFAULT;
 800157a:	920a      	str	r2, [sp, #40]	@ 0x28
  RCC_OscInitStruct.PLL.PLLState = RCC_PLL_ON;
 800157c:	940c      	str	r4, [sp, #48]	@ 0x30
  RCC_OscInitStruct.PLL.PLLSource = RCC_PLLSOURCE_HSI;
 800157e:	940d      	str	r4, [sp, #52]	@ 0x34
  RCC_OscInitStruct.PLL.PLLR = RCC_PLLR_DIV2;
 8001580:	9311      	str	r3, [sp, #68]	@ 0x44
  if (HAL_RCC_OscConfig(&RCC_OscInitStruct) != HAL_OK)
 8001582:	f002 fc8b 	bl	8003e9c <HAL_RCC_OscConfig>
 8001586:	2800      	cmp	r0, #0
 8001588:	d001      	beq.n	800158e <SystemClock_Config+0x56>
  \details Disables IRQ interrupts by setting the I-bit in the CPSR.
           Can only be executed in Privileged modes.
 */
__STATIC_FORCEINLINE void __disable_irq(void)
{
  __ASM volatile ("cpsid i" : : : "memory");
 800158a:	b672      	cpsid	i
void Error_Handler(void)
{
  /* USER CODE BEGIN Error_Handler_Debug */
  /* User can add his own implementation to report the HAL error return state */
  __disable_irq();
  while (1)
 800158c:	e7fe      	b.n	800158c <SystemClock_Config+0x54>
  RCC_ClkInitStruct.ClockType = RCC_CLOCKTYPE_HCLK|RCC_CLOCKTYPE_SYSCLK
 800158e:	2307      	movs	r3, #7
  RCC_ClkInitStruct.AHBCLKDivider = RCC_SYSCLK_DIV1;
 8001590:	9003      	str	r0, [sp, #12]
  RCC_ClkInitStruct.APB1CLKDivider = RCC_HCLK_DIV1;
 8001592:	9004      	str	r0, [sp, #16]
  if (HAL_RCC_ClockConfig(&RCC_ClkInitStruct, FLASH_LATENCY_2) != HAL_OK)
 8001594:	0021      	movs	r1, r4
 8001596:	a801      	add	r0, sp, #4
  RCC_ClkInitStruct.ClockType = RCC_CLOCKTYPE_HCLK|RCC_CLOCKTYPE_SYSCLK
 8001598:	9301      	str	r3, [sp, #4]
  RCC_ClkInitStruct.SYSCLKSource = RCC_SYSCLKSOURCE_PLLCLK;
 800159a:	9402      	str	r4, [sp, #8]
  if (HAL_RCC_ClockConfig(&RCC_ClkInitStruct, FLASH_LATENCY_2) != HAL_OK)
 800159c:	f002 fede 	bl	800435c <HAL_RCC_ClockConfig>
 80015a0:	2800      	cmp	r0, #0
 80015a2:	d001      	beq.n	80015a8 <SystemClock_Config+0x70>
 80015a4:	b672      	cpsid	i
  while (1)
 80015a6:	e7fe      	b.n	80015a6 <SystemClock_Config+0x6e>
}
 80015a8:	b012      	add	sp, #72	@ 0x48
 80015aa:	bd10      	pop	{r4, pc}

080015ac <main>:
{
 80015ac:	b5f0      	push	{r4, r5, r6, r7, lr}
 80015ae:	b0a1      	sub	sp, #132	@ 0x84
  HAL_Init();
 80015b0:	f000 fda6 	bl	8002100 <HAL_Init>
  SystemClock_Config();
 80015b4:	f7ff ffc0 	bl	8001538 <SystemClock_Config>
  GPIO_InitTypeDef GPIO_InitStruct = {0};
 80015b8:	2214      	movs	r2, #20
 80015ba:	2100      	movs	r1, #0
 80015bc:	a813      	add	r0, sp, #76	@ 0x4c
 80015be:	f003 fc6d 	bl	8004e9c <memset>
  __HAL_RCC_GPIOB_CLK_ENABLE();
 80015c2:	2202      	movs	r2, #2
  __HAL_RCC_GPIOA_CLK_ENABLE();
 80015c4:	2701      	movs	r7, #1
  HAL_GPIO_WritePin(PWM_Enable_GPIO_Port, PWM_Enable_Pin, GPIO_PIN_RESET);
 80015c6:	2680      	movs	r6, #128	@ 0x80
 80015c8:	20a0      	movs	r0, #160	@ 0xa0
  __HAL_RCC_GPIOB_CLK_ENABLE();
 80015ca:	4cb8      	ldr	r4, [pc, #736]	@ (80018ac <main+0x300>)
  HAL_GPIO_WritePin(PWM_Enable_GPIO_Port, PWM_Enable_Pin, GPIO_PIN_RESET);
 80015cc:	0176      	lsls	r6, r6, #5
  __HAL_RCC_GPIOB_CLK_ENABLE();
 80015ce:	6b63      	ldr	r3, [r4, #52]	@ 0x34
  HAL_GPIO_WritePin(PWM_Enable_GPIO_Port, PWM_Enable_Pin, GPIO_PIN_RESET);
 80015d0:	0031      	movs	r1, r6
  __HAL_RCC_GPIOB_CLK_ENABLE();
 80015d2:	4313      	orrs	r3, r2
 80015d4:	6363      	str	r3, [r4, #52]	@ 0x34
 80015d6:	6b63      	ldr	r3, [r4, #52]	@ 0x34
  HAL_GPIO_WritePin(PWM_Enable_GPIO_Port, PWM_Enable_Pin, GPIO_PIN_RESET);
 80015d8:	05c0      	lsls	r0, r0, #23
  __HAL_RCC_GPIOB_CLK_ENABLE();
 80015da:	4013      	ands	r3, r2
 80015dc:	9302      	str	r3, [sp, #8]
 80015de:	9b02      	ldr	r3, [sp, #8]
  __HAL_RCC_GPIOC_CLK_ENABLE();
 80015e0:	6b63      	ldr	r3, [r4, #52]	@ 0x34
 80015e2:	1892      	adds	r2, r2, r2
 80015e4:	4313      	orrs	r3, r2
 80015e6:	6363      	str	r3, [r4, #52]	@ 0x34
 80015e8:	6b63      	ldr	r3, [r4, #52]	@ 0x34
  GPIO_InitStruct.Mode = GPIO_MODE_INPUT;
 80015ea:	2500      	movs	r5, #0
  __HAL_RCC_GPIOC_CLK_ENABLE();
 80015ec:	4013      	ands	r3, r2
 80015ee:	9303      	str	r3, [sp, #12]
 80015f0:	9b03      	ldr	r3, [sp, #12]
  __HAL_RCC_GPIOA_CLK_ENABLE();
 80015f2:	6b63      	ldr	r3, [r4, #52]	@ 0x34
  HAL_GPIO_WritePin(PWM_Enable_GPIO_Port, PWM_Enable_Pin, GPIO_PIN_RESET);
 80015f4:	2200      	movs	r2, #0
  __HAL_RCC_GPIOA_CLK_ENABLE();
 80015f6:	433b      	orrs	r3, r7
 80015f8:	6363      	str	r3, [r4, #52]	@ 0x34
 80015fa:	6b63      	ldr	r3, [r4, #52]	@ 0x34
 80015fc:	403b      	ands	r3, r7
 80015fe:	9304      	str	r3, [sp, #16]
 8001600:	9b04      	ldr	r3, [sp, #16]
  HAL_GPIO_WritePin(PWM_Enable_GPIO_Port, PWM_Enable_Pin, GPIO_PIN_RESET);
 8001602:	f001 fa9f 	bl	8002b44 <HAL_GPIO_WritePin>
  GPIO_InitStruct.Pin = Trigger_Pin;
 8001606:	2380      	movs	r3, #128	@ 0x80
  HAL_GPIO_Init(Trigger_GPIO_Port, &GPIO_InitStruct);
 8001608:	48a9      	ldr	r0, [pc, #676]	@ (80018b0 <main+0x304>)
  GPIO_InitStruct.Pin = Trigger_Pin;
 800160a:	021b      	lsls	r3, r3, #8
  HAL_GPIO_Init(Trigger_GPIO_Port, &GPIO_InitStruct);
 800160c:	a913      	add	r1, sp, #76	@ 0x4c
  GPIO_InitStruct.Pin = Trigger_Pin;
 800160e:	9313      	str	r3, [sp, #76]	@ 0x4c
  GPIO_InitStruct.Mode = GPIO_MODE_INPUT;
 8001610:	9514      	str	r5, [sp, #80]	@ 0x50
  GPIO_InitStruct.Pull = GPIO_PULLUP;
 8001612:	9715      	str	r7, [sp, #84]	@ 0x54
  HAL_GPIO_Init(Trigger_GPIO_Port, &GPIO_InitStruct);
 8001614:	f001 f9de 	bl	80029d4 <HAL_GPIO_Init>
  HAL_GPIO_Init(PWM_Enable_GPIO_Port, &GPIO_InitStruct);
 8001618:	20a0      	movs	r0, #160	@ 0xa0
 800161a:	a913      	add	r1, sp, #76	@ 0x4c
 800161c:	05c0      	lsls	r0, r0, #23
  GPIO_InitStruct.Pin = PWM_Enable_Pin;
 800161e:	9613      	str	r6, [sp, #76]	@ 0x4c
  GPIO_InitStruct.Mode = GPIO_MODE_OUTPUT_PP;
 8001620:	9714      	str	r7, [sp, #80]	@ 0x50
  GPIO_InitStruct.Pull = GPIO_NOPULL;
 8001622:	9515      	str	r5, [sp, #84]	@ 0x54
  GPIO_InitStruct.Speed = GPIO_SPEED_FREQ_LOW;
 8001624:	9516      	str	r5, [sp, #88]	@ 0x58
  HAL_GPIO_Init(PWM_Enable_GPIO_Port, &GPIO_InitStruct);
 8001626:	f001 f9d5 	bl	80029d4 <HAL_GPIO_Init>
  __HAL_RCC_DMA1_CLK_ENABLE();
 800162a:	6ba3      	ldr	r3, [r4, #56]	@ 0x38
  HAL_NVIC_SetPriority(DMA1_Channel1_IRQn, 0, 0);
 800162c:	002a      	movs	r2, r5
  __HAL_RCC_DMA1_CLK_ENABLE();
 800162e:	433b      	orrs	r3, r7
 8001630:	63a3      	str	r3, [r4, #56]	@ 0x38
 8001632:	6ba3      	ldr	r3, [r4, #56]	@ 0x38
  HAL_NVIC_SetPriority(DMA1_Channel1_IRQn, 0, 0);
 8001634:	0029      	movs	r1, r5
  __HAL_RCC_DMA1_CLK_ENABLE();
 8001636:	403b      	ands	r3, r7
  HAL_NVIC_SetPriority(DMA1_Channel1_IRQn, 0, 0);
 8001638:	2009      	movs	r0, #9
  __HAL_RCC_DMA1_CLK_ENABLE();
 800163a:	9301      	str	r3, [sp, #4]
 800163c:	9b01      	ldr	r3, [sp, #4]
  HAL_NVIC_SetPriority(DMA1_Channel1_IRQn, 0, 0);
 800163e:	f001 f873 	bl	8002728 <HAL_NVIC_SetPriority>
  HAL_NVIC_EnableIRQ(DMA1_Channel1_IRQn);
 8001642:	2009      	movs	r0, #9
 8001644:	f001 f89a 	bl	800277c <HAL_NVIC_EnableIRQ>
  ADC_ChannelConfTypeDef sConfig = {0};
 8001648:	220c      	movs	r2, #12
 800164a:	0029      	movs	r1, r5
 800164c:	a813      	add	r0, sp, #76	@ 0x4c
 800164e:	f003 fc25 	bl	8004e9c <memset>
  hadc1.Instance = ADC1;
 8001652:	4c98      	ldr	r4, [pc, #608]	@ (80018b4 <main+0x308>)
 8001654:	4b98      	ldr	r3, [pc, #608]	@ (80018b8 <main+0x30c>)
  if (HAL_ADC_Init(&hadc1) != HAL_OK)
 8001656:	0020      	movs	r0, r4
  hadc1.Instance = ADC1;
 8001658:	6023      	str	r3, [r4, #0]
  hadc1.Init.ClockPrescaler = ADC_CLOCK_SYNC_PCLK_DIV2;
 800165a:	2380      	movs	r3, #128	@ 0x80
 800165c:	05db      	lsls	r3, r3, #23
 800165e:	6063      	str	r3, [r4, #4]
  hadc1.Init.EOCSelection = ADC_EOC_SEQ_CONV;
 8001660:	2308      	movs	r3, #8
 8001662:	6163      	str	r3, [r4, #20]
  hadc1.Init.DMAContinuousRequests = DISABLE;
 8001664:	0023      	movs	r3, r4
 8001666:	332c      	adds	r3, #44	@ 0x2c
 8001668:	701d      	strb	r5, [r3, #0]
  hadc1.Init.OversamplingMode = DISABLE;
 800166a:	0023      	movs	r3, r4
 800166c:	333c      	adds	r3, #60	@ 0x3c
  hadc1.Init.Resolution = ADC_RESOLUTION_12B;
 800166e:	60a5      	str	r5, [r4, #8]
  hadc1.Init.DataAlign = ADC_DATAALIGN_RIGHT;
 8001670:	60e5      	str	r5, [r4, #12]
  hadc1.Init.ScanConvMode = ADC_SCAN_DISABLE;
 8001672:	6125      	str	r5, [r4, #16]
  hadc1.Init.LowPowerAutoWait = DISABLE;
 8001674:	8325      	strh	r5, [r4, #24]
  hadc1.Init.ContinuousConvMode = ENABLE;
 8001676:	76a7      	strb	r7, [r4, #26]
  hadc1.Init.NbrOfConversion = 1;
 8001678:	61e7      	str	r7, [r4, #28]
  hadc1.Init.ExternalTrigConv = ADC_SOFTWARE_START;
 800167a:	6265      	str	r5, [r4, #36]	@ 0x24
  hadc1.Init.ExternalTrigConvEdge = ADC_EXTERNALTRIGCONVEDGE_NONE;
 800167c:	62a5      	str	r5, [r4, #40]	@ 0x28
  hadc1.Init.Overrun = ADC_OVR_DATA_PRESERVED;
 800167e:	6325      	str	r5, [r4, #48]	@ 0x30
  hadc1.Init.SamplingTimeCommon1 = ADC_SAMPLETIME_1CYCLE_5;
 8001680:	6365      	str	r5, [r4, #52]	@ 0x34
  hadc1.Init.SamplingTimeCommon2 = ADC_SAMPLETIME_1CYCLE_5;
 8001682:	63a5      	str	r5, [r4, #56]	@ 0x38
  hadc1.Init.OversamplingMode = DISABLE;
 8001684:	701d      	strb	r5, [r3, #0]
  hadc1.Init.TriggerFrequencyMode = ADC_TRIGGER_FREQ_HIGH;
 8001686:	64e5      	str	r5, [r4, #76]	@ 0x4c
  if (HAL_ADC_Init(&hadc1) != HAL_OK)
 8001688:	f000 fd64 	bl	8002154 <HAL_ADC_Init>
 800168c:	42a8      	cmp	r0, r5
 800168e:	d001      	beq.n	8001694 <main+0xe8>
 8001690:	b672      	cpsid	i
  while (1)
 8001692:	e7fe      	b.n	8001692 <main+0xe6>
  sConfig.Rank = ADC_REGULAR_RANK_1;
 8001694:	9014      	str	r0, [sp, #80]	@ 0x50
  sConfig.SamplingTime = ADC_SAMPLINGTIME_COMMON_1;
 8001696:	9015      	str	r0, [sp, #84]	@ 0x54
  if (HAL_ADC_ConfigChannel(&hadc1, &sConfig) != HAL_OK)
 8001698:	a913      	add	r1, sp, #76	@ 0x4c
 800169a:	0020      	movs	r0, r4
  sConfig.Channel = ADC_CHANNEL_0;
 800169c:	9713      	str	r7, [sp, #76]	@ 0x4c
  if (HAL_ADC_ConfigChannel(&hadc1, &sConfig) != HAL_OK)
 800169e:	f000 ff1b 	bl	80024d8 <HAL_ADC_ConfigChannel>
 80016a2:	2800      	cmp	r0, #0
 80016a4:	d001      	beq.n	80016aa <main+0xfe>
 80016a6:	b672      	cpsid	i
  while (1)
 80016a8:	e7fe      	b.n	80016a8 <main+0xfc>
  hi2c1.Instance = I2C1;
 80016aa:	4c84      	ldr	r4, [pc, #528]	@ (80018bc <main+0x310>)
 80016ac:	4b84      	ldr	r3, [pc, #528]	@ (80018c0 <main+0x314>)
  hi2c1.Init.OwnAddress1 = 0;
 80016ae:	60a0      	str	r0, [r4, #8]
  hi2c1.Instance = I2C1;
 80016b0:	6023      	str	r3, [r4, #0]
  hi2c1.Init.Timing = 0x00C12166;
 80016b2:	4b84      	ldr	r3, [pc, #528]	@ (80018c4 <main+0x318>)
  hi2c1.Init.DualAddressMode = I2C_DUALADDRESS_DISABLE;
 80016b4:	6120      	str	r0, [r4, #16]
  hi2c1.Init.OwnAddress2 = 0;
 80016b6:	6160      	str	r0, [r4, #20]
  hi2c1.Init.OwnAddress2Masks = I2C_OA2_NOMASK;
 80016b8:	61a0      	str	r0, [r4, #24]
  hi2c1.Init.GeneralCallMode = I2C_GENERALCALL_DISABLE;
 80016ba:	61e0      	str	r0, [r4, #28]
  hi2c1.Init.NoStretchMode = I2C_NOSTRETCH_DISABLE;
 80016bc:	6220      	str	r0, [r4, #32]
  if (HAL_I2C_Init(&hi2c1) != HAL_OK)
 80016be:	0020      	movs	r0, r4
  hi2c1.Init.Timing = 0x00C12166;
 80016c0:	6063      	str	r3, [r4, #4]
  hi2c1.Init.AddressingMode = I2C_ADDRESSINGMODE_7BIT;
 80016c2:	60e7      	str	r7, [r4, #12]
  if (HAL_I2C_Init(&hi2c1) != HAL_OK)
 80016c4:	f001 fbda 	bl	8002e7c <HAL_I2C_Init>
 80016c8:	1e01      	subs	r1, r0, #0
 80016ca:	d001      	beq.n	80016d0 <main+0x124>
 80016cc:	b672      	cpsid	i
  while (1)
 80016ce:	e7fe      	b.n	80016ce <main+0x122>
  if (HAL_I2CEx_ConfigAnalogFilter(&hi2c1, I2C_ANALOGFILTER_ENABLE) != HAL_OK)
 80016d0:	0020      	movs	r0, r4
 80016d2:	f002 fb6d 	bl	8003db0 <HAL_I2CEx_ConfigAnalogFilter>
 80016d6:	1e01      	subs	r1, r0, #0
 80016d8:	d001      	beq.n	80016de <main+0x132>
 80016da:	b672      	cpsid	i
  while (1)
 80016dc:	e7fe      	b.n	80016dc <main+0x130>
  if (HAL_I2CEx_ConfigDigitalFilter(&hi2c1, 0) != HAL_OK)
 80016de:	0020      	movs	r0, r4
 80016e0:	f002 fb8c 	bl	8003dfc <HAL_I2CEx_ConfigDigitalFilter>
 80016e4:	1e05      	subs	r5, r0, #0
 80016e6:	d001      	beq.n	80016ec <main+0x140>
 80016e8:	b672      	cpsid	i
  while (1)
 80016ea:	e7fe      	b.n	80016ea <main+0x13e>
  TIM_ClockConfigTypeDef sClockSourceConfig = {0};
 80016ec:	0001      	movs	r1, r0
 80016ee:	2210      	movs	r2, #16
 80016f0:	a808      	add	r0, sp, #32
 80016f2:	f003 fbd3 	bl	8004e9c <memset>
  TIM_MasterConfigTypeDef sMasterConfig = {0};
 80016f6:	220c      	movs	r2, #12
 80016f8:	0029      	movs	r1, r5
 80016fa:	a805      	add	r0, sp, #20
 80016fc:	f003 fbce 	bl	8004e9c <memset>
  TIM_OC_InitTypeDef sConfigOC = {0};
 8001700:	221c      	movs	r2, #28
 8001702:	0029      	movs	r1, r5
 8001704:	a80c      	add	r0, sp, #48	@ 0x30
 8001706:	f003 fbc9 	bl	8004e9c <memset>
  TIM_BreakDeadTimeConfigTypeDef sBreakDeadTimeConfig = {0};
 800170a:	2234      	movs	r2, #52	@ 0x34
 800170c:	0029      	movs	r1, r5
 800170e:	a813      	add	r0, sp, #76	@ 0x4c
 8001710:	f003 fbc4 	bl	8004e9c <memset>
  htim1.Instance = TIM1;
 8001714:	4c6c      	ldr	r4, [pc, #432]	@ (80018c8 <main+0x31c>)
 8001716:	4b6d      	ldr	r3, [pc, #436]	@ (80018cc <main+0x320>)
  if (HAL_TIM_Base_Init(&htim1) != HAL_OK)
 8001718:	0020      	movs	r0, r4
  htim1.Instance = TIM1;
 800171a:	6023      	str	r3, [r4, #0]
  htim1.Init.Period = 2047;
 800171c:	4b6c      	ldr	r3, [pc, #432]	@ (80018d0 <main+0x324>)
  htim1.Init.Prescaler = 0;
 800171e:	6065      	str	r5, [r4, #4]
  htim1.Init.Period = 2047;
 8001720:	60e3      	str	r3, [r4, #12]
  htim1.Init.AutoReloadPreload = TIM_AUTORELOAD_PRELOAD_ENABLE;
 8001722:	2380      	movs	r3, #128	@ 0x80
  htim1.Init.CounterMode = TIM_COUNTERMODE_UP;
 8001724:	60a5      	str	r5, [r4, #8]
  htim1.Init.ClockDivision = TIM_CLOCKDIVISION_DIV1;
 8001726:	6125      	str	r5, [r4, #16]
  htim1.Init.RepetitionCounter = 0;
 8001728:	6165      	str	r5, [r4, #20]
  htim1.Init.AutoReloadPreload = TIM_AUTORELOAD_PRELOAD_ENABLE;
 800172a:	61a3      	str	r3, [r4, #24]
  if (HAL_TIM_Base_Init(&htim1) != HAL_OK)
 800172c:	f003 f908 	bl	8004940 <HAL_TIM_Base_Init>
 8001730:	2800      	cmp	r0, #0
 8001732:	d001      	beq.n	8001738 <main+0x18c>
 8001734:	b672      	cpsid	i
  while (1)
 8001736:	e7fe      	b.n	8001736 <main+0x18a>
  if (HAL_TIM_ConfigClockSource(&htim1, &sClockSourceConfig) != HAL_OK)
 8001738:	0020      	movs	r0, r4
 800173a:	a908      	add	r1, sp, #32
  sClockSourceConfig.ClockSource = TIM_CLOCKSOURCE_INTERNAL;
 800173c:	9608      	str	r6, [sp, #32]
  if (HAL_TIM_ConfigClockSource(&htim1, &sClockSourceConfig) != HAL_OK)
 800173e:	f003 fa23 	bl	8004b88 <HAL_TIM_ConfigClockSource>
 8001742:	2800      	cmp	r0, #0
 8001744:	d001      	beq.n	800174a <main+0x19e>
 8001746:	b672      	cpsid	i
  while (1)
 8001748:	e7fe      	b.n	8001748 <main+0x19c>
  if (HAL_TIM_PWM_Init(&htim1) != HAL_OK)
 800174a:	0020      	movs	r0, r4
 800174c:	f003 f922 	bl	8004994 <HAL_TIM_PWM_Init>
 8001750:	2800      	cmp	r0, #0
 8001752:	d001      	beq.n	8001758 <main+0x1ac>
 8001754:	b672      	cpsid	i
  while (1)
 8001756:	e7fe      	b.n	8001756 <main+0x1aa>
  sMasterConfig.MasterOutputTrigger = TIM_TRGO_RESET;
 8001758:	9005      	str	r0, [sp, #20]
  sMasterConfig.MasterOutputTrigger2 = TIM_TRGO2_RESET;
 800175a:	9006      	str	r0, [sp, #24]
  sMasterConfig.MasterSlaveMode = TIM_MASTERSLAVEMODE_DISABLE;
 800175c:	9007      	str	r0, [sp, #28]
  if (HAL_TIMEx_MasterConfigSynchronization(&htim1, &sMasterConfig) != HAL_OK)
 800175e:	a905      	add	r1, sp, #20
 8001760:	0020      	movs	r0, r4
 8001762:	f003 fb0d 	bl	8004d80 <HAL_TIMEx_MasterConfigSynchronization>
 8001766:	1e02      	subs	r2, r0, #0
 8001768:	d001      	beq.n	800176e <main+0x1c2>
 800176a:	b672      	cpsid	i
  while (1)
 800176c:	e7fe      	b.n	800176c <main+0x1c0>
  sConfigOC.OCMode = TIM_OCMODE_PWM1;
 800176e:	2360      	movs	r3, #96	@ 0x60
 8001770:	930c      	str	r3, [sp, #48]	@ 0x30
  sConfigOC.Pulse = 1024;
 8001772:	2380      	movs	r3, #128	@ 0x80
  sConfigOC.OCPolarity = TIM_OCPOLARITY_HIGH;
 8001774:	900e      	str	r0, [sp, #56]	@ 0x38
  sConfigOC.Pulse = 1024;
 8001776:	00db      	lsls	r3, r3, #3
  sConfigOC.OCNPolarity = TIM_OCNPOLARITY_HIGH;
 8001778:	900f      	str	r0, [sp, #60]	@ 0x3c
  sConfigOC.OCFastMode = TIM_OCFAST_DISABLE;
 800177a:	9010      	str	r0, [sp, #64]	@ 0x40
  sConfigOC.OCIdleState = TIM_OCIDLESTATE_RESET;
 800177c:	9011      	str	r0, [sp, #68]	@ 0x44
  sConfigOC.OCNIdleState = TIM_OCNIDLESTATE_RESET;
 800177e:	9012      	str	r0, [sp, #72]	@ 0x48
  if (HAL_TIM_PWM_ConfigChannel(&htim1, &sConfigOC, TIM_CHANNEL_1) != HAL_OK)
 8001780:	a90c      	add	r1, sp, #48	@ 0x30
 8001782:	0020      	movs	r0, r4
  sConfigOC.Pulse = 1024;
 8001784:	930d      	str	r3, [sp, #52]	@ 0x34
  if (HAL_TIM_PWM_ConfigChannel(&htim1, &sConfigOC, TIM_CHANNEL_1) != HAL_OK)
 8001786:	f003 f96d 	bl	8004a64 <HAL_TIM_PWM_ConfigChannel>
 800178a:	2800      	cmp	r0, #0
 800178c:	d001      	beq.n	8001792 <main+0x1e6>
 800178e:	b672      	cpsid	i
  while (1)
 8001790:	e7fe      	b.n	8001790 <main+0x1e4>
  if (HAL_TIM_PWM_ConfigChannel(&htim1, &sConfigOC, TIM_CHANNEL_2) != HAL_OK)
 8001792:	2204      	movs	r2, #4
 8001794:	0020      	movs	r0, r4
 8001796:	a90c      	add	r1, sp, #48	@ 0x30
 8001798:	f003 f964 	bl	8004a64 <HAL_TIM_PWM_ConfigChannel>
 800179c:	2800      	cmp	r0, #0
 800179e:	d001      	beq.n	80017a4 <main+0x1f8>
 80017a0:	b672      	cpsid	i
  while (1)
 80017a2:	e7fe      	b.n	80017a2 <main+0x1f6>
  if (HAL_TIM_PWM_ConfigChannel(&htim1, &sConfigOC, TIM_CHANNEL_4) != HAL_OK)
 80017a4:	220c      	movs	r2, #12
 80017a6:	0020      	movs	r0, r4
 80017a8:	a90c      	add	r1, sp, #48	@ 0x30
 80017aa:	f003 f95b 	bl	8004a64 <HAL_TIM_PWM_ConfigChannel>
 80017ae:	2800      	cmp	r0, #0
 80017b0:	d001      	beq.n	80017b6 <main+0x20a>
 80017b2:	b672      	cpsid	i
  while (1)
 80017b4:	e7fe      	b.n	80017b4 <main+0x208>
  sBreakDeadTimeConfig.BreakPolarity = TIM_BREAKPOLARITY_HIGH;
 80017b6:	2580      	movs	r5, #128	@ 0x80
  sBreakDeadTimeConfig.Break2Polarity = TIM_BREAK2POLARITY_HIGH;
 80017b8:	2380      	movs	r3, #128	@ 0x80
  sBreakDeadTimeConfig.OffStateRunMode = TIM_OSSR_DISABLE;
 80017ba:	9013      	str	r0, [sp, #76]	@ 0x4c
  sBreakDeadTimeConfig.OffStateIDLEMode = TIM_OSSI_DISABLE;
 80017bc:	9014      	str	r0, [sp, #80]	@ 0x50
  sBreakDeadTimeConfig.LockLevel = TIM_LOCKLEVEL_OFF;
 80017be:	9015      	str	r0, [sp, #84]	@ 0x54
  sBreakDeadTimeConfig.DeadTime = 0;
 80017c0:	9016      	str	r0, [sp, #88]	@ 0x58
  sBreakDeadTimeConfig.BreakState = TIM_BREAK_DISABLE;
 80017c2:	9017      	str	r0, [sp, #92]	@ 0x5c
  sBreakDeadTimeConfig.BreakFilter = 0;
 80017c4:	9019      	str	r0, [sp, #100]	@ 0x64
  sBreakDeadTimeConfig.BreakAFMode = TIM_BREAK_AFMODE_INPUT;
 80017c6:	901a      	str	r0, [sp, #104]	@ 0x68
  sBreakDeadTimeConfig.Break2State = TIM_BREAK2_DISABLE;
 80017c8:	901b      	str	r0, [sp, #108]	@ 0x6c
  sBreakDeadTimeConfig.Break2Polarity = TIM_BREAK2POLARITY_HIGH;
 80017ca:	049b      	lsls	r3, r3, #18
  sBreakDeadTimeConfig.Break2Filter = 0;
 80017cc:	901d      	str	r0, [sp, #116]	@ 0x74
  sBreakDeadTimeConfig.Break2AFMode = TIM_BREAK_AFMODE_INPUT;
 80017ce:	901e      	str	r0, [sp, #120]	@ 0x78
  sBreakDeadTimeConfig.AutomaticOutput = TIM_AUTOMATICOUTPUT_DISABLE;
 80017d0:	901f      	str	r0, [sp, #124]	@ 0x7c
  sBreakDeadTimeConfig.BreakPolarity = TIM_BREAKPOLARITY_HIGH;
 80017d2:	01ad      	lsls	r5, r5, #6
  if (HAL_TIMEx_ConfigBreakDeadTime(&htim1, &sBreakDeadTimeConfig) != HAL_OK)
 80017d4:	0020      	movs	r0, r4
 80017d6:	a913      	add	r1, sp, #76	@ 0x4c
  sBreakDeadTimeConfig.BreakPolarity = TIM_BREAKPOLARITY_HIGH;
 80017d8:	9518      	str	r5, [sp, #96]	@ 0x60
  sBreakDeadTimeConfig.Break2Polarity = TIM_BREAK2POLARITY_HIGH;
 80017da:	931c      	str	r3, [sp, #112]	@ 0x70
  if (HAL_TIMEx_ConfigBreakDeadTime(&htim1, &sBreakDeadTimeConfig) != HAL_OK)
 80017dc:	f003 fb00 	bl	8004de0 <HAL_TIMEx_ConfigBreakDeadTime>
 80017e0:	1e06      	subs	r6, r0, #0
 80017e2:	d001      	beq.n	80017e8 <main+0x23c>
 80017e4:	b672      	cpsid	i
  while (1)
 80017e6:	e7fe      	b.n	80017e6 <main+0x23a>
  HAL_TIM_MspPostInit(&htim1);
 80017e8:	0020      	movs	r0, r4
 80017ea:	f000 fbbb 	bl	8001f64 <HAL_TIM_MspPostInit>
  TIM_OC_InitTypeDef sConfigOC = {0};
 80017ee:	221c      	movs	r2, #28
 80017f0:	0031      	movs	r1, r6
 80017f2:	a80c      	add	r0, sp, #48	@ 0x30
 80017f4:	f003 fb52 	bl	8004e9c <memset>
  TIM_BreakDeadTimeConfigTypeDef sBreakDeadTimeConfig = {0};
 80017f8:	2234      	movs	r2, #52	@ 0x34
 80017fa:	0031      	movs	r1, r6
 80017fc:	a813      	add	r0, sp, #76	@ 0x4c
 80017fe:	f003 fb4d 	bl	8004e9c <memset>
  htim16.Instance = TIM16;
 8001802:	4c34      	ldr	r4, [pc, #208]	@ (80018d4 <main+0x328>)
 8001804:	4b34      	ldr	r3, [pc, #208]	@ (80018d8 <main+0x32c>)
  if (HAL_TIM_Base_Init(&htim16) != HAL_OK)
 8001806:	0020      	movs	r0, r4
  htim16.Instance = TIM16;
 8001808:	6023      	str	r3, [r4, #0]
  htim16.Init.Prescaler = 64;
 800180a:	2340      	movs	r3, #64	@ 0x40
 800180c:	6063      	str	r3, [r4, #4]
  htim16.Init.Period = 20000;
 800180e:	4b33      	ldr	r3, [pc, #204]	@ (80018dc <main+0x330>)
  htim16.Init.CounterMode = TIM_COUNTERMODE_UP;
 8001810:	60a6      	str	r6, [r4, #8]
  htim16.Init.Period = 20000;
 8001812:	60e3      	str	r3, [r4, #12]
  htim16.Init.AutoReloadPreload = TIM_AUTORELOAD_PRELOAD_ENABLE;
 8001814:	2380      	movs	r3, #128	@ 0x80
  htim16.Init.ClockDivision = TIM_CLOCKDIVISION_DIV1;
 8001816:	6126      	str	r6, [r4, #16]
  htim16.Init.RepetitionCounter = 0;
 8001818:	6166      	str	r6, [r4, #20]
  htim16.Init.AutoReloadPreload = TIM_AUTORELOAD_PRELOAD_ENABLE;
 800181a:	61a3      	str	r3, [r4, #24]
  if (HAL_TIM_Base_Init(&htim16) != HAL_OK)
 800181c:	f003 f890 	bl	8004940 <HAL_TIM_Base_Init>
 8001820:	2800      	cmp	r0, #0
 8001822:	d001      	beq.n	8001828 <main+0x27c>
 8001824:	b672      	cpsid	i
  while (1)
 8001826:	e7fe      	b.n	8001826 <main+0x27a>
  if (HAL_TIM_PWM_Init(&htim16) != HAL_OK)
 8001828:	0020      	movs	r0, r4
 800182a:	f003 f8b3 	bl	8004994 <HAL_TIM_PWM_Init>
 800182e:	1e02      	subs	r2, r0, #0
 8001830:	d001      	beq.n	8001836 <main+0x28a>
 8001832:	b672      	cpsid	i
  while (1)
 8001834:	e7fe      	b.n	8001834 <main+0x288>
  sConfigOC.OCMode = TIM_OCMODE_PWM1;
 8001836:	2360      	movs	r3, #96	@ 0x60
 8001838:	930c      	str	r3, [sp, #48]	@ 0x30
  sConfigOC.Pulse = 540;
 800183a:	33bd      	adds	r3, #189	@ 0xbd
 800183c:	33ff      	adds	r3, #255	@ 0xff
  sConfigOC.OCPolarity = TIM_OCPOLARITY_HIGH;
 800183e:	900e      	str	r0, [sp, #56]	@ 0x38
  sConfigOC.OCNPolarity = TIM_OCNPOLARITY_HIGH;
 8001840:	900f      	str	r0, [sp, #60]	@ 0x3c
  sConfigOC.OCFastMode = TIM_OCFAST_DISABLE;
 8001842:	9010      	str	r0, [sp, #64]	@ 0x40
  sConfigOC.OCIdleState = TIM_OCIDLESTATE_RESET;
 8001844:	9011      	str	r0, [sp, #68]	@ 0x44
  sConfigOC.OCNIdleState = TIM_OCNIDLESTATE_RESET;
 8001846:	9012      	str	r0, [sp, #72]	@ 0x48
  if (HAL_TIM_PWM_ConfigChannel(&htim16, &sConfigOC, TIM_CHANNEL_1) != HAL_OK)
 8001848:	a90c      	add	r1, sp, #48	@ 0x30
 800184a:	0020      	movs	r0, r4
  sConfigOC.Pulse = 540;
 800184c:	930d      	str	r3, [sp, #52]	@ 0x34
  if (HAL_TIM_PWM_ConfigChannel(&htim16, &sConfigOC, TIM_CHANNEL_1) != HAL_OK)
 800184e:	f003 f909 	bl	8004a64 <HAL_TIM_PWM_ConfigChannel>
 8001852:	2800      	cmp	r0, #0
 8001854:	d001      	beq.n	800185a <main+0x2ae>
 8001856:	b672      	cpsid	i
  while (1)
 8001858:	e7fe      	b.n	8001858 <main+0x2ac>
  sBreakDeadTimeConfig.OffStateRunMode = TIM_OSSR_DISABLE;
 800185a:	9013      	str	r0, [sp, #76]	@ 0x4c
  sBreakDeadTimeConfig.OffStateIDLEMode = TIM_OSSI_DISABLE;
 800185c:	9014      	str	r0, [sp, #80]	@ 0x50
  sBreakDeadTimeConfig.LockLevel = TIM_LOCKLEVEL_OFF;
 800185e:	9015      	str	r0, [sp, #84]	@ 0x54
  sBreakDeadTimeConfig.DeadTime = 0;
 8001860:	9016      	str	r0, [sp, #88]	@ 0x58
  sBreakDeadTimeConfig.BreakState = TIM_BREAK_DISABLE;
 8001862:	9017      	str	r0, [sp, #92]	@ 0x5c
  sBreakDeadTimeConfig.BreakFilter = 0;
 8001864:	9019      	str	r0, [sp, #100]	@ 0x64
  sBreakDeadTimeConfig.AutomaticOutput = TIM_AUTOMATICOUTPUT_DISABLE;
 8001866:	901f      	str	r0, [sp, #124]	@ 0x7c
  if (HAL_TIMEx_ConfigBreakDeadTime(&htim16, &sBreakDeadTimeConfig) != HAL_OK)
 8001868:	a913      	add	r1, sp, #76	@ 0x4c
 800186a:	0020      	movs	r0, r4
  sBreakDeadTimeConfig.BreakPolarity = TIM_BREAKPOLARITY_HIGH;
 800186c:	9518      	str	r5, [sp, #96]	@ 0x60
  if (HAL_TIMEx_ConfigBreakDeadTime(&htim16, &sBreakDeadTimeConfig) != HAL_OK)
 800186e:	f003 fab7 	bl	8004de0 <HAL_TIMEx_ConfigBreakDeadTime>
 8001872:	1e05      	subs	r5, r0, #0
 8001874:	d001      	beq.n	800187a <main+0x2ce>
 8001876:	b672      	cpsid	i
  while (1)
 8001878:	e7fe      	b.n	8001878 <main+0x2cc>
  HAL_TIM_MspPostInit(&htim16);
 800187a:	0020      	movs	r0, r4
 800187c:	f000 fb72 	bl	8001f64 <HAL_TIM_MspPostInit>
  htim17.Instance = TIM17;
 8001880:	4817      	ldr	r0, [pc, #92]	@ (80018e0 <main+0x334>)
 8001882:	4b18      	ldr	r3, [pc, #96]	@ (80018e4 <main+0x338>)
  htim17.Init.Prescaler = 0;
 8001884:	6045      	str	r5, [r0, #4]
  htim17.Instance = TIM17;
 8001886:	6003      	str	r3, [r0, #0]
  htim17.Init.Period = 65535;
 8001888:	4b17      	ldr	r3, [pc, #92]	@ (80018e8 <main+0x33c>)
  htim17.Init.CounterMode = TIM_COUNTERMODE_UP;
 800188a:	6085      	str	r5, [r0, #8]
  htim17.Init.Period = 65535;
 800188c:	60c3      	str	r3, [r0, #12]
  htim17.Init.ClockDivision = TIM_CLOCKDIVISION_DIV1;
 800188e:	6105      	str	r5, [r0, #16]
  htim17.Init.RepetitionCounter = 0;
 8001890:	6145      	str	r5, [r0, #20]
  htim17.Init.AutoReloadPreload = TIM_AUTORELOAD_PRELOAD_DISABLE;
 8001892:	6185      	str	r5, [r0, #24]
  if (HAL_TIM_Base_Init(&htim17) != HAL_OK)
 8001894:	f003 f854 	bl	8004940 <HAL_TIM_Base_Init>
 8001898:	2800      	cmp	r0, #0
 800189a:	d001      	beq.n	80018a0 <main+0x2f4>
 800189c:	b672      	cpsid	i
  while (1)
 800189e:	e7fe      	b.n	800189e <main+0x2f2>
  setup();
 80018a0:	f7ff fd40 	bl	8001324 <setup>
	  loop();
 80018a4:	f7ff fd8c 	bl	80013c0 <loop>
  while (1)
 80018a8:	e7fc      	b.n	80018a4 <main+0x2f8>
 80018aa:	46c0      	nop			@ (mov r8, r8)
 80018ac:	40021000 	.word	0x40021000
 80018b0:	50000800 	.word	0x50000800
 80018b4:	200001d8 	.word	0x200001d8
 80018b8:	40012400 	.word	0x40012400
 80018bc:	20000128 	.word	0x20000128
 80018c0:	40005400 	.word	0x40005400
 80018c4:	00c12166 	.word	0x00c12166
 80018c8:	200000dc 	.word	0x200000dc
 80018cc:	40012c00 	.word	0x40012c00
 80018d0:	000007ff 	.word	0x000007ff
 80018d4:	20000090 	.word	0x20000090
 80018d8:	40014400 	.word	0x40014400
 80018dc:	00004e20 	.word	0x00004e20
 80018e0:	20000044 	.word	0x20000044
 80018e4:	40014800 	.word	0x40014800
 80018e8:	0000ffff 	.word	0x0000ffff

080018ec <Error_Handler>:
 80018ec:	b672      	cpsid	i
  while (1)
 80018ee:	e7fe      	b.n	80018ee <Error_Handler+0x2>

080018f0 <initMotorControl>:
		return min;
	return input;
}

void initMotorControl()
{
 80018f0:	b570      	push	{r4, r5, r6, lr}
	// initialize AS5600 encoder
	AS5600_init(&hi2c1, AS5600_CONF_L_HYST_OFF | AS5600_CONF_L_OUTS_AN | AS5600_CONF_L_PM_NOM | AS5600_CONF_L_PWMF_115, AS5600_CONF_H_FTH_SLOW | AS5600_CONF_H_SF_2x | AS5600_CONF_L_HYST_OFF);

	// enable PWM generation
	htim1.Instance->CCR1 = 0;
 80018f2:	2400      	movs	r4, #0
	AS5600_init(&hi2c1, AS5600_CONF_L_HYST_OFF | AS5600_CONF_L_OUTS_AN | AS5600_CONF_L_PM_NOM | AS5600_CONF_L_PWMF_115, AS5600_CONF_H_FTH_SLOW | AS5600_CONF_H_SF_2x | AS5600_CONF_L_HYST_OFF);
 80018f4:	2203      	movs	r2, #3
 80018f6:	2100      	movs	r1, #0
 80018f8:	481c      	ldr	r0, [pc, #112]	@ (800196c <initMotorControl+0x7c>)
 80018fa:	f7ff fcf5 	bl	80012e8 <AS5600_init>
	htim1.Instance->CCR1 = 0;
 80018fe:	4d1c      	ldr	r5, [pc, #112]	@ (8001970 <initMotorControl+0x80>)
	htim1.Instance->CCR2 = 0;
	htim1.Instance->CCR4 = 0;
	HAL_TIM_PWM_Start(&htim1, TIM_CHANNEL_1);
 8001900:	0021      	movs	r1, r4
	htim1.Instance->CCR1 = 0;
 8001902:	682b      	ldr	r3, [r5, #0]
	HAL_TIM_PWM_Start(&htim1, TIM_CHANNEL_1);
 8001904:	0028      	movs	r0, r5
	htim1.Instance->CCR1 = 0;
 8001906:	635c      	str	r4, [r3, #52]	@ 0x34
	htim1.Instance->CCR2 = 0;
 8001908:	639c      	str	r4, [r3, #56]	@ 0x38
	htim1.Instance->CCR4 = 0;
 800190a:	641c      	str	r4, [r3, #64]	@ 0x40
	HAL_TIM_PWM_Start(&htim1, TIM_CHANNEL_1);
 800190c:	f003 fa34 	bl	8004d78 <HAL_TIM_PWM_Start>
	HAL_TIM_PWM_Start(&htim1, TIM_CHANNEL_2);
 8001910:	0028      	movs	r0, r5
 8001912:	2104      	movs	r1, #4
 8001914:	f003 fa30 	bl	8004d78 <HAL_TIM_PWM_Start>
	HAL_TIM_PWM_Start(&htim1, TIM_CHANNEL_4);
 8001918:	0028      	movs	r0, r5
 800191a:	210c      	movs	r1, #12
 800191c:	f003 fa2c 	bl	8004d78 <HAL_TIM_PWM_Start>

	moco.mode = POSITION_MODE;
 8001920:	2201      	movs	r2, #1
 8001922:	4b14      	ldr	r3, [pc, #80]	@ (8001974 <initMotorControl+0x84>)
 8001924:	701a      	strb	r2, [r3, #0]
	moco.encoder_offset = 120;
 8001926:	3277      	adds	r2, #119	@ 0x77
 8001928:	805a      	strh	r2, [r3, #2]
	moco.angle_cw = (2048/7)/4;
 800192a:	4a13      	ldr	r2, [pc, #76]	@ (8001978 <initMotorControl+0x88>)
	moco.phase_offset1 = 0;			// 2048 / 7 / 3 * 0
	moco.phase_offset2 = 98;		// 2048 / 7 / 3 * 1
	moco.phase_offset3 = 195;		// 2048 / 7 / 3 * 2
	moco.power = 0;
	moco.power_limit = 127;
	moco.position = 0;
 800192c:	611c      	str	r4, [r3, #16]
	moco.angle_cw = (2048/7)/4;
 800192e:	605a      	str	r2, [r3, #4]
	moco.phase_offset1 = 0;			// 2048 / 7 / 3 * 0
 8001930:	22c4      	movs	r2, #196	@ 0xc4
 8001932:	03d2      	lsls	r2, r2, #15
 8001934:	609a      	str	r2, [r3, #8]
	moco.phase_offset3 = 195;		// 2048 / 7 / 3 * 2
 8001936:	4a11      	ldr	r2, [pc, #68]	@ (800197c <initMotorControl+0x8c>)
	moco.target = 0;
 8001938:	619c      	str	r4, [r3, #24]
	moco.phase_offset3 = 195;		// 2048 / 7 / 3 * 2
 800193a:	60da      	str	r2, [r3, #12]
	moco.target_rpm = 800;
 800193c:	4a10      	ldr	r2, [pc, #64]	@ (8001980 <initMotorControl+0x90>)
	moco.direction = 0;
 800193e:	771c      	strb	r4, [r3, #28]
	moco.target_rpm = 800;
 8001940:	639a      	str	r2, [r3, #56]	@ 0x38
	moco.meas_angle = 0;
	moco.old_angle = 0;
	moco.angle_error = 0;
	moco.Kp = 3.0f;
 8001942:	4a10      	ldr	r2, [pc, #64]	@ (8001984 <initMotorControl+0x94>)
	moco.meas_angle = 0;
 8001944:	83dc      	strh	r4, [r3, #30]
	moco.Kp = 3.0f;
 8001946:	63da      	str	r2, [r3, #60]	@ 0x3c
	moco.Ki = 0.015f;
 8001948:	4a0f      	ldr	r2, [pc, #60]	@ (8001988 <initMotorControl+0x98>)
	moco.old_angle = 0;
 800194a:	621c      	str	r4, [r3, #32]
	moco.Ki = 0.015f;
 800194c:	641a      	str	r2, [r3, #64]	@ 0x40
	moco.Kd = 100.0f;
 800194e:	4a0f      	ldr	r2, [pc, #60]	@ (800198c <initMotorControl+0x9c>)
	moco.calibration = 0;
	moco.as5600_i2c_angle[0] = 0;
	moco.as5600_i2c_angle[1] = 0;
	moco.rpm = 0.0f;
	moco.rpm_oldPos = 0;
 8001950:	629c      	str	r4, [r3, #40]	@ 0x28
	moco.Kd = 100.0f;
 8001952:	645a      	str	r2, [r3, #68]	@ 0x44
	moco.calibration = 0;
 8001954:	001a      	movs	r2, r3
 8001956:	324e      	adds	r2, #78	@ 0x4e
 8001958:	8014      	strh	r4, [r2, #0]
	moco.as5600_i2c_angle[1] = 0;
 800195a:	001a      	movs	r2, r3
 800195c:	3250      	adds	r2, #80	@ 0x50
 800195e:	7014      	strb	r4, [r2, #0]
	moco.rpm = 0.0f;
 8001960:	2200      	movs	r2, #0
 8001962:	625a      	str	r2, [r3, #36]	@ 0x24
	moco.rpm_delayTimer = 0;
	moco.rpm_lowpass = 0.1;
 8001964:	4a0a      	ldr	r2, [pc, #40]	@ (8001990 <initMotorControl+0xa0>)
	moco.rpm_delayTimer = 0;
 8001966:	62dc      	str	r4, [r3, #44]	@ 0x2c
	moco.rpm_lowpass = 0.1;
 8001968:	635a      	str	r2, [r3, #52]	@ 0x34
}
 800196a:	bd70      	pop	{r4, r5, r6, pc}
 800196c:	20000128 	.word	0x20000128
 8001970:	200000dc 	.word	0x200000dc
 8001974:	20000244 	.word	0x20000244
 8001978:	00db0049 	.word	0x00db0049
 800197c:	7f0000c3 	.word	0x7f0000c3
 8001980:	44480000 	.word	0x44480000
 8001984:	40400000 	.word	0x40400000
 8001988:	3c75c28f 	.word	0x3c75c28f
 800198c:	42c80000 	.word	0x42c80000
 8001990:	3dcccccd 	.word	0x3dcccccd

08001994 <HAL_I2C_MemRxCpltCallback>:
	}
}

void HAL_I2C_MemRxCpltCallback(I2C_HandleTypeDef *I2cHandle)
{
	__HAL_I2C_CLEAR_FLAG(I2cHandle, I2C_FLAG_RXNE);
 8001994:	2204      	movs	r2, #4
	moco.meas_angle = (moco.as5600_i2c_angle[1] + (((uint16_t)moco.as5600_i2c_angle[0] & 0x0F) << 8))/2;
 8001996:	21f0      	movs	r1, #240	@ 0xf0
	__HAL_I2C_CLEAR_FLAG(I2cHandle, I2C_FLAG_RXNE);
 8001998:	6803      	ldr	r3, [r0, #0]
	moco.meas_angle = (moco.as5600_i2c_angle[1] + (((uint16_t)moco.as5600_i2c_angle[0] & 0x0F) << 8))/2;
 800199a:	0109      	lsls	r1, r1, #4
	__HAL_I2C_CLEAR_FLAG(I2cHandle, I2C_FLAG_RXNE);
 800199c:	61da      	str	r2, [r3, #28]
	moco.meas_angle = (moco.as5600_i2c_angle[1] + (((uint16_t)moco.as5600_i2c_angle[0] & 0x0F) << 8))/2;
 800199e:	4b07      	ldr	r3, [pc, #28]	@ (80019bc <HAL_I2C_MemRxCpltCallback+0x28>)
 80019a0:	4a07      	ldr	r2, [pc, #28]	@ (80019c0 <HAL_I2C_MemRxCpltCallback+0x2c>)
 80019a2:	781b      	ldrb	r3, [r3, #0]
 80019a4:	021b      	lsls	r3, r3, #8
 80019a6:	400b      	ands	r3, r1
 80019a8:	0011      	movs	r1, r2
 80019aa:	3150      	adds	r1, #80	@ 0x50
 80019ac:	7809      	ldrb	r1, [r1, #0]
 80019ae:	185b      	adds	r3, r3, r1
 80019b0:	105b      	asrs	r3, r3, #1
 80019b2:	83d3      	strh	r3, [r2, #30]
	newData = true;
 80019b4:	2201      	movs	r2, #1
 80019b6:	4b03      	ldr	r3, [pc, #12]	@ (80019c4 <HAL_I2C_MemRxCpltCallback+0x30>)
 80019b8:	701a      	strb	r2, [r3, #0]
}
 80019ba:	4770      	bx	lr
 80019bc:	20000293 	.word	0x20000293
 80019c0:	20000244 	.word	0x20000244
 80019c4:	20000241 	.word	0x20000241

080019c8 <updateTorque>:
	delay += 1;
	updateTorque();
}

void updateTorque()
{
 80019c8:	b5f7      	push	{r0, r1, r2, r4, r5, r6, r7, lr}
	// update global position and handle rotational overflow (2047.0 or 0.2047)
	moco.angle_error = (moco.meas_angle - moco.old_angle);
 80019ca:	4c59      	ldr	r4, [pc, #356]	@ (8001b30 <updateTorque+0x168>)
 80019cc:	8be1      	ldrh	r1, [r4, #30]
 80019ce:	8c20      	ldrh	r0, [r4, #32]
		// old_angle was slightly above 0
		if (moco.meas_angle > (2047-border))
		{
			// new angle was slightly below 2047
			// UNDERFLOW must have happened
			moco.position = moco.position - 2047;
 80019d0:	6923      	ldr	r3, [r4, #16]
	moco.angle_error = (moco.meas_angle - moco.old_angle);
 80019d2:	1a0a      	subs	r2, r1, r0
 80019d4:	b212      	sxth	r2, r2
 80019d6:	8462      	strh	r2, [r4, #34]	@ 0x22
	if (moco.old_angle < border)
 80019d8:	2863      	cmp	r0, #99	@ 0x63
 80019da:	d900      	bls.n	80019de <updateTorque+0x16>
 80019dc:	e063      	b.n	8001aa6 <updateTorque+0xde>
		if (moco.meas_angle > (2047-border))
 80019de:	4855      	ldr	r0, [pc, #340]	@ (8001b34 <updateTorque+0x16c>)
 80019e0:	4281      	cmp	r1, r0
 80019e2:	d902      	bls.n	80019ea <updateTorque+0x22>
			moco.position = moco.position - 2047;
 80019e4:	4954      	ldr	r1, [pc, #336]	@ (8001b38 <updateTorque+0x170>)
		// old_angle was slightly below 2047
		if (moco.meas_angle < border)
		{
			// new angle was slightly above 0
			// OVERFLOW must have happened
			moco.position = moco.position + 2048;
 80019e6:	185b      	adds	r3, r3, r1
 80019e8:	6123      	str	r3, [r4, #16]
		}
	}
	moco.position = moco.position + moco.angle_error;
 80019ea:	6923      	ldr	r3, [r4, #16]

	if (moco.rpm_delayTimer + 100 < HAL_GetTick())
 80019ec:	6ae5      	ldr	r5, [r4, #44]	@ 0x2c
	moco.position = moco.position + moco.angle_error;
 80019ee:	189b      	adds	r3, r3, r2
	if (moco.rpm_delayTimer + 100 < HAL_GetTick())
 80019f0:	3564      	adds	r5, #100	@ 0x64
	moco.position = moco.position + moco.angle_error;
 80019f2:	6123      	str	r3, [r4, #16]
	if (moco.rpm_delayTimer + 100 < HAL_GetTick())
 80019f4:	f000 fba4 	bl	8002140 <HAL_GetTick>
 80019f8:	4285      	cmp	r5, r0
 80019fa:	d224      	bcs.n	8001a46 <updateTorque+0x7e>
	{
		moco.rpm = (1 - moco.rpm_lowpass)*moco.rpm + moco.rpm_lowpass*((60 * (moco.rpm_oldPos - moco.position)) / 2048 * 10);
 80019fc:	6922      	ldr	r2, [r4, #16]
 80019fe:	6aa3      	ldr	r3, [r4, #40]	@ 0x28
 8001a00:	200a      	movs	r0, #10
 8001a02:	1a9b      	subs	r3, r3, r2
 8001a04:	223c      	movs	r2, #60	@ 0x3c
 8001a06:	435a      	muls	r2, r3
 8001a08:	17d3      	asrs	r3, r2, #31
 8001a0a:	055b      	lsls	r3, r3, #21
 8001a0c:	0d5b      	lsrs	r3, r3, #21
 8001a0e:	189b      	adds	r3, r3, r2
 8001a10:	12db      	asrs	r3, r3, #11
 8001a12:	6b65      	ldr	r5, [r4, #52]	@ 0x34
 8001a14:	4358      	muls	r0, r3
 8001a16:	f7ff fbf9 	bl	800120c <__aeabi_i2f>
 8001a1a:	1c29      	adds	r1, r5, #0
 8001a1c:	f7ff f818 	bl	8000a50 <__aeabi_fmul>
 8001a20:	1c06      	adds	r6, r0, #0
 8001a22:	20fe      	movs	r0, #254	@ 0xfe
 8001a24:	1c29      	adds	r1, r5, #0
 8001a26:	0580      	lsls	r0, r0, #22
 8001a28:	f7ff f96c 	bl	8000d04 <__aeabi_fsub>
 8001a2c:	6a61      	ldr	r1, [r4, #36]	@ 0x24
 8001a2e:	f7ff f80f 	bl	8000a50 <__aeabi_fmul>
 8001a32:	1c01      	adds	r1, r0, #0
 8001a34:	1c30      	adds	r0, r6, #0
 8001a36:	f7fe fc4b 	bl	80002d0 <__aeabi_fadd>
 8001a3a:	6260      	str	r0, [r4, #36]	@ 0x24
		moco.rpm_delayTimer = HAL_GetTick();
 8001a3c:	f000 fb80 	bl	8002140 <HAL_GetTick>
		moco.rpm_oldPos = moco.position;
 8001a40:	6923      	ldr	r3, [r4, #16]
		moco.rpm_delayTimer = HAL_GetTick();
 8001a42:	62e0      	str	r0, [r4, #44]	@ 0x2c
		moco.rpm_oldPos = moco.position;
 8001a44:	62a3      	str	r3, [r4, #40]	@ 0x28
	}
	moco.old_angle = moco.meas_angle;
 8001a46:	8be3      	ldrh	r3, [r4, #30]
	if (moco.calibration)
	{
		if (moco.direction)
		{
			// thwo phases are switched !!
			htim1.Instance->CCR2 = ((sintab[(moco.meas_angle + moco.encoder_offset + moco.phase_offset1) % sintablen] * (uint16_t)moco.power) >> 7) + 1023;
 8001a48:	8867      	ldrh	r7, [r4, #2]
		if (moco.direction)
 8001a4a:	7f22      	ldrb	r2, [r4, #28]
			htim1.Instance->CCR1 = ((sintab[(moco.meas_angle + moco.encoder_offset + moco.phase_offset2) % sintablen] * (uint16_t)moco.power) >> 7) + 1023;
			htim1.Instance->CCR4 = ((sintab[(moco.meas_angle + moco.encoder_offset + moco.phase_offset3) % sintablen] * (uint16_t)moco.power) >> 7) + 1023;
 8001a4c:	89a5      	ldrh	r5, [r4, #12]
	moco.old_angle = moco.meas_angle;
 8001a4e:	8423      	strh	r3, [r4, #32]
			htim1.Instance->CCR2 = ((sintab[(moco.meas_angle + moco.encoder_offset + moco.phase_offset1) % sintablen] * (uint16_t)moco.power) >> 7) + 1023;
 8001a50:	18ff      	adds	r7, r7, r3
 8001a52:	4b3a      	ldr	r3, [pc, #232]	@ (8001b3c <updateTorque+0x174>)
		if (moco.direction)
 8001a54:	4694      	mov	ip, r2
			htim1.Instance->CCR2 = ((sintab[(moco.meas_angle + moco.encoder_offset + moco.phase_offset1) % sintablen] * (uint16_t)moco.power) >> 7) + 1023;
 8001a56:	7ba1      	ldrb	r1, [r4, #14]
 8001a58:	8922      	ldrh	r2, [r4, #8]
 8001a5a:	6818      	ldr	r0, [r3, #0]
			htim1.Instance->CCR1 = ((sintab[(moco.meas_angle + moco.encoder_offset + moco.phase_offset2) % sintablen] * (uint16_t)moco.power) >> 7) + 1023;
 8001a5c:	8963      	ldrh	r3, [r4, #10]
			htim1.Instance->CCR4 = ((sintab[(moco.meas_angle + moco.encoder_offset + moco.phase_offset3) % sintablen] * (uint16_t)moco.power) >> 7) + 1023;
 8001a5e:	9501      	str	r5, [sp, #4]
	if (moco.calibration)
 8001a60:	0025      	movs	r5, r4
 8001a62:	354e      	adds	r5, #78	@ 0x4e
 8001a64:	782d      	ldrb	r5, [r5, #0]
 8001a66:	1e2e      	subs	r6, r5, #0
 8001a68:	4d35      	ldr	r5, [pc, #212]	@ (8001b40 <updateTorque+0x178>)
 8001a6a:	d025      	beq.n	8001ab8 <updateTorque+0xf0>
			htim1.Instance->CCR2 = ((sintab[(moco.meas_angle + moco.encoder_offset + moco.phase_offset1) % sintablen] * (uint16_t)moco.power) >> 7) + 1023;
 8001a6c:	18ba      	adds	r2, r7, r2
 8001a6e:	0552      	lsls	r2, r2, #21
 8001a70:	0d12      	lsrs	r2, r2, #20
 8001a72:	5eaa      	ldrsh	r2, [r5, r2]
			htim1.Instance->CCR1 = ((sintab[(moco.meas_angle + moco.encoder_offset + moco.phase_offset2) % sintablen] * (uint16_t)moco.power) >> 7) + 1023;
 8001a74:	18fb      	adds	r3, r7, r3
			htim1.Instance->CCR2 = ((sintab[(moco.meas_angle + moco.encoder_offset + moco.phase_offset1) % sintablen] * (uint16_t)moco.power) >> 7) + 1023;
 8001a76:	434a      	muls	r2, r1
 8001a78:	4c32      	ldr	r4, [pc, #200]	@ (8001b44 <updateTorque+0x17c>)
			htim1.Instance->CCR1 = ((sintab[(moco.meas_angle + moco.encoder_offset + moco.phase_offset2) % sintablen] * (uint16_t)moco.power) >> 7) + 1023;
 8001a7a:	055b      	lsls	r3, r3, #21
 8001a7c:	0d1b      	lsrs	r3, r3, #20
			htim1.Instance->CCR2 = ((sintab[(moco.meas_angle + moco.encoder_offset + moco.phase_offset1) % sintablen] * (uint16_t)moco.power) >> 7) + 1023;
 8001a7e:	11d2      	asrs	r2, r2, #7
 8001a80:	1912      	adds	r2, r2, r4
			htim1.Instance->CCR1 = ((sintab[(moco.meas_angle + moco.encoder_offset + moco.phase_offset2) % sintablen] * (uint16_t)moco.power) >> 7) + 1023;
 8001a82:	5eec      	ldrsh	r4, [r5, r3]
 8001a84:	4b2f      	ldr	r3, [pc, #188]	@ (8001b44 <updateTorque+0x17c>)
 8001a86:	434c      	muls	r4, r1
 8001a88:	11e4      	asrs	r4, r4, #7
 8001a8a:	18e4      	adds	r4, r4, r3
			htim1.Instance->CCR4 = ((sintab[(moco.meas_angle + moco.encoder_offset + moco.phase_offset3) % sintablen] * (uint16_t)moco.power) >> 7) + 1023;
 8001a8c:	9b01      	ldr	r3, [sp, #4]
			htim1.Instance->CCR2 = ((sintab[(moco.meas_angle + moco.encoder_offset + moco.phase_offset1) % sintablen] * (uint16_t)moco.power) >> 7) + 1023;
 8001a8e:	6382      	str	r2, [r0, #56]	@ 0x38
			htim1.Instance->CCR4 = ((sintab[(moco.meas_angle + moco.encoder_offset + moco.phase_offset3) % sintablen] * (uint16_t)moco.power) >> 7) + 1023;
 8001a90:	18fe      	adds	r6, r7, r3
 8001a92:	0576      	lsls	r6, r6, #21
 8001a94:	0d36      	lsrs	r6, r6, #20
 8001a96:	5fab      	ldrsh	r3, [r5, r6]
			htim1.Instance->CCR1 = ((sintab[(moco.meas_angle + moco.encoder_offset + moco.phase_offset2) % sintablen] * (uint16_t)moco.power) >> 7) + 1023;
 8001a98:	6344      	str	r4, [r0, #52]	@ 0x34
			htim1.Instance->CCR4 = ((sintab[(moco.meas_angle + moco.encoder_offset + moco.phase_offset3) % sintablen] * (uint16_t)moco.power) >> 7) + 1023;
 8001a9a:	434b      	muls	r3, r1
 8001a9c:	4929      	ldr	r1, [pc, #164]	@ (8001b44 <updateTorque+0x17c>)
 8001a9e:	11db      	asrs	r3, r3, #7
 8001aa0:	185b      	adds	r3, r3, r1
		if (moco.direction)
		{
			// thwo phases are switched !!
			htim1.Instance->CCR2 = ((sintab[(moco.meas_angle + moco.encoder_offset + moco.angle_cw + moco.phase_offset1) % sintablen] * (uint16_t)moco.power) >> 7) + 1023;
			htim1.Instance->CCR1 = ((sintab[(moco.meas_angle + moco.encoder_offset + moco.angle_cw + moco.phase_offset2) % sintablen] * (uint16_t)moco.power) >> 7) + 1023;
			htim1.Instance->CCR4 = ((sintab[(moco.meas_angle + moco.encoder_offset + moco.angle_cw + moco.phase_offset3) % sintablen] * (uint16_t)moco.power) >> 7) + 1023;
 8001aa2:	6403      	str	r3, [r0, #64]	@ 0x40
			htim1.Instance->CCR2 = ((sintab[(moco.meas_angle + moco.encoder_offset + moco.angle_ccw + moco.phase_offset1) % sintablen] * (uint16_t)moco.power) >> 7) + 1023;
			htim1.Instance->CCR1 = ((sintab[(moco.meas_angle + moco.encoder_offset + moco.angle_ccw + moco.phase_offset2) % sintablen] * (uint16_t)moco.power) >> 7) + 1023;
			htim1.Instance->CCR4 = ((sintab[(moco.meas_angle + moco.encoder_offset + moco.angle_ccw + moco.phase_offset3) % sintablen] * (uint16_t)moco.power) >> 7) + 1023;
		}
	}
}
 8001aa4:	bdf7      	pop	{r0, r1, r2, r4, r5, r6, r7, pc}
	else if (moco.old_angle > (2048-border))
 8001aa6:	4d28      	ldr	r5, [pc, #160]	@ (8001b48 <updateTorque+0x180>)
 8001aa8:	42a8      	cmp	r0, r5
 8001aaa:	d99e      	bls.n	80019ea <updateTorque+0x22>
		if (moco.meas_angle < border)
 8001aac:	2963      	cmp	r1, #99	@ 0x63
 8001aae:	d900      	bls.n	8001ab2 <updateTorque+0xea>
 8001ab0:	e79b      	b.n	80019ea <updateTorque+0x22>
			moco.position = moco.position + 2048;
 8001ab2:	2180      	movs	r1, #128	@ 0x80
 8001ab4:	0109      	lsls	r1, r1, #4
 8001ab6:	e796      	b.n	80019e6 <updateTorque+0x1e>
		if (moco.direction)
 8001ab8:	4666      	mov	r6, ip
 8001aba:	2e00      	cmp	r6, #0
 8001abc:	d01b      	beq.n	8001af6 <updateTorque+0x12e>
			htim1.Instance->CCR2 = ((sintab[(moco.meas_angle + moco.encoder_offset + moco.angle_cw + moco.phase_offset1) % sintablen] * (uint16_t)moco.power) >> 7) + 1023;
 8001abe:	88a4      	ldrh	r4, [r4, #4]
 8001ac0:	19e4      	adds	r4, r4, r7
 8001ac2:	18a2      	adds	r2, r4, r2
 8001ac4:	0552      	lsls	r2, r2, #21
 8001ac6:	0d12      	lsrs	r2, r2, #20
 8001ac8:	5eaa      	ldrsh	r2, [r5, r2]
 8001aca:	4f1e      	ldr	r7, [pc, #120]	@ (8001b44 <updateTorque+0x17c>)
 8001acc:	434a      	muls	r2, r1
			htim1.Instance->CCR1 = ((sintab[(moco.meas_angle + moco.encoder_offset + moco.angle_cw + moco.phase_offset2) % sintablen] * (uint16_t)moco.power) >> 7) + 1023;
 8001ace:	18e3      	adds	r3, r4, r3
			htim1.Instance->CCR2 = ((sintab[(moco.meas_angle + moco.encoder_offset + moco.angle_cw + moco.phase_offset1) % sintablen] * (uint16_t)moco.power) >> 7) + 1023;
 8001ad0:	11d2      	asrs	r2, r2, #7
			htim1.Instance->CCR1 = ((sintab[(moco.meas_angle + moco.encoder_offset + moco.angle_cw + moco.phase_offset2) % sintablen] * (uint16_t)moco.power) >> 7) + 1023;
 8001ad2:	055b      	lsls	r3, r3, #21
			htim1.Instance->CCR2 = ((sintab[(moco.meas_angle + moco.encoder_offset + moco.angle_cw + moco.phase_offset1) % sintablen] * (uint16_t)moco.power) >> 7) + 1023;
 8001ad4:	19d2      	adds	r2, r2, r7
			htim1.Instance->CCR1 = ((sintab[(moco.meas_angle + moco.encoder_offset + moco.angle_cw + moco.phase_offset2) % sintablen] * (uint16_t)moco.power) >> 7) + 1023;
 8001ad6:	0d1b      	lsrs	r3, r3, #20
			htim1.Instance->CCR2 = ((sintab[(moco.meas_angle + moco.encoder_offset + moco.angle_cw + moco.phase_offset1) % sintablen] * (uint16_t)moco.power) >> 7) + 1023;
 8001ad8:	6382      	str	r2, [r0, #56]	@ 0x38
			htim1.Instance->CCR1 = ((sintab[(moco.meas_angle + moco.encoder_offset + moco.angle_cw + moco.phase_offset2) % sintablen] * (uint16_t)moco.power) >> 7) + 1023;
 8001ada:	5eeb      	ldrsh	r3, [r5, r3]
 8001adc:	434b      	muls	r3, r1
 8001ade:	11db      	asrs	r3, r3, #7
 8001ae0:	19db      	adds	r3, r3, r7
 8001ae2:	6343      	str	r3, [r0, #52]	@ 0x34
			htim1.Instance->CCR4 = ((sintab[(moco.meas_angle + moco.encoder_offset + moco.angle_cw + moco.phase_offset3) % sintablen] * (uint16_t)moco.power) >> 7) + 1023;
 8001ae4:	9b01      	ldr	r3, [sp, #4]
 8001ae6:	18e4      	adds	r4, r4, r3
 8001ae8:	0564      	lsls	r4, r4, #21
 8001aea:	0d24      	lsrs	r4, r4, #20
 8001aec:	5f2b      	ldrsh	r3, [r5, r4]
 8001aee:	434b      	muls	r3, r1
 8001af0:	11db      	asrs	r3, r3, #7
 8001af2:	19db      	adds	r3, r3, r7
 8001af4:	e7d5      	b.n	8001aa2 <updateTorque+0xda>
			htim1.Instance->CCR2 = ((sintab[(moco.meas_angle + moco.encoder_offset + moco.angle_ccw + moco.phase_offset1) % sintablen] * (uint16_t)moco.power) >> 7) + 1023;
 8001af6:	88e4      	ldrh	r4, [r4, #6]
 8001af8:	19e4      	adds	r4, r4, r7
 8001afa:	18a2      	adds	r2, r4, r2
 8001afc:	0552      	lsls	r2, r2, #21
 8001afe:	0d12      	lsrs	r2, r2, #20
 8001b00:	5eaa      	ldrsh	r2, [r5, r2]
 8001b02:	4f10      	ldr	r7, [pc, #64]	@ (8001b44 <updateTorque+0x17c>)
 8001b04:	434a      	muls	r2, r1
			htim1.Instance->CCR1 = ((sintab[(moco.meas_angle + moco.encoder_offset + moco.angle_ccw + moco.phase_offset2) % sintablen] * (uint16_t)moco.power) >> 7) + 1023;
 8001b06:	18e3      	adds	r3, r4, r3
			htim1.Instance->CCR2 = ((sintab[(moco.meas_angle + moco.encoder_offset + moco.angle_ccw + moco.phase_offset1) % sintablen] * (uint16_t)moco.power) >> 7) + 1023;
 8001b08:	11d2      	asrs	r2, r2, #7
			htim1.Instance->CCR1 = ((sintab[(moco.meas_angle + moco.encoder_offset + moco.angle_ccw + moco.phase_offset2) % sintablen] * (uint16_t)moco.power) >> 7) + 1023;
 8001b0a:	055b      	lsls	r3, r3, #21
			htim1.Instance->CCR2 = ((sintab[(moco.meas_angle + moco.encoder_offset + moco.angle_ccw + moco.phase_offset1) % sintablen] * (uint16_t)moco.power) >> 7) + 1023;
 8001b0c:	19d2      	adds	r2, r2, r7
			htim1.Instance->CCR1 = ((sintab[(moco.meas_angle + moco.encoder_offset + moco.angle_ccw + moco.phase_offset2) % sintablen] * (uint16_t)moco.power) >> 7) + 1023;
 8001b0e:	0d1b      	lsrs	r3, r3, #20
			htim1.Instance->CCR2 = ((sintab[(moco.meas_angle + moco.encoder_offset + moco.angle_ccw + moco.phase_offset1) % sintablen] * (uint16_t)moco.power) >> 7) + 1023;
 8001b10:	6382      	str	r2, [r0, #56]	@ 0x38
			htim1.Instance->CCR1 = ((sintab[(moco.meas_angle + moco.encoder_offset + moco.angle_ccw + moco.phase_offset2) % sintablen] * (uint16_t)moco.power) >> 7) + 1023;
 8001b12:	5eeb      	ldrsh	r3, [r5, r3]
 8001b14:	434b      	muls	r3, r1
 8001b16:	11db      	asrs	r3, r3, #7
 8001b18:	19db      	adds	r3, r3, r7
 8001b1a:	6343      	str	r3, [r0, #52]	@ 0x34
			htim1.Instance->CCR4 = ((sintab[(moco.meas_angle + moco.encoder_offset + moco.angle_ccw + moco.phase_offset3) % sintablen] * (uint16_t)moco.power) >> 7) + 1023;
 8001b1c:	9b01      	ldr	r3, [sp, #4]
 8001b1e:	18e4      	adds	r4, r4, r3
 8001b20:	0564      	lsls	r4, r4, #21
 8001b22:	0d24      	lsrs	r4, r4, #20
 8001b24:	5f2b      	ldrsh	r3, [r5, r4]
 8001b26:	4359      	muls	r1, r3
 8001b28:	11c9      	asrs	r1, r1, #7
 8001b2a:	19c9      	adds	r1, r1, r7
 8001b2c:	6401      	str	r1, [r0, #64]	@ 0x40
}
 8001b2e:	e7b9      	b.n	8001aa4 <updateTorque+0xdc>
 8001b30:	20000244 	.word	0x20000244
 8001b34:	0000079b 	.word	0x0000079b
 8001b38:	fffff801 	.word	0xfffff801
 8001b3c:	200000dc 	.word	0x200000dc
 8001b40:	08004f88 	.word	0x08004f88
 8001b44:	000003ff 	.word	0x000003ff
 8001b48:	0000079c 	.word	0x0000079c

08001b4c <updatePosition>:
{
 8001b4c:	b5f0      	push	{r4, r5, r6, r7, lr}
	moco.position_error = (moco.target - moco.position);
 8001b4e:	4c37      	ldr	r4, [pc, #220]	@ (8001c2c <updatePosition+0xe0>)
{
 8001b50:	b085      	sub	sp, #20
	moco.position_error = (moco.target - moco.position);
 8001b52:	69a2      	ldr	r2, [r4, #24]
 8001b54:	6923      	ldr	r3, [r4, #16]
 8001b56:	1ad3      	subs	r3, r2, r3
	proportional 	 = moco.Kp * moco.position_error;
 8001b58:	0018      	movs	r0, r3
	moco.position_error = (moco.target - moco.position);
 8001b5a:	6163      	str	r3, [r4, #20]
 8001b5c:	9301      	str	r3, [sp, #4]
	proportional 	 = moco.Kp * moco.position_error;
 8001b5e:	f7ff fb55 	bl	800120c <__aeabi_i2f>
 8001b62:	6be1      	ldr	r1, [r4, #60]	@ 0x3c
 8001b64:	1c05      	adds	r5, r0, #0
 8001b66:	f7fe ff73 	bl	8000a50 <__aeabi_fmul>
	moco.integrator	 = limit(moco.integrator + moco.Ki * moco.position_error, -100.0f, 100.0f);
 8001b6a:	6c21      	ldr	r1, [r4, #64]	@ 0x40
	proportional 	 = moco.Kp * moco.position_error;
 8001b6c:	9003      	str	r0, [sp, #12]
	moco.integrator	 = limit(moco.integrator + moco.Ki * moco.position_error, -100.0f, 100.0f);
 8001b6e:	1c28      	adds	r0, r5, #0
 8001b70:	f7fe ff6e 	bl	8000a50 <__aeabi_fmul>
 8001b74:	6ca1      	ldr	r1, [r4, #72]	@ 0x48
 8001b76:	9002      	str	r0, [sp, #8]
 8001b78:	f7fe fbaa 	bl	80002d0 <__aeabi_fadd>
	if (input > max)
 8001b7c:	492c      	ldr	r1, [pc, #176]	@ (8001c30 <updatePosition+0xe4>)
	moco.integrator	 = limit(moco.integrator + moco.Ki * moco.position_error, -100.0f, 100.0f);
 8001b7e:	1c05      	adds	r5, r0, #0
	if (input > max)
 8001b80:	f7fe fb7a 	bl	8000278 <__aeabi_fcmpgt>
 8001b84:	2800      	cmp	r0, #0
 8001b86:	d107      	bne.n	8001b98 <updatePosition+0x4c>
	if (input < min)
 8001b88:	492a      	ldr	r1, [pc, #168]	@ (8001c34 <updatePosition+0xe8>)
 8001b8a:	1c28      	adds	r0, r5, #0
 8001b8c:	f7fe fb60 	bl	8000250 <__aeabi_fcmplt>
 8001b90:	2800      	cmp	r0, #0
 8001b92:	d002      	beq.n	8001b9a <updatePosition+0x4e>
		return min;
 8001b94:	4d27      	ldr	r5, [pc, #156]	@ (8001c34 <updatePosition+0xe8>)
 8001b96:	e000      	b.n	8001b9a <updatePosition+0x4e>
		return max;
 8001b98:	4d25      	ldr	r5, [pc, #148]	@ (8001c30 <updatePosition+0xe4>)
	differential 	 = 0.9f * differential + 0.1f * moco.Kd * (moco.position_error - moco.old_position_error);
 8001b9a:	0023      	movs	r3, r4
	moco.integrator	 = limit(moco.integrator + moco.Ki * moco.position_error, -100.0f, 100.0f);
 8001b9c:	64a5      	str	r5, [r4, #72]	@ 0x48
	differential 	 = 0.9f * differential + 0.1f * moco.Kd * (moco.position_error - moco.old_position_error);
 8001b9e:	334c      	adds	r3, #76	@ 0x4c
 8001ba0:	2000      	movs	r0, #0
 8001ba2:	5e18      	ldrsh	r0, [r3, r0]
 8001ba4:	9b01      	ldr	r3, [sp, #4]
 8001ba6:	1a18      	subs	r0, r3, r0
 8001ba8:	f7ff fb30 	bl	800120c <__aeabi_i2f>
 8001bac:	4922      	ldr	r1, [pc, #136]	@ (8001c38 <updatePosition+0xec>)
 8001bae:	1c06      	adds	r6, r0, #0
 8001bb0:	6c60      	ldr	r0, [r4, #68]	@ 0x44
 8001bb2:	f7fe ff4d 	bl	8000a50 <__aeabi_fmul>
 8001bb6:	1c01      	adds	r1, r0, #0
 8001bb8:	1c30      	adds	r0, r6, #0
 8001bba:	f7fe ff49 	bl	8000a50 <__aeabi_fmul>
 8001bbe:	4f1f      	ldr	r7, [pc, #124]	@ (8001c3c <updatePosition+0xf0>)
 8001bc0:	1c06      	adds	r6, r0, #0
 8001bc2:	491f      	ldr	r1, [pc, #124]	@ (8001c40 <updatePosition+0xf4>)
 8001bc4:	6838      	ldr	r0, [r7, #0]
 8001bc6:	f7fe ff43 	bl	8000a50 <__aeabi_fmul>
 8001bca:	1c01      	adds	r1, r0, #0
 8001bcc:	1c30      	adds	r0, r6, #0
 8001bce:	f7fe fb7f 	bl	80002d0 <__aeabi_fadd>
	integral 		 = moco.integrator + moco.Ki * moco.position_error;
 8001bd2:	1c29      	adds	r1, r5, #0
	differential 	 = 0.9f * differential + 0.1f * moco.Kd * (moco.position_error - moco.old_position_error);
 8001bd4:	1c06      	adds	r6, r0, #0
 8001bd6:	6038      	str	r0, [r7, #0]
	integral 		 = moco.integrator + moco.Ki * moco.position_error;
 8001bd8:	9802      	ldr	r0, [sp, #8]
 8001bda:	f7fe fb79 	bl	80002d0 <__aeabi_fadd>
	float power = proportional + integral + differential;
 8001bde:	9903      	ldr	r1, [sp, #12]
 8001be0:	f7fe fb76 	bl	80002d0 <__aeabi_fadd>
 8001be4:	1c31      	adds	r1, r6, #0
 8001be6:	f7fe fb73 	bl	80002d0 <__aeabi_fadd>
	if (power > 0)
 8001bea:	2100      	movs	r1, #0
	float power = proportional + integral + differential;
 8001bec:	1c05      	adds	r5, r0, #0
	if (power > 0)
 8001bee:	f7fe fb43 	bl	8000278 <__aeabi_fcmpgt>
 8001bf2:	0003      	movs	r3, r0
 8001bf4:	2001      	movs	r0, #1
 8001bf6:	1e5a      	subs	r2, r3, #1
 8001bf8:	4193      	sbcs	r3, r2
 8001bfa:	4058      	eors	r0, r3
 8001bfc:	7720      	strb	r0, [r4, #28]
	moco.power = max((uint16_t)abs(proportional + integral + differential), moco.power_limit);
 8001bfe:	1c28      	adds	r0, r5, #0
 8001c00:	f7ff fae4 	bl	80011cc <__aeabi_f2iz>
 8001c04:	4c09      	ldr	r4, [pc, #36]	@ (8001c2c <updatePosition+0xe0>)
 8001c06:	17c3      	asrs	r3, r0, #31
 8001c08:	18c0      	adds	r0, r0, r3
 8001c0a:	4058      	eors	r0, r3
 8001c0c:	7be2      	ldrb	r2, [r4, #15]
	if (value > limit)
 8001c0e:	1c03      	adds	r3, r0, #0
 8001c10:	b280      	uxth	r0, r0
 8001c12:	4290      	cmp	r0, r2
 8001c14:	d900      	bls.n	8001c18 <updatePosition+0xcc>
 8001c16:	1c13      	adds	r3, r2, #0
	moco.power = max((uint16_t)abs(proportional + integral + differential), moco.power_limit);
 8001c18:	73a3      	strb	r3, [r4, #14]
	moco.old_position_error = moco.position_error;
 8001c1a:	0023      	movs	r3, r4
 8001c1c:	9a01      	ldr	r2, [sp, #4]
 8001c1e:	334c      	adds	r3, #76	@ 0x4c
 8001c20:	801a      	strh	r2, [r3, #0]
	updateTorque(moco.meas_angle);
 8001c22:	8be0      	ldrh	r0, [r4, #30]
 8001c24:	f7ff fed0 	bl	80019c8 <updateTorque>
}
 8001c28:	b005      	add	sp, #20
 8001c2a:	bdf0      	pop	{r4, r5, r6, r7, pc}
 8001c2c:	20000244 	.word	0x20000244
 8001c30:	42c80000 	.word	0x42c80000
 8001c34:	c2c80000 	.word	0xc2c80000
 8001c38:	3dcccccd 	.word	0x3dcccccd
 8001c3c:	2000023c 	.word	0x2000023c
 8001c40:	3f666666 	.word	0x3f666666

08001c44 <updateSpeed>:
{
 8001c44:	b5f8      	push	{r3, r4, r5, r6, r7, lr}
	if (delay == 10)
 8001c46:	4e1f      	ldr	r6, [pc, #124]	@ (8001cc4 <updateSpeed+0x80>)
 8001c48:	7833      	ldrb	r3, [r6, #0]
 8001c4a:	2b0a      	cmp	r3, #10
 8001c4c:	d134      	bne.n	8001cb8 <updateSpeed+0x74>
		float rpm_diff = moco.target_rpm - moco.rpm;
 8001c4e:	4d1e      	ldr	r5, [pc, #120]	@ (8001cc8 <updateSpeed+0x84>)
 8001c50:	6a69      	ldr	r1, [r5, #36]	@ 0x24
 8001c52:	6ba8      	ldr	r0, [r5, #56]	@ 0x38
 8001c54:	f7ff f856 	bl	8000d04 <__aeabi_fsub>
		moco.rpm_integrator = limit(rpm_diff/1000 + moco.rpm_integrator, 0, 127);
 8001c58:	491c      	ldr	r1, [pc, #112]	@ (8001ccc <updateSpeed+0x88>)
		float rpm_diff = moco.target_rpm - moco.rpm;
 8001c5a:	1c07      	adds	r7, r0, #0
		moco.rpm_integrator = limit(rpm_diff/1000 + moco.rpm_integrator, 0, 127);
 8001c5c:	f7fe fd2a 	bl	80006b4 <__aeabi_fdiv>
 8001c60:	6b29      	ldr	r1, [r5, #48]	@ 0x30
 8001c62:	f7fe fb35 	bl	80002d0 <__aeabi_fadd>
	if (input > max)
 8001c66:	491a      	ldr	r1, [pc, #104]	@ (8001cd0 <updateSpeed+0x8c>)
		moco.rpm_integrator = limit(rpm_diff/1000 + moco.rpm_integrator, 0, 127);
 8001c68:	1c04      	adds	r4, r0, #0
	if (input > max)
 8001c6a:	f7fe fb05 	bl	8000278 <__aeabi_fcmpgt>
 8001c6e:	2800      	cmp	r0, #0
 8001c70:	d107      	bne.n	8001c82 <updateSpeed+0x3e>
	if (input < min)
 8001c72:	2100      	movs	r1, #0
 8001c74:	1c20      	adds	r0, r4, #0
 8001c76:	f7fe faeb 	bl	8000250 <__aeabi_fcmplt>
 8001c7a:	2800      	cmp	r0, #0
 8001c7c:	d002      	beq.n	8001c84 <updateSpeed+0x40>
		return min;
 8001c7e:	2400      	movs	r4, #0
 8001c80:	e000      	b.n	8001c84 <updateSpeed+0x40>
		return max;
 8001c82:	4c13      	ldr	r4, [pc, #76]	@ (8001cd0 <updateSpeed+0x8c>)
		moco.power = (uint8_t)limit(rpm_diff + moco.rpm_integrator, 0, 127);
 8001c84:	1c21      	adds	r1, r4, #0
		moco.rpm_integrator = limit(rpm_diff/1000 + moco.rpm_integrator, 0, 127);
 8001c86:	632c      	str	r4, [r5, #48]	@ 0x30
		moco.power = (uint8_t)limit(rpm_diff + moco.rpm_integrator, 0, 127);
 8001c88:	1c38      	adds	r0, r7, #0
 8001c8a:	f7fe fb21 	bl	80002d0 <__aeabi_fadd>
	if (input > max)
 8001c8e:	4910      	ldr	r1, [pc, #64]	@ (8001cd0 <updateSpeed+0x8c>)
		moco.power = (uint8_t)limit(rpm_diff + moco.rpm_integrator, 0, 127);
 8001c90:	1c04      	adds	r4, r0, #0
	if (input > max)
 8001c92:	f7fe faf1 	bl	8000278 <__aeabi_fcmpgt>
 8001c96:	2800      	cmp	r0, #0
 8001c98:	d107      	bne.n	8001caa <updateSpeed+0x66>
	if (input < min)
 8001c9a:	2100      	movs	r1, #0
 8001c9c:	1c20      	adds	r0, r4, #0
 8001c9e:	f7fe fad7 	bl	8000250 <__aeabi_fcmplt>
 8001ca2:	2800      	cmp	r0, #0
 8001ca4:	d002      	beq.n	8001cac <updateSpeed+0x68>
		return min;
 8001ca6:	2400      	movs	r4, #0
 8001ca8:	e000      	b.n	8001cac <updateSpeed+0x68>
		return max;
 8001caa:	4c09      	ldr	r4, [pc, #36]	@ (8001cd0 <updateSpeed+0x8c>)
		moco.power = (uint8_t)limit(rpm_diff + moco.rpm_integrator, 0, 127);
 8001cac:	1c20      	adds	r0, r4, #0
 8001cae:	f7fe faf7 	bl	80002a0 <__aeabi_f2uiz>
		delay = 0;
 8001cb2:	2300      	movs	r3, #0
		moco.power = (uint8_t)limit(rpm_diff + moco.rpm_integrator, 0, 127);
 8001cb4:	73a8      	strb	r0, [r5, #14]
		delay = 0;
 8001cb6:	7033      	strb	r3, [r6, #0]
	delay += 1;
 8001cb8:	7833      	ldrb	r3, [r6, #0]
 8001cba:	3301      	adds	r3, #1
 8001cbc:	7033      	strb	r3, [r6, #0]
	updateTorque();
 8001cbe:	f7ff fe83 	bl	80019c8 <updateTorque>
}
 8001cc2:	bdf8      	pop	{r3, r4, r5, r6, r7, pc}
 8001cc4:	20000240 	.word	0x20000240
 8001cc8:	20000244 	.word	0x20000244
 8001ccc:	447a0000 	.word	0x447a0000
 8001cd0:	42fe0000 	.word	0x42fe0000

08001cd4 <update>:
	if (newData)
 8001cd4:	4b11      	ldr	r3, [pc, #68]	@ (8001d1c <update+0x48>)
{
 8001cd6:	b507      	push	{r0, r1, r2, lr}
	if (newData)
 8001cd8:	781a      	ldrb	r2, [r3, #0]
 8001cda:	2a00      	cmp	r2, #0
 8001cdc:	d012      	beq.n	8001d04 <update+0x30>
		newData = false;
 8001cde:	2200      	movs	r2, #0
 8001ce0:	701a      	strb	r2, [r3, #0]
		if (moco.mode == TORQUE_MODE)
 8001ce2:	4b0f      	ldr	r3, [pc, #60]	@ (8001d20 <update+0x4c>)
 8001ce4:	781b      	ldrb	r3, [r3, #0]
 8001ce6:	4293      	cmp	r3, r2
 8001ce8:	d102      	bne.n	8001cf0 <update+0x1c>
			updateTorque();
 8001cea:	f7ff fe6d 	bl	80019c8 <updateTorque>
}
 8001cee:	bd07      	pop	{r0, r1, r2, pc}
		else if (moco.mode == POSITION_MODE)
 8001cf0:	2b01      	cmp	r3, #1
 8001cf2:	d102      	bne.n	8001cfa <update+0x26>
			updatePosition();
 8001cf4:	f7ff ff2a 	bl	8001b4c <updatePosition>
 8001cf8:	e7f9      	b.n	8001cee <update+0x1a>
		else if (moco.mode == SPEED_MODE)
 8001cfa:	2b02      	cmp	r3, #2
 8001cfc:	d1f7      	bne.n	8001cee <update+0x1a>
			updateSpeed();
 8001cfe:	f7ff ffa1 	bl	8001c44 <updateSpeed>
 8001d02:	e7f4      	b.n	8001cee <update+0x1a>
		HAL_I2C_Mem_Read_IT(&hi2c1, AS5600_I2C_ADDR, AS5600_REG_RAWANGLE, I2C_MEMADD_SIZE_8BIT, (uint8_t*)moco.as5600_i2c_angle, 2);
 8001d04:	2302      	movs	r3, #2
 8001d06:	9301      	str	r3, [sp, #4]
 8001d08:	4b06      	ldr	r3, [pc, #24]	@ (8001d24 <update+0x50>)
 8001d0a:	220c      	movs	r2, #12
 8001d0c:	9300      	str	r3, [sp, #0]
 8001d0e:	2180      	movs	r1, #128	@ 0x80
 8001d10:	2301      	movs	r3, #1
 8001d12:	4805      	ldr	r0, [pc, #20]	@ (8001d28 <update+0x54>)
 8001d14:	f001 f9ea 	bl	80030ec <HAL_I2C_Mem_Read_IT>
}
 8001d18:	e7e9      	b.n	8001cee <update+0x1a>
 8001d1a:	46c0      	nop			@ (mov r8, r8)
 8001d1c:	20000241 	.word	0x20000241
 8001d20:	20000244 	.word	0x20000244
 8001d24:	20000293 	.word	0x20000293
 8001d28:	20000128 	.word	0x20000128

08001d2c <enableMotor>:

void enableMotor()
{
	// enable all phases
	HAL_GPIO_WritePin(PWM_Enable_GPIO_Port, PWM_Enable_Pin, GPIO_PIN_SET);
 8001d2c:	2180      	movs	r1, #128	@ 0x80
 8001d2e:	20a0      	movs	r0, #160	@ 0xa0
{
 8001d30:	b510      	push	{r4, lr}
	HAL_GPIO_WritePin(PWM_Enable_GPIO_Port, PWM_Enable_Pin, GPIO_PIN_SET);
 8001d32:	2201      	movs	r2, #1
 8001d34:	0149      	lsls	r1, r1, #5
 8001d36:	05c0      	lsls	r0, r0, #23
 8001d38:	f000 ff04 	bl	8002b44 <HAL_GPIO_WritePin>
}
 8001d3c:	bd10      	pop	{r4, pc}
	...

08001d40 <get_meas_angle>:
	moco.target = target;
}

int32_t get_meas_angle()
{
	newData = false;
 8001d40:	2300      	movs	r3, #0
{
 8001d42:	b513      	push	{r0, r1, r4, lr}
	newData = false;
 8001d44:	4c09      	ldr	r4, [pc, #36]	@ (8001d6c <get_meas_angle+0x2c>)
	HAL_I2C_Mem_Read_IT(&hi2c1, AS5600_I2C_ADDR, AS5600_REG_RAWANGLE, I2C_MEMADD_SIZE_8BIT, (uint8_t*)moco.as5600_i2c_angle, 2);
 8001d46:	220c      	movs	r2, #12
	newData = false;
 8001d48:	7023      	strb	r3, [r4, #0]
	HAL_I2C_Mem_Read_IT(&hi2c1, AS5600_I2C_ADDR, AS5600_REG_RAWANGLE, I2C_MEMADD_SIZE_8BIT, (uint8_t*)moco.as5600_i2c_angle, 2);
 8001d4a:	3302      	adds	r3, #2
 8001d4c:	9301      	str	r3, [sp, #4]
 8001d4e:	4b08      	ldr	r3, [pc, #32]	@ (8001d70 <get_meas_angle+0x30>)
 8001d50:	2180      	movs	r1, #128	@ 0x80
 8001d52:	9300      	str	r3, [sp, #0]
 8001d54:	4807      	ldr	r0, [pc, #28]	@ (8001d74 <get_meas_angle+0x34>)
 8001d56:	2301      	movs	r3, #1
 8001d58:	f001 f9c8 	bl	80030ec <HAL_I2C_Mem_Read_IT>
	while(newData == false);
 8001d5c:	7823      	ldrb	r3, [r4, #0]
 8001d5e:	2b00      	cmp	r3, #0
 8001d60:	d0fc      	beq.n	8001d5c <get_meas_angle+0x1c>
	newData = false;
 8001d62:	2300      	movs	r3, #0
 8001d64:	7023      	strb	r3, [r4, #0]
	return moco.meas_angle;
 8001d66:	4b04      	ldr	r3, [pc, #16]	@ (8001d78 <get_meas_angle+0x38>)
 8001d68:	8bd8      	ldrh	r0, [r3, #30]
}
 8001d6a:	bd16      	pop	{r1, r2, r4, pc}
 8001d6c:	20000241 	.word	0x20000241
 8001d70:	20000293 	.word	0x20000293
 8001d74:	20000128 	.word	0x20000128
 8001d78:	20000244 	.word	0x20000244

08001d7c <setnewData>:

void setnewData()
{
	newData = true;
 8001d7c:	2201      	movs	r2, #1
 8001d7e:	4b01      	ldr	r3, [pc, #4]	@ (8001d84 <setnewData+0x8>)
 8001d80:	701a      	strb	r2, [r3, #0]
}
 8001d82:	4770      	bx	lr
 8001d84:	20000241 	.word	0x20000241

08001d88 <HAL_MspInit>:

  /* USER CODE BEGIN MspInit 0 */

  /* USER CODE END MspInit 0 */

  __HAL_RCC_SYSCFG_CLK_ENABLE();
 8001d88:	2101      	movs	r1, #1
 8001d8a:	4b0a      	ldr	r3, [pc, #40]	@ (8001db4 <HAL_MspInit+0x2c>)
{
 8001d8c:	b082      	sub	sp, #8
  __HAL_RCC_SYSCFG_CLK_ENABLE();
 8001d8e:	6c1a      	ldr	r2, [r3, #64]	@ 0x40
 8001d90:	430a      	orrs	r2, r1
 8001d92:	641a      	str	r2, [r3, #64]	@ 0x40
 8001d94:	6c1a      	ldr	r2, [r3, #64]	@ 0x40
 8001d96:	400a      	ands	r2, r1
  __HAL_RCC_PWR_CLK_ENABLE();
 8001d98:	2180      	movs	r1, #128	@ 0x80
  __HAL_RCC_SYSCFG_CLK_ENABLE();
 8001d9a:	9200      	str	r2, [sp, #0]
 8001d9c:	9a00      	ldr	r2, [sp, #0]
  __HAL_RCC_PWR_CLK_ENABLE();
 8001d9e:	6bda      	ldr	r2, [r3, #60]	@ 0x3c
 8001da0:	0549      	lsls	r1, r1, #21
 8001da2:	430a      	orrs	r2, r1
 8001da4:	63da      	str	r2, [r3, #60]	@ 0x3c
 8001da6:	6bdb      	ldr	r3, [r3, #60]	@ 0x3c
 8001da8:	400b      	ands	r3, r1
 8001daa:	9301      	str	r3, [sp, #4]
 8001dac:	9b01      	ldr	r3, [sp, #4]
  /* System interrupt init*/

  /* USER CODE BEGIN MspInit 1 */

  /* USER CODE END MspInit 1 */
}
 8001dae:	b002      	add	sp, #8
 8001db0:	4770      	bx	lr
 8001db2:	46c0      	nop			@ (mov r8, r8)
 8001db4:	40021000 	.word	0x40021000

08001db8 <HAL_ADC_MspInit>:
  * This function configures the hardware resources used in this example
  * @param hadc: ADC handle pointer
  * @retval None
  */
void HAL_ADC_MspInit(ADC_HandleTypeDef* hadc)
{
 8001db8:	b530      	push	{r4, r5, lr}
 8001dba:	0005      	movs	r5, r0
 8001dbc:	b089      	sub	sp, #36	@ 0x24
  GPIO_InitTypeDef GPIO_InitStruct = {0};
 8001dbe:	2214      	movs	r2, #20
 8001dc0:	2100      	movs	r1, #0
 8001dc2:	a803      	add	r0, sp, #12
 8001dc4:	f003 f86a 	bl	8004e9c <memset>
  if(hadc->Instance==ADC1)
 8001dc8:	4b22      	ldr	r3, [pc, #136]	@ (8001e54 <HAL_ADC_MspInit+0x9c>)
 8001dca:	682a      	ldr	r2, [r5, #0]
 8001dcc:	429a      	cmp	r2, r3
 8001dce:	d13f      	bne.n	8001e50 <HAL_ADC_MspInit+0x98>
  {
    /* USER CODE BEGIN ADC1_MspInit 0 */

    /* USER CODE END ADC1_MspInit 0 */
    /* Peripheral clock enable */
    __HAL_RCC_ADC_CLK_ENABLE();
 8001dd0:	2180      	movs	r1, #128	@ 0x80
 8001dd2:	4b21      	ldr	r3, [pc, #132]	@ (8001e58 <HAL_ADC_MspInit+0xa0>)
 8001dd4:	0349      	lsls	r1, r1, #13
 8001dd6:	6c1a      	ldr	r2, [r3, #64]	@ 0x40
    PA7     ------> ADC1_IN7
    */
    GPIO_InitStruct.Pin = ADC_Angle_Pin|ADC_I_U_Pin|ADC_I_V_Pin|ADC_VIN_Pin;
    GPIO_InitStruct.Mode = GPIO_MODE_ANALOG;
    GPIO_InitStruct.Pull = GPIO_NOPULL;
    HAL_GPIO_Init(GPIOA, &GPIO_InitStruct);
 8001dd8:	20a0      	movs	r0, #160	@ 0xa0
    __HAL_RCC_ADC_CLK_ENABLE();
 8001dda:	430a      	orrs	r2, r1
 8001ddc:	641a      	str	r2, [r3, #64]	@ 0x40
 8001dde:	6c1a      	ldr	r2, [r3, #64]	@ 0x40
    HAL_GPIO_Init(GPIOA, &GPIO_InitStruct);
 8001de0:	05c0      	lsls	r0, r0, #23
    __HAL_RCC_ADC_CLK_ENABLE();
 8001de2:	400a      	ands	r2, r1
    __HAL_RCC_GPIOA_CLK_ENABLE();
 8001de4:	2101      	movs	r1, #1
    __HAL_RCC_ADC_CLK_ENABLE();
 8001de6:	9201      	str	r2, [sp, #4]
 8001de8:	9a01      	ldr	r2, [sp, #4]
    __HAL_RCC_GPIOA_CLK_ENABLE();
 8001dea:	6b5a      	ldr	r2, [r3, #52]	@ 0x34
 8001dec:	430a      	orrs	r2, r1
 8001dee:	635a      	str	r2, [r3, #52]	@ 0x34
 8001df0:	6b5b      	ldr	r3, [r3, #52]	@ 0x34
 8001df2:	400b      	ands	r3, r1
 8001df4:	9302      	str	r3, [sp, #8]
 8001df6:	9b02      	ldr	r3, [sp, #8]
    GPIO_InitStruct.Pin = ADC_Angle_Pin|ADC_I_U_Pin|ADC_I_V_Pin|ADC_VIN_Pin;
 8001df8:	23b1      	movs	r3, #177	@ 0xb1
    HAL_GPIO_Init(GPIOA, &GPIO_InitStruct);
 8001dfa:	a903      	add	r1, sp, #12
    GPIO_InitStruct.Pin = ADC_Angle_Pin|ADC_I_U_Pin|ADC_I_V_Pin|ADC_VIN_Pin;
 8001dfc:	9303      	str	r3, [sp, #12]
    GPIO_InitStruct.Mode = GPIO_MODE_ANALOG;
 8001dfe:	3bae      	subs	r3, #174	@ 0xae
 8001e00:	9304      	str	r3, [sp, #16]
    HAL_GPIO_Init(GPIOA, &GPIO_InitStruct);
 8001e02:	f000 fde7 	bl	80029d4 <HAL_GPIO_Init>

    /* ADC1 DMA Init */
    /* ADC1 Init */
    hdma_adc1.Instance = DMA1_Channel1;
 8001e06:	4c15      	ldr	r4, [pc, #84]	@ (8001e5c <HAL_ADC_MspInit+0xa4>)
 8001e08:	4b15      	ldr	r3, [pc, #84]	@ (8001e60 <HAL_ADC_MspInit+0xa8>)
    hdma_adc1.Init.MemInc = DMA_MINC_ENABLE;
    hdma_adc1.Init.PeriphDataAlignment = DMA_PDATAALIGN_HALFWORD;
    hdma_adc1.Init.MemDataAlignment = DMA_MDATAALIGN_HALFWORD;
    hdma_adc1.Init.Mode = DMA_CIRCULAR;
    hdma_adc1.Init.Priority = DMA_PRIORITY_MEDIUM;
    if (HAL_DMA_Init(&hdma_adc1) != HAL_OK)
 8001e0a:	0020      	movs	r0, r4
    hdma_adc1.Instance = DMA1_Channel1;
 8001e0c:	6023      	str	r3, [r4, #0]
    hdma_adc1.Init.Request = DMA_REQUEST_ADC1;
 8001e0e:	2305      	movs	r3, #5
 8001e10:	6063      	str	r3, [r4, #4]
    hdma_adc1.Init.Direction = DMA_PERIPH_TO_MEMORY;
 8001e12:	2300      	movs	r3, #0
 8001e14:	60a3      	str	r3, [r4, #8]
    hdma_adc1.Init.PeriphInc = DMA_PINC_DISABLE;
 8001e16:	60e3      	str	r3, [r4, #12]
    hdma_adc1.Init.MemInc = DMA_MINC_ENABLE;
 8001e18:	3380      	adds	r3, #128	@ 0x80
 8001e1a:	6123      	str	r3, [r4, #16]
    hdma_adc1.Init.PeriphDataAlignment = DMA_PDATAALIGN_HALFWORD;
 8001e1c:	3380      	adds	r3, #128	@ 0x80
 8001e1e:	6163      	str	r3, [r4, #20]
    hdma_adc1.Init.MemDataAlignment = DMA_MDATAALIGN_HALFWORD;
 8001e20:	2380      	movs	r3, #128	@ 0x80
 8001e22:	00db      	lsls	r3, r3, #3
 8001e24:	61a3      	str	r3, [r4, #24]
    hdma_adc1.Init.Mode = DMA_CIRCULAR;
 8001e26:	2320      	movs	r3, #32
 8001e28:	61e3      	str	r3, [r4, #28]
    hdma_adc1.Init.Priority = DMA_PRIORITY_MEDIUM;
 8001e2a:	2380      	movs	r3, #128	@ 0x80
 8001e2c:	015b      	lsls	r3, r3, #5
 8001e2e:	6223      	str	r3, [r4, #32]
    if (HAL_DMA_Init(&hdma_adc1) != HAL_OK)
 8001e30:	f000 fce4 	bl	80027fc <HAL_DMA_Init>
 8001e34:	2800      	cmp	r0, #0
 8001e36:	d001      	beq.n	8001e3c <HAL_ADC_MspInit+0x84>
    {
      Error_Handler();
 8001e38:	f7ff fd58 	bl	80018ec <Error_Handler>
    }

    __HAL_LINKDMA(hadc,DMA_Handle,hdma_adc1);

    /* ADC1 interrupt Init */
    HAL_NVIC_SetPriority(ADC1_IRQn, 0, 0);
 8001e3c:	2200      	movs	r2, #0
 8001e3e:	200c      	movs	r0, #12
 8001e40:	0011      	movs	r1, r2
    __HAL_LINKDMA(hadc,DMA_Handle,hdma_adc1);
 8001e42:	652c      	str	r4, [r5, #80]	@ 0x50
 8001e44:	62a5      	str	r5, [r4, #40]	@ 0x28
    HAL_NVIC_SetPriority(ADC1_IRQn, 0, 0);
 8001e46:	f000 fc6f 	bl	8002728 <HAL_NVIC_SetPriority>
    HAL_NVIC_EnableIRQ(ADC1_IRQn);
 8001e4a:	200c      	movs	r0, #12
 8001e4c:	f000 fc96 	bl	800277c <HAL_NVIC_EnableIRQ>

    /* USER CODE END ADC1_MspInit 1 */

  }

}
 8001e50:	b009      	add	sp, #36	@ 0x24
 8001e52:	bd30      	pop	{r4, r5, pc}
 8001e54:	40012400 	.word	0x40012400
 8001e58:	40021000 	.word	0x40021000
 8001e5c:	2000017c 	.word	0x2000017c
 8001e60:	40020008 	.word	0x40020008

08001e64 <HAL_I2C_MspInit>:
  * This function configures the hardware resources used in this example
  * @param hi2c: I2C handle pointer
  * @retval None
  */
void HAL_I2C_MspInit(I2C_HandleTypeDef* hi2c)
{
 8001e64:	b530      	push	{r4, r5, lr}
 8001e66:	0004      	movs	r4, r0
 8001e68:	b08f      	sub	sp, #60	@ 0x3c
  GPIO_InitTypeDef GPIO_InitStruct = {0};
 8001e6a:	2214      	movs	r2, #20
 8001e6c:	2100      	movs	r1, #0
 8001e6e:	a803      	add	r0, sp, #12
 8001e70:	f003 f814 	bl	8004e9c <memset>
  RCC_PeriphCLKInitTypeDef PeriphClkInit = {0};
 8001e74:	2218      	movs	r2, #24
 8001e76:	2100      	movs	r1, #0
 8001e78:	a808      	add	r0, sp, #32
 8001e7a:	f003 f80f 	bl	8004e9c <memset>
  if(hi2c->Instance==I2C1)
 8001e7e:	4b1b      	ldr	r3, [pc, #108]	@ (8001eec <HAL_I2C_MspInit+0x88>)
 8001e80:	6822      	ldr	r2, [r4, #0]
 8001e82:	429a      	cmp	r2, r3
 8001e84:	d130      	bne.n	8001ee8 <HAL_I2C_MspInit+0x84>

    /* USER CODE END I2C1_MspInit 0 */

  /** Initializes the peripherals clocks
  */
    PeriphClkInit.PeriphClockSelection = RCC_PERIPHCLK_I2C1;
 8001e86:	2320      	movs	r3, #32
    PeriphClkInit.I2c1ClockSelection = RCC_I2C1CLKSOURCE_PCLK1;
    if (HAL_RCCEx_PeriphCLKConfig(&PeriphClkInit) != HAL_OK)
 8001e88:	a808      	add	r0, sp, #32
    PeriphClkInit.PeriphClockSelection = RCC_PERIPHCLK_I2C1;
 8001e8a:	9308      	str	r3, [sp, #32]
    if (HAL_RCCEx_PeriphCLKConfig(&PeriphClkInit) != HAL_OK)
 8001e8c:	f002 fb10 	bl	80044b0 <HAL_RCCEx_PeriphCLKConfig>
 8001e90:	2800      	cmp	r0, #0
 8001e92:	d001      	beq.n	8001e98 <HAL_I2C_MspInit+0x34>
    {
      Error_Handler();
 8001e94:	f7ff fd2a 	bl	80018ec <Error_Handler>
    }

    __HAL_RCC_GPIOB_CLK_ENABLE();
 8001e98:	2202      	movs	r2, #2
 8001e9a:	4c15      	ldr	r4, [pc, #84]	@ (8001ef0 <HAL_I2C_MspInit+0x8c>)
    PB8     ------> I2C1_SCL
    PB9     ------> I2C1_SDA
    */
    GPIO_InitStruct.Pin = GPIO_PIN_8|GPIO_PIN_9;
    GPIO_InitStruct.Mode = GPIO_MODE_AF_OD;
    GPIO_InitStruct.Pull = GPIO_NOPULL;
 8001e9c:	2500      	movs	r5, #0
    __HAL_RCC_GPIOB_CLK_ENABLE();
 8001e9e:	6b63      	ldr	r3, [r4, #52]	@ 0x34
    GPIO_InitStruct.Speed = GPIO_SPEED_FREQ_LOW;
    GPIO_InitStruct.Alternate = GPIO_AF6_I2C1;
    HAL_GPIO_Init(GPIOB, &GPIO_InitStruct);
 8001ea0:	4814      	ldr	r0, [pc, #80]	@ (8001ef4 <HAL_I2C_MspInit+0x90>)
    __HAL_RCC_GPIOB_CLK_ENABLE();
 8001ea2:	4313      	orrs	r3, r2
 8001ea4:	6363      	str	r3, [r4, #52]	@ 0x34
 8001ea6:	6b63      	ldr	r3, [r4, #52]	@ 0x34
    HAL_GPIO_Init(GPIOB, &GPIO_InitStruct);
 8001ea8:	a903      	add	r1, sp, #12
    __HAL_RCC_GPIOB_CLK_ENABLE();
 8001eaa:	4013      	ands	r3, r2
 8001eac:	9301      	str	r3, [sp, #4]
 8001eae:	9b01      	ldr	r3, [sp, #4]
    GPIO_InitStruct.Pin = GPIO_PIN_8|GPIO_PIN_9;
 8001eb0:	23c0      	movs	r3, #192	@ 0xc0
 8001eb2:	009b      	lsls	r3, r3, #2
 8001eb4:	9303      	str	r3, [sp, #12]
    GPIO_InitStruct.Mode = GPIO_MODE_AF_OD;
 8001eb6:	2312      	movs	r3, #18
 8001eb8:	9304      	str	r3, [sp, #16]
    GPIO_InitStruct.Alternate = GPIO_AF6_I2C1;
 8001eba:	3b0c      	subs	r3, #12
 8001ebc:	9307      	str	r3, [sp, #28]
    GPIO_InitStruct.Pull = GPIO_NOPULL;
 8001ebe:	9505      	str	r5, [sp, #20]
    GPIO_InitStruct.Speed = GPIO_SPEED_FREQ_LOW;
 8001ec0:	9506      	str	r5, [sp, #24]
    HAL_GPIO_Init(GPIOB, &GPIO_InitStruct);
 8001ec2:	f000 fd87 	bl	80029d4 <HAL_GPIO_Init>

    /* Peripheral clock enable */
    __HAL_RCC_I2C1_CLK_ENABLE();
 8001ec6:	2280      	movs	r2, #128	@ 0x80
 8001ec8:	6be3      	ldr	r3, [r4, #60]	@ 0x3c
 8001eca:	0392      	lsls	r2, r2, #14
 8001ecc:	4313      	orrs	r3, r2
 8001ece:	63e3      	str	r3, [r4, #60]	@ 0x3c
 8001ed0:	6be3      	ldr	r3, [r4, #60]	@ 0x3c
    /* I2C1 interrupt Init */
    HAL_NVIC_SetPriority(I2C1_IRQn, 0, 0);
 8001ed2:	2017      	movs	r0, #23
    __HAL_RCC_I2C1_CLK_ENABLE();
 8001ed4:	4013      	ands	r3, r2
 8001ed6:	9302      	str	r3, [sp, #8]
    HAL_NVIC_SetPriority(I2C1_IRQn, 0, 0);
 8001ed8:	002a      	movs	r2, r5
 8001eda:	0029      	movs	r1, r5
    __HAL_RCC_I2C1_CLK_ENABLE();
 8001edc:	9b02      	ldr	r3, [sp, #8]
    HAL_NVIC_SetPriority(I2C1_IRQn, 0, 0);
 8001ede:	f000 fc23 	bl	8002728 <HAL_NVIC_SetPriority>
    HAL_NVIC_EnableIRQ(I2C1_IRQn);
 8001ee2:	2017      	movs	r0, #23
 8001ee4:	f000 fc4a 	bl	800277c <HAL_NVIC_EnableIRQ>

    /* USER CODE END I2C1_MspInit 1 */

  }

}
 8001ee8:	b00f      	add	sp, #60	@ 0x3c
 8001eea:	bd30      	pop	{r4, r5, pc}
 8001eec:	40005400 	.word	0x40005400
 8001ef0:	40021000 	.word	0x40021000
 8001ef4:	50000400 	.word	0x50000400

08001ef8 <HAL_TIM_Base_MspInit>:
  * @param htim_base: TIM_Base handle pointer
  * @retval None
  */
void HAL_TIM_Base_MspInit(TIM_HandleTypeDef* htim_base)
{
  if(htim_base->Instance==TIM1)
 8001ef8:	6803      	ldr	r3, [r0, #0]
 8001efa:	4a16      	ldr	r2, [pc, #88]	@ (8001f54 <HAL_TIM_Base_MspInit+0x5c>)
{
 8001efc:	b084      	sub	sp, #16
  if(htim_base->Instance==TIM1)
 8001efe:	4293      	cmp	r3, r2
 8001f00:	d10b      	bne.n	8001f1a <HAL_TIM_Base_MspInit+0x22>
  {
    /* USER CODE BEGIN TIM1_MspInit 0 */

    /* USER CODE END TIM1_MspInit 0 */
    /* Peripheral clock enable */
    __HAL_RCC_TIM1_CLK_ENABLE();
 8001f02:	2180      	movs	r1, #128	@ 0x80
 8001f04:	4b14      	ldr	r3, [pc, #80]	@ (8001f58 <HAL_TIM_Base_MspInit+0x60>)
 8001f06:	0109      	lsls	r1, r1, #4
 8001f08:	6c1a      	ldr	r2, [r3, #64]	@ 0x40
 8001f0a:	430a      	orrs	r2, r1
 8001f0c:	641a      	str	r2, [r3, #64]	@ 0x40
 8001f0e:	6c1b      	ldr	r3, [r3, #64]	@ 0x40
 8001f10:	400b      	ands	r3, r1
 8001f12:	9301      	str	r3, [sp, #4]
 8001f14:	9b01      	ldr	r3, [sp, #4]
    /* USER CODE BEGIN TIM17_MspInit 1 */

    /* USER CODE END TIM17_MspInit 1 */
  }

}
 8001f16:	b004      	add	sp, #16
 8001f18:	4770      	bx	lr
  else if(htim_base->Instance==TIM16)
 8001f1a:	4a10      	ldr	r2, [pc, #64]	@ (8001f5c <HAL_TIM_Base_MspInit+0x64>)
 8001f1c:	4293      	cmp	r3, r2
 8001f1e:	d10a      	bne.n	8001f36 <HAL_TIM_Base_MspInit+0x3e>
    __HAL_RCC_TIM16_CLK_ENABLE();
 8001f20:	2180      	movs	r1, #128	@ 0x80
 8001f22:	4b0d      	ldr	r3, [pc, #52]	@ (8001f58 <HAL_TIM_Base_MspInit+0x60>)
 8001f24:	0289      	lsls	r1, r1, #10
 8001f26:	6c1a      	ldr	r2, [r3, #64]	@ 0x40
 8001f28:	430a      	orrs	r2, r1
 8001f2a:	641a      	str	r2, [r3, #64]	@ 0x40
 8001f2c:	6c1b      	ldr	r3, [r3, #64]	@ 0x40
 8001f2e:	400b      	ands	r3, r1
 8001f30:	9302      	str	r3, [sp, #8]
 8001f32:	9b02      	ldr	r3, [sp, #8]
 8001f34:	e7ef      	b.n	8001f16 <HAL_TIM_Base_MspInit+0x1e>
  else if(htim_base->Instance==TIM17)
 8001f36:	4a0a      	ldr	r2, [pc, #40]	@ (8001f60 <HAL_TIM_Base_MspInit+0x68>)
 8001f38:	4293      	cmp	r3, r2
 8001f3a:	d1ec      	bne.n	8001f16 <HAL_TIM_Base_MspInit+0x1e>
    __HAL_RCC_TIM17_CLK_ENABLE();
 8001f3c:	2180      	movs	r1, #128	@ 0x80
 8001f3e:	4b06      	ldr	r3, [pc, #24]	@ (8001f58 <HAL_TIM_Base_MspInit+0x60>)
 8001f40:	02c9      	lsls	r1, r1, #11
 8001f42:	6c1a      	ldr	r2, [r3, #64]	@ 0x40
 8001f44:	430a      	orrs	r2, r1
 8001f46:	641a      	str	r2, [r3, #64]	@ 0x40
 8001f48:	6c1b      	ldr	r3, [r3, #64]	@ 0x40
 8001f4a:	400b      	ands	r3, r1
 8001f4c:	9303      	str	r3, [sp, #12]
 8001f4e:	9b03      	ldr	r3, [sp, #12]
}
 8001f50:	e7e1      	b.n	8001f16 <HAL_TIM_Base_MspInit+0x1e>
 8001f52:	46c0      	nop			@ (mov r8, r8)
 8001f54:	40012c00 	.word	0x40012c00
 8001f58:	40021000 	.word	0x40021000
 8001f5c:	40014400 	.word	0x40014400
 8001f60:	40014800 	.word	0x40014800

08001f64 <HAL_TIM_MspPostInit>:

void HAL_TIM_MspPostInit(TIM_HandleTypeDef* htim)
{
 8001f64:	b530      	push	{r4, r5, lr}
 8001f66:	0004      	movs	r4, r0
 8001f68:	b089      	sub	sp, #36	@ 0x24
  GPIO_InitTypeDef GPIO_InitStruct = {0};
 8001f6a:	2214      	movs	r2, #20
 8001f6c:	2100      	movs	r1, #0
 8001f6e:	a803      	add	r0, sp, #12
 8001f70:	f002 ff94 	bl	8004e9c <memset>
  if(htim->Instance==TIM1)
 8001f74:	6823      	ldr	r3, [r4, #0]
 8001f76:	4a20      	ldr	r2, [pc, #128]	@ (8001ff8 <HAL_TIM_MspPostInit+0x94>)
 8001f78:	4293      	cmp	r3, r2
 8001f7a:	d127      	bne.n	8001fcc <HAL_TIM_MspPostInit+0x68>
  {
    /* USER CODE BEGIN TIM1_MspPostInit 0 */

    /* USER CODE END TIM1_MspPostInit 0 */
    __HAL_RCC_GPIOA_CLK_ENABLE();
 8001f7c:	2501      	movs	r5, #1
    __HAL_RCC_GPIOB_CLK_ENABLE();
 8001f7e:	2402      	movs	r4, #2
    __HAL_RCC_GPIOA_CLK_ENABLE();
 8001f80:	4b1e      	ldr	r3, [pc, #120]	@ (8001ffc <HAL_TIM_MspPostInit+0x98>)
    GPIO_InitStruct.Pin = PWM_U_Pin|PWM_V_Pin;
    GPIO_InitStruct.Mode = GPIO_MODE_AF_PP;
    GPIO_InitStruct.Pull = GPIO_NOPULL;
    GPIO_InitStruct.Speed = GPIO_SPEED_FREQ_LOW;
    GPIO_InitStruct.Alternate = GPIO_AF2_TIM1;
    HAL_GPIO_Init(GPIOA, &GPIO_InitStruct);
 8001f82:	20a0      	movs	r0, #160	@ 0xa0
    __HAL_RCC_GPIOA_CLK_ENABLE();
 8001f84:	6b5a      	ldr	r2, [r3, #52]	@ 0x34
    HAL_GPIO_Init(GPIOA, &GPIO_InitStruct);
 8001f86:	a903      	add	r1, sp, #12
    __HAL_RCC_GPIOA_CLK_ENABLE();
 8001f88:	432a      	orrs	r2, r5
 8001f8a:	635a      	str	r2, [r3, #52]	@ 0x34
 8001f8c:	6b5a      	ldr	r2, [r3, #52]	@ 0x34
    HAL_GPIO_Init(GPIOA, &GPIO_InitStruct);
 8001f8e:	05c0      	lsls	r0, r0, #23
    __HAL_RCC_GPIOA_CLK_ENABLE();
 8001f90:	402a      	ands	r2, r5
 8001f92:	9200      	str	r2, [sp, #0]
 8001f94:	9a00      	ldr	r2, [sp, #0]
    __HAL_RCC_GPIOB_CLK_ENABLE();
 8001f96:	6b5a      	ldr	r2, [r3, #52]	@ 0x34
 8001f98:	4322      	orrs	r2, r4
 8001f9a:	635a      	str	r2, [r3, #52]	@ 0x34
 8001f9c:	6b5b      	ldr	r3, [r3, #52]	@ 0x34
    GPIO_InitStruct.Mode = GPIO_MODE_AF_PP;
 8001f9e:	9404      	str	r4, [sp, #16]
    __HAL_RCC_GPIOB_CLK_ENABLE();
 8001fa0:	4023      	ands	r3, r4
 8001fa2:	9301      	str	r3, [sp, #4]
 8001fa4:	9b01      	ldr	r3, [sp, #4]
    GPIO_InitStruct.Pin = PWM_U_Pin|PWM_V_Pin;
 8001fa6:	2390      	movs	r3, #144	@ 0x90
 8001fa8:	011b      	lsls	r3, r3, #4
 8001faa:	9303      	str	r3, [sp, #12]
    GPIO_InitStruct.Alternate = GPIO_AF2_TIM1;
 8001fac:	9407      	str	r4, [sp, #28]
    HAL_GPIO_Init(GPIOA, &GPIO_InitStruct);
 8001fae:	f000 fd11 	bl	80029d4 <HAL_GPIO_Init>

    GPIO_InitStruct.Pin = PWM_W_Pin;
 8001fb2:	2308      	movs	r3, #8
 8001fb4:	9303      	str	r3, [sp, #12]
    GPIO_InitStruct.Mode = GPIO_MODE_AF_PP;
    GPIO_InitStruct.Pull = GPIO_NOPULL;
 8001fb6:	2300      	movs	r3, #0
    GPIO_InitStruct.Speed = GPIO_SPEED_FREQ_LOW;
    GPIO_InitStruct.Alternate = GPIO_AF1_TIM1;
    HAL_GPIO_Init(PWM_W_GPIO_Port, &GPIO_InitStruct);
 8001fb8:	4811      	ldr	r0, [pc, #68]	@ (8002000 <HAL_TIM_MspPostInit+0x9c>)
    GPIO_InitStruct.Mode = GPIO_MODE_AF_PP;
 8001fba:	9404      	str	r4, [sp, #16]
    GPIO_InitStruct.Pull = GPIO_NOPULL;
 8001fbc:	9305      	str	r3, [sp, #20]
    GPIO_InitStruct.Speed = GPIO_SPEED_FREQ_LOW;
 8001fbe:	9306      	str	r3, [sp, #24]
    GPIO_InitStruct.Alternate = GPIO_AF1_TIM1;
 8001fc0:	9507      	str	r5, [sp, #28]
    HAL_GPIO_Init(PWM_W_GPIO_Port, &GPIO_InitStruct);
 8001fc2:	a903      	add	r1, sp, #12
    GPIO_InitStruct.Pin = GPIO_PIN_6;
    GPIO_InitStruct.Mode = GPIO_MODE_AF_PP;
    GPIO_InitStruct.Pull = GPIO_NOPULL;
    GPIO_InitStruct.Speed = GPIO_SPEED_FREQ_LOW;
    GPIO_InitStruct.Alternate = GPIO_AF5_TIM16;
    HAL_GPIO_Init(GPIOA, &GPIO_InitStruct);
 8001fc4:	f000 fd06 	bl	80029d4 <HAL_GPIO_Init>
    /* USER CODE BEGIN TIM16_MspPostInit 1 */

    /* USER CODE END TIM16_MspPostInit 1 */
  }

}
 8001fc8:	b009      	add	sp, #36	@ 0x24
 8001fca:	bd30      	pop	{r4, r5, pc}
  else if(htim->Instance==TIM16)
 8001fcc:	4a0d      	ldr	r2, [pc, #52]	@ (8002004 <HAL_TIM_MspPostInit+0xa0>)
 8001fce:	4293      	cmp	r3, r2
 8001fd0:	d1fa      	bne.n	8001fc8 <HAL_TIM_MspPostInit+0x64>
    __HAL_RCC_GPIOA_CLK_ENABLE();
 8001fd2:	2101      	movs	r1, #1
 8001fd4:	4b09      	ldr	r3, [pc, #36]	@ (8001ffc <HAL_TIM_MspPostInit+0x98>)
    HAL_GPIO_Init(GPIOA, &GPIO_InitStruct);
 8001fd6:	20a0      	movs	r0, #160	@ 0xa0
    __HAL_RCC_GPIOA_CLK_ENABLE();
 8001fd8:	6b5a      	ldr	r2, [r3, #52]	@ 0x34
    HAL_GPIO_Init(GPIOA, &GPIO_InitStruct);
 8001fda:	05c0      	lsls	r0, r0, #23
    __HAL_RCC_GPIOA_CLK_ENABLE();
 8001fdc:	430a      	orrs	r2, r1
 8001fde:	635a      	str	r2, [r3, #52]	@ 0x34
 8001fe0:	6b5b      	ldr	r3, [r3, #52]	@ 0x34
 8001fe2:	400b      	ands	r3, r1
 8001fe4:	9302      	str	r3, [sp, #8]
 8001fe6:	9b02      	ldr	r3, [sp, #8]
    GPIO_InitStruct.Pin = GPIO_PIN_6;
 8001fe8:	2340      	movs	r3, #64	@ 0x40
 8001fea:	9303      	str	r3, [sp, #12]
    GPIO_InitStruct.Mode = GPIO_MODE_AF_PP;
 8001fec:	3b3e      	subs	r3, #62	@ 0x3e
 8001fee:	9304      	str	r3, [sp, #16]
    GPIO_InitStruct.Alternate = GPIO_AF5_TIM16;
 8001ff0:	3303      	adds	r3, #3
 8001ff2:	9307      	str	r3, [sp, #28]
    HAL_GPIO_Init(GPIOA, &GPIO_InitStruct);
 8001ff4:	a903      	add	r1, sp, #12
 8001ff6:	e7e5      	b.n	8001fc4 <HAL_TIM_MspPostInit+0x60>
 8001ff8:	40012c00 	.word	0x40012c00
 8001ffc:	40021000 	.word	0x40021000
 8002000:	50000400 	.word	0x50000400
 8002004:	40014400 	.word	0x40014400

08002008 <NMI_Handler>:
{
  /* USER CODE BEGIN NonMaskableInt_IRQn 0 */

  /* USER CODE END NonMaskableInt_IRQn 0 */
  /* USER CODE BEGIN NonMaskableInt_IRQn 1 */
   while (1)
 8002008:	e7fe      	b.n	8002008 <NMI_Handler>

0800200a <HardFault_Handler>:
void HardFault_Handler(void)
{
  /* USER CODE BEGIN HardFault_IRQn 0 */

  /* USER CODE END HardFault_IRQn 0 */
  while (1)
 800200a:	e7fe      	b.n	800200a <HardFault_Handler>

0800200c <SVC_Handler>:

  /* USER CODE END SVC_IRQn 0 */
  /* USER CODE BEGIN SVC_IRQn 1 */

  /* USER CODE END SVC_IRQn 1 */
}
 800200c:	4770      	bx	lr

0800200e <PendSV_Handler>:

/**
  * @brief This function handles Pendable request for system service.
  */
void PendSV_Handler(void)
 800200e:	4770      	bx	lr

08002010 <SysTick_Handler>:

/**
  * @brief This function handles System tick timer.
  */
void SysTick_Handler(void)
{
 8002010:	b510      	push	{r4, lr}
  /* USER CODE BEGIN SysTick_IRQn 0 */

  /* USER CODE END SysTick_IRQn 0 */
  HAL_IncTick();
 8002012:	f000 f889 	bl	8002128 <HAL_IncTick>
  /* USER CODE BEGIN SysTick_IRQn 1 */

  /* USER CODE END SysTick_IRQn 1 */
}
 8002016:	bd10      	pop	{r4, pc}

08002018 <DMA1_Channel1_IRQHandler>:

/**
  * @brief This function handles DMA1 channel 1 interrupt.
  */
void DMA1_Channel1_IRQHandler(void)
{
 8002018:	b510      	push	{r4, lr}
  /* USER CODE BEGIN DMA1_Channel1_IRQn 0 */

  /* USER CODE END DMA1_Channel1_IRQn 0 */
  HAL_DMA_IRQHandler(&hdma_adc1);
 800201a:	4802      	ldr	r0, [pc, #8]	@ (8002024 <DMA1_Channel1_IRQHandler+0xc>)
 800201c:	f000 fc82 	bl	8002924 <HAL_DMA_IRQHandler>
  /* USER CODE BEGIN DMA1_Channel1_IRQn 1 */

  /* USER CODE END DMA1_Channel1_IRQn 1 */
}
 8002020:	bd10      	pop	{r4, pc}
 8002022:	46c0      	nop			@ (mov r8, r8)
 8002024:	2000017c 	.word	0x2000017c

08002028 <ADC1_IRQHandler>:

/**
  * @brief This function handles ADC1 interrupt.
  */
void ADC1_IRQHandler(void)
{
 8002028:	b510      	push	{r4, lr}
  /* USER CODE BEGIN ADC1_IRQn 0 */

  /* USER CODE END ADC1_IRQn 0 */
  HAL_ADC_IRQHandler(&hadc1);
 800202a:	4802      	ldr	r0, [pc, #8]	@ (8002034 <ADC1_IRQHandler+0xc>)
 800202c:	f000 f9a6 	bl	800237c <HAL_ADC_IRQHandler>
  /* USER CODE BEGIN ADC1_IRQn 1 */

  /* USER CODE END ADC1_IRQn 1 */
}
 8002030:	bd10      	pop	{r4, pc}
 8002032:	46c0      	nop			@ (mov r8, r8)
 8002034:	200001d8 	.word	0x200001d8

08002038 <I2C1_IRQHandler>:
void I2C1_IRQHandler(void)
{
  /* USER CODE BEGIN I2C1_IRQn 0 */

  /* USER CODE END I2C1_IRQn 0 */
  if (hi2c1.Instance->ISR & (I2C_FLAG_BERR | I2C_FLAG_ARLO | I2C_FLAG_OVR))
 8002038:	4806      	ldr	r0, [pc, #24]	@ (8002054 <I2C1_IRQHandler+0x1c>)
{
 800203a:	b510      	push	{r4, lr}
  if (hi2c1.Instance->ISR & (I2C_FLAG_BERR | I2C_FLAG_ARLO | I2C_FLAG_OVR))
 800203c:	6803      	ldr	r3, [r0, #0]
 800203e:	699a      	ldr	r2, [r3, #24]
 8002040:	23e0      	movs	r3, #224	@ 0xe0
 8002042:	00db      	lsls	r3, r3, #3
 8002044:	421a      	tst	r2, r3
 8002046:	d002      	beq.n	800204e <I2C1_IRQHandler+0x16>
  {
    HAL_I2C_ER_IRQHandler(&hi2c1);
 8002048:	f001 fc7e 	bl	8003948 <HAL_I2C_ER_IRQHandler>
    HAL_I2C_EV_IRQHandler(&hi2c1);
  }
  /* USER CODE BEGIN I2C1_IRQn 1 */

  /* USER CODE END I2C1_IRQn 1 */
}
 800204c:	bd10      	pop	{r4, pc}
    HAL_I2C_EV_IRQHandler(&hi2c1);
 800204e:	f001 f8af 	bl	80031b0 <HAL_I2C_EV_IRQHandler>
}
 8002052:	e7fb      	b.n	800204c <I2C1_IRQHandler+0x14>
 8002054:	20000128 	.word	0x20000128

08002058 <SystemInit>:
{
  /* Configure the Vector Table location -------------------------------------*/
#if defined(USER_VECT_TAB_ADDRESS)
  SCB->VTOR = VECT_TAB_BASE_ADDRESS | VECT_TAB_OFFSET; /* Vector Table Relocation */
#endif /* USER_VECT_TAB_ADDRESS */
}
 8002058:	4770      	bx	lr
	...

0800205c <Reset_Handler>:
 800205c:	480d      	ldr	r0, [pc, #52]	@ (8002094 <LoopForever+0x2>)
 800205e:	4685      	mov	sp, r0
 8002060:	f7ff fffa 	bl	8002058 <SystemInit>
 8002064:	480c      	ldr	r0, [pc, #48]	@ (8002098 <LoopForever+0x6>)
 8002066:	490d      	ldr	r1, [pc, #52]	@ (800209c <LoopForever+0xa>)
 8002068:	4a0d      	ldr	r2, [pc, #52]	@ (80020a0 <LoopForever+0xe>)
 800206a:	2300      	movs	r3, #0
 800206c:	e002      	b.n	8002074 <LoopCopyDataInit>

0800206e <CopyDataInit>:
 800206e:	58d4      	ldr	r4, [r2, r3]
 8002070:	50c4      	str	r4, [r0, r3]
 8002072:	3304      	adds	r3, #4

08002074 <LoopCopyDataInit>:
 8002074:	18c4      	adds	r4, r0, r3
 8002076:	428c      	cmp	r4, r1
 8002078:	d3f9      	bcc.n	800206e <CopyDataInit>
 800207a:	4a0a      	ldr	r2, [pc, #40]	@ (80020a4 <LoopForever+0x12>)
 800207c:	4c0a      	ldr	r4, [pc, #40]	@ (80020a8 <LoopForever+0x16>)
 800207e:	2300      	movs	r3, #0
 8002080:	e001      	b.n	8002086 <LoopFillZerobss>

08002082 <FillZerobss>:
 8002082:	6013      	str	r3, [r2, #0]
 8002084:	3204      	adds	r2, #4

08002086 <LoopFillZerobss>:
 8002086:	42a2      	cmp	r2, r4
 8002088:	d3fb      	bcc.n	8002082 <FillZerobss>
 800208a:	f002 ff0f 	bl	8004eac <__libc_init_array>
 800208e:	f7ff fa8d 	bl	80015ac <main>

08002092 <LoopForever>:
 8002092:	e7fe      	b.n	8002092 <LoopForever>
 8002094:	20002000 	.word	0x20002000
 8002098:	20000000 	.word	0x20000000
 800209c:	20000018 	.word	0x20000018
 80020a0:	08005fd0 	.word	0x08005fd0
 80020a4:	20000018 	.word	0x20000018
 80020a8:	2000029c 	.word	0x2000029c

080020ac <DMA1_Ch4_5_DMAMUX1_OVR_IRQHandler>:
 80020ac:	e7fe      	b.n	80020ac <DMA1_Ch4_5_DMAMUX1_OVR_IRQHandler>
	...

080020b0 <HAL_InitTick>:
  *       implementation  in user file.
  * @param TickPriority Tick interrupt priority.
  * @retval HAL status
  */
__weak HAL_StatusTypeDef HAL_InitTick(uint32_t TickPriority)
{
 80020b0:	b570      	push	{r4, r5, r6, lr}
  HAL_StatusTypeDef  status = HAL_OK;

  /* Check uwTickFreq for MisraC 2012 (even if uwTickFreq is a enum type that doesn't take the value zero)*/ 
  if ((uint32_t)uwTickFreq != 0U)
 80020b2:	4b10      	ldr	r3, [pc, #64]	@ (80020f4 <HAL_InitTick+0x44>)
{
 80020b4:	0005      	movs	r5, r0
  if ((uint32_t)uwTickFreq != 0U)
 80020b6:	7819      	ldrb	r1, [r3, #0]
 80020b8:	2900      	cmp	r1, #0
 80020ba:	d101      	bne.n	80020c0 <HAL_InitTick+0x10>
        status = HAL_ERROR;
      }
    }
    else
    {
      status = HAL_ERROR;
 80020bc:	2001      	movs	r0, #1
    status = HAL_ERROR;
  }

  /* Return function status */
  return status;
}
 80020be:	bd70      	pop	{r4, r5, r6, pc}
    if (HAL_SYSTICK_Config(SystemCoreClock / (1000U /(uint32_t)uwTickFreq)) == 0U)
 80020c0:	20fa      	movs	r0, #250	@ 0xfa
 80020c2:	0080      	lsls	r0, r0, #2
 80020c4:	f7fe f826 	bl	8000114 <__udivsi3>
 80020c8:	4c0b      	ldr	r4, [pc, #44]	@ (80020f8 <HAL_InitTick+0x48>)
 80020ca:	0001      	movs	r1, r0
 80020cc:	6820      	ldr	r0, [r4, #0]
 80020ce:	f7fe f821 	bl	8000114 <__udivsi3>
 80020d2:	f000 fb5f 	bl	8002794 <HAL_SYSTICK_Config>
 80020d6:	1e04      	subs	r4, r0, #0
 80020d8:	d1f0      	bne.n	80020bc <HAL_InitTick+0xc>
      if (TickPriority < (1UL << __NVIC_PRIO_BITS))
 80020da:	2d03      	cmp	r5, #3
 80020dc:	d8ee      	bhi.n	80020bc <HAL_InitTick+0xc>
        HAL_NVIC_SetPriority(SysTick_IRQn, TickPriority, 0U);
 80020de:	0002      	movs	r2, r0
 80020e0:	2001      	movs	r0, #1
 80020e2:	0029      	movs	r1, r5
 80020e4:	4240      	negs	r0, r0
 80020e6:	f000 fb1f 	bl	8002728 <HAL_NVIC_SetPriority>
        uwTickPrio = TickPriority;
 80020ea:	4b04      	ldr	r3, [pc, #16]	@ (80020fc <HAL_InitTick+0x4c>)
 80020ec:	0020      	movs	r0, r4
 80020ee:	601d      	str	r5, [r3, #0]
  return status;
 80020f0:	e7e5      	b.n	80020be <HAL_InitTick+0xe>
 80020f2:	46c0      	nop			@ (mov r8, r8)
 80020f4:	20000010 	.word	0x20000010
 80020f8:	2000000c 	.word	0x2000000c
 80020fc:	20000014 	.word	0x20000014

08002100 <HAL_Init>:
  __HAL_FLASH_PREFETCH_BUFFER_ENABLE();
 8002100:	2380      	movs	r3, #128	@ 0x80
 8002102:	4a08      	ldr	r2, [pc, #32]	@ (8002124 <HAL_Init+0x24>)
 8002104:	005b      	lsls	r3, r3, #1
 8002106:	6811      	ldr	r1, [r2, #0]
{
 8002108:	b510      	push	{r4, lr}
  __HAL_FLASH_PREFETCH_BUFFER_ENABLE();
 800210a:	430b      	orrs	r3, r1
  if (HAL_InitTick(TICK_INT_PRIORITY) != HAL_OK)
 800210c:	2003      	movs	r0, #3
  __HAL_FLASH_PREFETCH_BUFFER_ENABLE();
 800210e:	6013      	str	r3, [r2, #0]
  if (HAL_InitTick(TICK_INT_PRIORITY) != HAL_OK)
 8002110:	f7ff ffce 	bl	80020b0 <HAL_InitTick>
 8002114:	1e04      	subs	r4, r0, #0
 8002116:	d103      	bne.n	8002120 <HAL_Init+0x20>
  HAL_MspInit();
 8002118:	f7ff fe36 	bl	8001d88 <HAL_MspInit>
}
 800211c:	0020      	movs	r0, r4
 800211e:	bd10      	pop	{r4, pc}
    status = HAL_ERROR;
 8002120:	2401      	movs	r4, #1
 8002122:	e7fb      	b.n	800211c <HAL_Init+0x1c>
 8002124:	40022000 	.word	0x40022000

08002128 <HAL_IncTick>:
  *      implementations in user file.
  * @retval None
  */
__weak void HAL_IncTick(void)
{
  uwTick += (uint32_t)uwTickFreq;
 8002128:	4a03      	ldr	r2, [pc, #12]	@ (8002138 <HAL_IncTick+0x10>)
 800212a:	4b04      	ldr	r3, [pc, #16]	@ (800213c <HAL_IncTick+0x14>)
 800212c:	6811      	ldr	r1, [r2, #0]
 800212e:	781b      	ldrb	r3, [r3, #0]
 8002130:	185b      	adds	r3, r3, r1
 8002132:	6013      	str	r3, [r2, #0]
}
 8002134:	4770      	bx	lr
 8002136:	46c0      	nop			@ (mov r8, r8)
 8002138:	20000298 	.word	0x20000298
 800213c:	20000010 	.word	0x20000010

08002140 <HAL_GetTick>:
  *       implementations in user file.
  * @retval tick value
  */
__weak uint32_t HAL_GetTick(void)
{
  return uwTick;
 8002140:	4b01      	ldr	r3, [pc, #4]	@ (8002148 <HAL_GetTick+0x8>)
 8002142:	6818      	ldr	r0, [r3, #0]
}
 8002144:	4770      	bx	lr
 8002146:	46c0      	nop			@ (mov r8, r8)
 8002148:	20000298 	.word	0x20000298

0800214c <LL_ADC_REG_IsConversionOngoing>:
  * @param  ADCx ADC instance
  * @retval 0: no conversion is on going on ADC group regular.
  */
__STATIC_INLINE uint32_t LL_ADC_REG_IsConversionOngoing(const ADC_TypeDef *ADCx)
{
  return ((READ_BIT(ADCx->CR, ADC_CR_ADSTART) == (ADC_CR_ADSTART)) ? 1UL : 0UL);
 800214c:	6880      	ldr	r0, [r0, #8]
 800214e:	0740      	lsls	r0, r0, #29
 8002150:	0fc0      	lsrs	r0, r0, #31
}
 8002152:	4770      	bx	lr

08002154 <HAL_ADC_Init>:
{
  HAL_StatusTypeDef tmp_hal_status = HAL_OK;
  uint32_t tmp_cfgr1 = 0UL;
  uint32_t tmp_cfgr2 = 0UL;
  uint32_t tmp_adc_reg_is_conversion_on_going;
  __IO uint32_t wait_loop_index = 0UL;
 8002154:	2300      	movs	r3, #0
{
 8002156:	b5f0      	push	{r4, r5, r6, r7, lr}
 8002158:	b085      	sub	sp, #20
 800215a:	0004      	movs	r4, r0
  __IO uint32_t wait_loop_index = 0UL;
 800215c:	9303      	str	r3, [sp, #12]

  /* Check ADC handle */
  if (hadc == NULL)
 800215e:	4298      	cmp	r0, r3
 8002160:	d100      	bne.n	8002164 <HAL_ADC_Init+0x10>
 8002162:	e0f0      	b.n	8002346 <HAL_ADC_Init+0x1f2>
  /* continuous mode is disabled.                                             */
  assert_param(!((hadc->Init.DiscontinuousConvMode == ENABLE) && (hadc->Init.ContinuousConvMode == ENABLE)));

  /* Actions performed only if ADC is coming from state reset:                */
  /* - Initialization of ADC MSP                                              */
  if (hadc->State == HAL_ADC_STATE_RESET)
 8002164:	6d85      	ldr	r5, [r0, #88]	@ 0x58
 8002166:	429d      	cmp	r5, r3
 8002168:	d105      	bne.n	8002176 <HAL_ADC_Init+0x22>

    /* Init the low level hardware */
    hadc->MspInitCallback(hadc);
#else
    /* Init the low level hardware */
    HAL_ADC_MspInit(hadc);
 800216a:	f7ff fe25 	bl	8001db8 <HAL_ADC_MspInit>

    /* Set ADC error code to none */
    ADC_CLEAR_ERRORCODE(hadc);

    /* Initialize Lock */
    hadc->Lock = HAL_UNLOCKED;
 800216e:	0023      	movs	r3, r4
 8002170:	3354      	adds	r3, #84	@ 0x54
    ADC_CLEAR_ERRORCODE(hadc);
 8002172:	65e5      	str	r5, [r4, #92]	@ 0x5c
    hadc->Lock = HAL_UNLOCKED;
 8002174:	701d      	strb	r5, [r3, #0]
  return ((READ_BIT(ADCx->CR, ADC_CR_ADVREGEN) == (ADC_CR_ADVREGEN)) ? 1UL : 0UL);
 8002176:	2380      	movs	r3, #128	@ 0x80
  }

  if (LL_ADC_IsInternalRegulatorEnabled(hadc->Instance) == 0UL)
 8002178:	6825      	ldr	r5, [r4, #0]
 800217a:	055b      	lsls	r3, r3, #21
 800217c:	68aa      	ldr	r2, [r5, #8]
 800217e:	421a      	tst	r2, r3
 8002180:	d100      	bne.n	8002184 <HAL_ADC_Init+0x30>
 8002182:	e0a7      	b.n	80022d4 <HAL_ADC_Init+0x180>
  HAL_StatusTypeDef tmp_hal_status = HAL_OK;
 8002184:	2200      	movs	r2, #0
 8002186:	68ab      	ldr	r3, [r5, #8]
 8002188:	9201      	str	r2, [sp, #4]
 800218a:	00db      	lsls	r3, r3, #3
 800218c:	d408      	bmi.n	80021a0 <HAL_ADC_Init+0x4c>
  /* or not ADC is coming from state reset (if any potential problem of       */
  /* clocking, voltage regulator would not be enabled).                       */
  if (LL_ADC_IsInternalRegulatorEnabled(hadc->Instance) == 0UL)
  {
    /* Update ADC state machine to error */
    SET_BIT(hadc->State, HAL_ADC_STATE_ERROR_INTERNAL);
 800218e:	2310      	movs	r3, #16

    /* Set ADC error code to ADC peripheral internal error */
    SET_BIT(hadc->ErrorCode, HAL_ADC_ERROR_INTERNAL);
 8002190:	2601      	movs	r6, #1
    SET_BIT(hadc->State, HAL_ADC_STATE_ERROR_INTERNAL);
 8002192:	6da2      	ldr	r2, [r4, #88]	@ 0x58

    tmp_hal_status = HAL_ERROR;
 8002194:	9601      	str	r6, [sp, #4]
    SET_BIT(hadc->State, HAL_ADC_STATE_ERROR_INTERNAL);
 8002196:	4313      	orrs	r3, r2
 8002198:	65a3      	str	r3, [r4, #88]	@ 0x58
    SET_BIT(hadc->ErrorCode, HAL_ADC_ERROR_INTERNAL);
 800219a:	6de3      	ldr	r3, [r4, #92]	@ 0x5c
 800219c:	4333      	orrs	r3, r6
 800219e:	65e3      	str	r3, [r4, #92]	@ 0x5c

  /* Configuration of ADC parameters if previous preliminary actions are      */
  /* correctly completed and if there is no conversion on going on regular    */
  /* group (ADC may already be enabled at this point if HAL_ADC_Init() is     */
  /* called to update a parameter on the fly).                                */
  tmp_adc_reg_is_conversion_on_going = LL_ADC_REG_IsConversionOngoing(hadc->Instance);
 80021a0:	0028      	movs	r0, r5
 80021a2:	f7ff ffd3 	bl	800214c <LL_ADC_REG_IsConversionOngoing>

  if (((hadc->State & HAL_ADC_STATE_ERROR_INTERNAL) == 0UL)
 80021a6:	2210      	movs	r2, #16
 80021a8:	6da3      	ldr	r3, [r4, #88]	@ 0x58
 80021aa:	4013      	ands	r3, r2
 80021ac:	4303      	orrs	r3, r0
 80021ae:	d000      	beq.n	80021b2 <HAL_ADC_Init+0x5e>
 80021b0:	e0cc      	b.n	800234c <HAL_ADC_Init+0x1f8>
      && (tmp_adc_reg_is_conversion_on_going == 0UL)
     )
  {
    /* Set ADC state */
    ADC_STATE_CLR_SET(hadc->State,
 80021b2:	6da2      	ldr	r2, [r4, #88]	@ 0x58
 80021b4:	4b67      	ldr	r3, [pc, #412]	@ (8002354 <HAL_ADC_Init+0x200>)
                    ADC_CFGR1_AUTOWAIT((uint32_t)hadc->Init.LowPowerAutoWait)      |
                    ADC_CFGR1_AUTOOFF((uint32_t)hadc->Init.LowPowerAutoPowerOff)   |
                    ADC_CFGR1_CONTINUOUS((uint32_t)hadc->Init.ContinuousConvMode)  |
                    ADC_CFGR1_OVERRUN(hadc->Init.Overrun)                          |
                    hadc->Init.DataAlign                                           |
                    ADC_SCAN_SEQ_MODE(hadc->Init.ScanConvMode)                     |
 80021b6:	6920      	ldr	r0, [r4, #16]
    ADC_STATE_CLR_SET(hadc->State,
 80021b8:	401a      	ands	r2, r3
 80021ba:	3306      	adds	r3, #6
 80021bc:	33ff      	adds	r3, #255	@ 0xff
 80021be:	4313      	orrs	r3, r2
 80021c0:	65a3      	str	r3, [r4, #88]	@ 0x58
  return ((READ_BIT(ADCx->CR, ADC_CR_ADEN) == (ADC_CR_ADEN)) ? 1UL : 0UL);
 80021c2:	68ab      	ldr	r3, [r5, #8]
 80021c4:	07db      	lsls	r3, r3, #31
 80021c6:	d461      	bmi.n	800228c <HAL_ADC_Init+0x138>
                    ADC_CFGR1_OVERRUN(hadc->Init.Overrun)                          |
 80021c8:	6b27      	ldr	r7, [r4, #48]	@ 0x30
 80021ca:	68e1      	ldr	r1, [r4, #12]
 80021cc:	1e7b      	subs	r3, r7, #1
 80021ce:	419f      	sbcs	r7, r3
 80021d0:	68a3      	ldr	r3, [r4, #8]
                    ADC_CFGR1_CONTINUOUS((uint32_t)hadc->Init.ContinuousConvMode)  |
 80021d2:	7ea2      	ldrb	r2, [r4, #26]
 80021d4:	430b      	orrs	r3, r1
                    ADC_CFGR1_AUTOWAIT((uint32_t)hadc->Init.LowPowerAutoWait)      |
 80021d6:	7e21      	ldrb	r1, [r4, #24]
                    ADC_CFGR1_OVERRUN(hadc->Init.Overrun)                          |
 80021d8:	033f      	lsls	r7, r7, #12
                    ADC_CFGR1_AUTOWAIT((uint32_t)hadc->Init.LowPowerAutoWait)      |
 80021da:	0389      	lsls	r1, r1, #14
 80021dc:	430b      	orrs	r3, r1
                    ADC_CFGR1_AUTOOFF((uint32_t)hadc->Init.LowPowerAutoPowerOff)   |
 80021de:	7e61      	ldrb	r1, [r4, #25]
 80021e0:	03c9      	lsls	r1, r1, #15
 80021e2:	430b      	orrs	r3, r1
                    ADC_CFGR1_CONTINUOUS((uint32_t)hadc->Init.ContinuousConvMode)  |
 80021e4:	0351      	lsls	r1, r2, #13
 80021e6:	430b      	orrs	r3, r1
 80021e8:	469c      	mov	ip, r3
                    ADC_SCAN_SEQ_MODE(hadc->Init.ScanConvMode)                     |
 80021ea:	2800      	cmp	r0, #0
 80021ec:	db00      	blt.n	80021f0 <HAL_ADC_Init+0x9c>
 80021ee:	e086      	b.n	80022fe <HAL_ADC_Init+0x1aa>
 80021f0:	0041      	lsls	r1, r0, #1
 80021f2:	0849      	lsrs	r1, r1, #1
                    ADC_CFGR1_DMACONTREQ((uint32_t)hadc->Init.DMAContinuousRequests));
 80021f4:	0023      	movs	r3, r4
                    ADC_SCAN_SEQ_MODE(hadc->Init.ScanConvMode)                     |
 80021f6:	4666      	mov	r6, ip
                    ADC_CFGR1_DMACONTREQ((uint32_t)hadc->Init.DMAContinuousRequests));
 80021f8:	332c      	adds	r3, #44	@ 0x2c
 80021fa:	781b      	ldrb	r3, [r3, #0]
 80021fc:	005b      	lsls	r3, r3, #1
                    ADC_SCAN_SEQ_MODE(hadc->Init.ScanConvMode)                     |
 80021fe:	4333      	orrs	r3, r6
 8002200:	433b      	orrs	r3, r7
 8002202:	430b      	orrs	r3, r1

      /* Update setting of discontinuous mode only if continuous mode is disabled */
      if (hadc->Init.DiscontinuousConvMode == ENABLE)
 8002204:	1c61      	adds	r1, r4, #1
 8002206:	7fc9      	ldrb	r1, [r1, #31]
 8002208:	2901      	cmp	r1, #1
 800220a:	d105      	bne.n	8002218 <HAL_ADC_Init+0xc4>
      {
        if (hadc->Init.ContinuousConvMode == DISABLE)
 800220c:	2a00      	cmp	r2, #0
 800220e:	d000      	beq.n	8002212 <HAL_ADC_Init+0xbe>
 8002210:	e078      	b.n	8002304 <HAL_ADC_Init+0x1b0>
        {
          /* Enable the selected ADC group regular discontinuous mode */
          tmp_cfgr1 |= ADC_CFGR1_DISCEN;
 8002212:	2280      	movs	r2, #128	@ 0x80
 8002214:	0252      	lsls	r2, r2, #9
 8002216:	4313      	orrs	r3, r2
      /* Enable external trigger if trigger selection is different of software  */
      /* start.                                                                 */
      /* Note: This configuration keeps the hardware feature of parameter       */
      /*       ExternalTrigConvEdge "trigger edge none" equivalent to           */
      /*       software start.                                                  */
      if (hadc->Init.ExternalTrigConv != ADC_SOFTWARE_START)
 8002218:	6a62      	ldr	r2, [r4, #36]	@ 0x24
 800221a:	2a00      	cmp	r2, #0
 800221c:	d005      	beq.n	800222a <HAL_ADC_Init+0xd6>
      {
        tmp_cfgr1 |= ((hadc->Init.ExternalTrigConv & ADC_CFGR1_EXTSEL) |
 800221e:	21e0      	movs	r1, #224	@ 0xe0
 8002220:	0049      	lsls	r1, r1, #1
 8002222:	400a      	ands	r2, r1
 8002224:	6aa1      	ldr	r1, [r4, #40]	@ 0x28
 8002226:	430a      	orrs	r2, r1
 8002228:	4313      	orrs	r3, r2
                      hadc->Init.ExternalTrigConvEdge);
      }

      /* Update ADC configuration register with previous settings */
      MODIFY_REG(hadc->Instance->CFGR1,
 800222a:	68ea      	ldr	r2, [r5, #12]
 800222c:	494a      	ldr	r1, [pc, #296]	@ (8002358 <HAL_ADC_Init+0x204>)
 800222e:	400a      	ands	r2, r1
 8002230:	4313      	orrs	r3, r2
 8002232:	60eb      	str	r3, [r5, #12]

      tmp_cfgr2 |= ((hadc->Init.ClockPrescaler & ADC_CFGR2_CKMODE) |
                    hadc->Init.TriggerFrequencyMode
                   );

      if (hadc->Init.OversamplingMode == ENABLE)
 8002234:	0023      	movs	r3, r4
      tmp_cfgr2 |= ((hadc->Init.ClockPrescaler & ADC_CFGR2_CKMODE) |
 8002236:	6862      	ldr	r2, [r4, #4]
      if (hadc->Init.OversamplingMode == ENABLE)
 8002238:	333c      	adds	r3, #60	@ 0x3c
      tmp_cfgr2 |= ((hadc->Init.ClockPrescaler & ADC_CFGR2_CKMODE) |
 800223a:	6ce1      	ldr	r1, [r4, #76]	@ 0x4c
      if (hadc->Init.OversamplingMode == ENABLE)
 800223c:	781b      	ldrb	r3, [r3, #0]
      tmp_cfgr2 |= ((hadc->Init.ClockPrescaler & ADC_CFGR2_CKMODE) |
 800223e:	0f97      	lsrs	r7, r2, #30
 8002240:	07bf      	lsls	r7, r7, #30
      if (hadc->Init.OversamplingMode == ENABLE)
 8002242:	469c      	mov	ip, r3
      tmp_cfgr2 |= ((hadc->Init.ClockPrescaler & ADC_CFGR2_CKMODE) |
 8002244:	4339      	orrs	r1, r7
      if (hadc->Init.OversamplingMode == ENABLE)
 8002246:	2b01      	cmp	r3, #1
 8002248:	d108      	bne.n	800225c <HAL_ADC_Init+0x108>
      {
        tmp_cfgr2 |= (ADC_CFGR2_OVSE |
 800224a:	6c23      	ldr	r3, [r4, #64]	@ 0x40
 800224c:	6c66      	ldr	r6, [r4, #68]	@ 0x44
 800224e:	4333      	orrs	r3, r6
 8002250:	430b      	orrs	r3, r1
 8002252:	6ca1      	ldr	r1, [r4, #72]	@ 0x48
 8002254:	430b      	orrs	r3, r1
 8002256:	4661      	mov	r1, ip
 8002258:	433b      	orrs	r3, r7
 800225a:	4319      	orrs	r1, r3
                      hadc->Init.Oversampling.RightBitShift |
                      hadc->Init.Oversampling.TriggeredMode
                     );
      }

      MODIFY_REG(hadc->Instance->CFGR2,
 800225c:	692b      	ldr	r3, [r5, #16]
 800225e:	4f3f      	ldr	r7, [pc, #252]	@ (800235c <HAL_ADC_Init+0x208>)
 8002260:	403b      	ands	r3, r7
 8002262:	430b      	orrs	r3, r1
                 ADC_CFGR2_TOVS,
                 tmp_cfgr2);

      /* Configuration of ADC clock mode: asynchronous clock source           */
      /* with selectable prescaler.                                           */
      if (((hadc->Init.ClockPrescaler) != ADC_CLOCK_SYNC_PCLK_DIV1) &&
 8002264:	2180      	movs	r1, #128	@ 0x80
      MODIFY_REG(hadc->Instance->CFGR2,
 8002266:	612b      	str	r3, [r5, #16]
      if (((hadc->Init.ClockPrescaler) != ADC_CLOCK_SYNC_PCLK_DIV1) &&
 8002268:	0053      	lsls	r3, r2, #1
 800226a:	085b      	lsrs	r3, r3, #1
 800226c:	05c9      	lsls	r1, r1, #23
 800226e:	428b      	cmp	r3, r1
 8002270:	d00c      	beq.n	800228c <HAL_ADC_Init+0x138>
          ((hadc->Init.ClockPrescaler) != ADC_CLOCK_SYNC_PCLK_DIV2) &&
 8002272:	2380      	movs	r3, #128	@ 0x80
 8002274:	061b      	lsls	r3, r3, #24
 8002276:	429a      	cmp	r2, r3
 8002278:	d008      	beq.n	800228c <HAL_ADC_Init+0x138>
          ((hadc->Init.ClockPrescaler) != ADC_CLOCK_SYNC_PCLK_DIV4))
      {
        MODIFY_REG(ADC1_COMMON->CCR,
 800227a:	4939      	ldr	r1, [pc, #228]	@ (8002360 <HAL_ADC_Init+0x20c>)
 800227c:	4f39      	ldr	r7, [pc, #228]	@ (8002364 <HAL_ADC_Init+0x210>)
 800227e:	680b      	ldr	r3, [r1, #0]
 8002280:	403b      	ands	r3, r7
 8002282:	27f0      	movs	r7, #240	@ 0xf0
 8002284:	03bf      	lsls	r7, r7, #14
 8002286:	403a      	ands	r2, r7
 8002288:	4313      	orrs	r3, r2
 800228a:	600b      	str	r3, [r1, #0]
  MODIFY_REG(ADCx->SMPR,
 800228c:	2107      	movs	r1, #7
 800228e:	2770      	movs	r7, #112	@ 0x70
 8002290:	696b      	ldr	r3, [r5, #20]
                   hadc->Init.ClockPrescaler & ADC_CCR_PRESC);
      }
    }

    /* Channel sampling time configuration */
    LL_ADC_SetSamplingTimeCommonChannels(hadc->Instance, LL_ADC_SAMPLINGTIME_COMMON_1, hadc->Init.SamplingTimeCommon1);
 8002292:	6b62      	ldr	r2, [r4, #52]	@ 0x34
 8002294:	438b      	bics	r3, r1
 8002296:	4313      	orrs	r3, r2
 8002298:	616b      	str	r3, [r5, #20]
 800229a:	6969      	ldr	r1, [r5, #20]
 800229c:	6ba3      	ldr	r3, [r4, #56]	@ 0x38
 800229e:	43b9      	bics	r1, r7
 80022a0:	011b      	lsls	r3, r3, #4
 80022a2:	430b      	orrs	r3, r1
 80022a4:	616b      	str	r3, [r5, #20]
    /*   emulated by software for alignment over all STM32 devices.           */
    /* - if scan mode is enabled, regular channels sequence length is set to  */
    /*   parameter "NbrOfConversion".                                         */
    /*   Channels must be configured into each rank using function            */
    /*   "HAL_ADC_ConfigChannel()".                                           */
    if (hadc->Init.ScanConvMode == ADC_SCAN_DISABLE)
 80022a6:	2800      	cmp	r0, #0
 80022a8:	d134      	bne.n	8002314 <HAL_ADC_Init+0x1c0>
    {
      /* Set sequencer scan length by clearing ranks above rank 1             */
      /* and do not modify rank 1 value.                                      */
      SET_BIT(hadc->Instance->CHSELR,
 80022aa:	2310      	movs	r3, #16
 80022ac:	6aa9      	ldr	r1, [r5, #40]	@ 0x28
 80022ae:	425b      	negs	r3, r3
      /*          therefore after the first call of "HAL_ADC_Init()",       */
      /*          each rank corresponding to parameter "NbrOfConversion"    */
      /*          must be set using "HAL_ADC_ConfigChannel()".              */
      /*  - Set sequencer scan length by clearing ranks above maximum rank  */
      /*    and do not modify other ranks value.                            */
      MODIFY_REG(hadc->Instance->CHSELR,
 80022b0:	430b      	orrs	r3, r1
 80022b2:	62ab      	str	r3, [r5, #40]	@ 0x28
  return (uint32_t)((READ_BIT(ADCx->SMPR, ADC_SMPR_SMP1 << (SamplingTimeY & ADC_SAMPLING_TIME_SMP_SHIFT_MASK)))
 80022b4:	2107      	movs	r1, #7
 80022b6:	696b      	ldr	r3, [r5, #20]
 80022b8:	400b      	ands	r3, r1
      /* Nothing to do */
    }

    /* Check back that ADC registers have effectively been configured to      */
    /* ensure of no potential problem of ADC core peripheral clocking.        */
    if (LL_ADC_GetSamplingTimeCommonChannels(hadc->Instance, LL_ADC_SAMPLINGTIME_COMMON_1)
 80022ba:	429a      	cmp	r2, r3
 80022bc:	d139      	bne.n	8002332 <HAL_ADC_Init+0x1de>
        == hadc->Init.SamplingTimeCommon1)
    {
      /* Set ADC error code to none */
      ADC_CLEAR_ERRORCODE(hadc);
 80022be:	2300      	movs	r3, #0
 80022c0:	65e3      	str	r3, [r4, #92]	@ 0x5c

      /* Set the ADC state */
      ADC_STATE_CLR_SET(hadc->State,
 80022c2:	6da2      	ldr	r2, [r4, #88]	@ 0x58
 80022c4:	3303      	adds	r3, #3
 80022c6:	439a      	bics	r2, r3
 80022c8:	3b02      	subs	r3, #2
 80022ca:	4313      	orrs	r3, r2
 80022cc:	65a3      	str	r3, [r4, #88]	@ 0x58

    tmp_hal_status = HAL_ERROR;
  }

  return tmp_hal_status;
}
 80022ce:	9801      	ldr	r0, [sp, #4]
 80022d0:	b005      	add	sp, #20
 80022d2:	bdf0      	pop	{r4, r5, r6, r7, pc}
  MODIFY_REG(ADCx->CR,
 80022d4:	68aa      	ldr	r2, [r5, #8]
 80022d6:	4924      	ldr	r1, [pc, #144]	@ (8002368 <HAL_ADC_Init+0x214>)
 80022d8:	400a      	ands	r2, r1
 80022da:	4313      	orrs	r3, r2
 80022dc:	60ab      	str	r3, [r5, #8]
    wait_loop_index = ((LL_ADC_DELAY_INTERNAL_REGUL_STAB_US / 10UL) * ((SystemCoreClock / (100000UL * 2UL)) + 1UL));
 80022de:	4b23      	ldr	r3, [pc, #140]	@ (800236c <HAL_ADC_Init+0x218>)
 80022e0:	4923      	ldr	r1, [pc, #140]	@ (8002370 <HAL_ADC_Init+0x21c>)
 80022e2:	6818      	ldr	r0, [r3, #0]
 80022e4:	f7fd ff16 	bl	8000114 <__udivsi3>
 80022e8:	3001      	adds	r0, #1
 80022ea:	0040      	lsls	r0, r0, #1
 80022ec:	9003      	str	r0, [sp, #12]
    while (wait_loop_index != 0UL)
 80022ee:	9b03      	ldr	r3, [sp, #12]
 80022f0:	2b00      	cmp	r3, #0
 80022f2:	d100      	bne.n	80022f6 <HAL_ADC_Init+0x1a2>
 80022f4:	e746      	b.n	8002184 <HAL_ADC_Init+0x30>
      wait_loop_index--;
 80022f6:	9b03      	ldr	r3, [sp, #12]
 80022f8:	3b01      	subs	r3, #1
 80022fa:	9303      	str	r3, [sp, #12]
 80022fc:	e7f7      	b.n	80022ee <HAL_ADC_Init+0x19a>
                    ADC_SCAN_SEQ_MODE(hadc->Init.ScanConvMode)                     |
 80022fe:	2180      	movs	r1, #128	@ 0x80
 8002300:	0389      	lsls	r1, r1, #14
 8002302:	e777      	b.n	80021f4 <HAL_ADC_Init+0xa0>
          SET_BIT(hadc->State, HAL_ADC_STATE_ERROR_CONFIG);
 8002304:	2220      	movs	r2, #32
 8002306:	6da7      	ldr	r7, [r4, #88]	@ 0x58
 8002308:	433a      	orrs	r2, r7
 800230a:	65a2      	str	r2, [r4, #88]	@ 0x58
          SET_BIT(hadc->ErrorCode, HAL_ADC_ERROR_INTERNAL);
 800230c:	6de2      	ldr	r2, [r4, #92]	@ 0x5c
 800230e:	4311      	orrs	r1, r2
 8002310:	65e1      	str	r1, [r4, #92]	@ 0x5c
 8002312:	e781      	b.n	8002218 <HAL_ADC_Init+0xc4>
    else if (hadc->Init.ScanConvMode == ADC_SCAN_ENABLE)
 8002314:	2380      	movs	r3, #128	@ 0x80
 8002316:	039b      	lsls	r3, r3, #14
 8002318:	4298      	cmp	r0, r3
 800231a:	d1cb      	bne.n	80022b4 <HAL_ADC_Init+0x160>
      MODIFY_REG(hadc->Instance->CHSELR,
 800231c:	211c      	movs	r1, #28
 800231e:	6aab      	ldr	r3, [r5, #40]	@ 0x28
 8002320:	69e3      	ldr	r3, [r4, #28]
 8002322:	3b01      	subs	r3, #1
 8002324:	009b      	lsls	r3, r3, #2
 8002326:	400b      	ands	r3, r1
 8002328:	392c      	subs	r1, #44	@ 0x2c
 800232a:	4099      	lsls	r1, r3
 800232c:	000b      	movs	r3, r1
 800232e:	6e21      	ldr	r1, [r4, #96]	@ 0x60
 8002330:	e7be      	b.n	80022b0 <HAL_ADC_Init+0x15c>
      ADC_STATE_CLR_SET(hadc->State,
 8002332:	2312      	movs	r3, #18
 8002334:	6da2      	ldr	r2, [r4, #88]	@ 0x58
 8002336:	439a      	bics	r2, r3
 8002338:	3b02      	subs	r3, #2
 800233a:	4313      	orrs	r3, r2
 800233c:	65a3      	str	r3, [r4, #88]	@ 0x58
      SET_BIT(hadc->ErrorCode, HAL_ADC_ERROR_INTERNAL);
 800233e:	2301      	movs	r3, #1
 8002340:	6de2      	ldr	r2, [r4, #92]	@ 0x5c
 8002342:	4313      	orrs	r3, r2
 8002344:	65e3      	str	r3, [r4, #92]	@ 0x5c
    return HAL_ERROR;
 8002346:	2301      	movs	r3, #1
 8002348:	9301      	str	r3, [sp, #4]
 800234a:	e7c0      	b.n	80022ce <HAL_ADC_Init+0x17a>
    SET_BIT(hadc->State, HAL_ADC_STATE_ERROR_INTERNAL);
 800234c:	6da3      	ldr	r3, [r4, #88]	@ 0x58
 800234e:	431a      	orrs	r2, r3
 8002350:	65a2      	str	r2, [r4, #88]	@ 0x58
    tmp_hal_status = HAL_ERROR;
 8002352:	e7f8      	b.n	8002346 <HAL_ADC_Init+0x1f2>
 8002354:	fffffefd 	.word	0xfffffefd
 8002358:	ffde0201 	.word	0xffde0201
 800235c:	1ffffc02 	.word	0x1ffffc02
 8002360:	40012708 	.word	0x40012708
 8002364:	ffc3ffff 	.word	0xffc3ffff
 8002368:	6fffffe8 	.word	0x6fffffe8
 800236c:	2000000c 	.word	0x2000000c
 8002370:	00030d40 	.word	0x00030d40

08002374 <HAL_ADC_ConvCpltCallback>:
/**
  * @brief  Conversion complete callback in non-blocking mode.
  * @param hadc ADC handle
  * @retval None
  */
__weak void HAL_ADC_ConvCpltCallback(ADC_HandleTypeDef *hadc)
 8002374:	4770      	bx	lr

08002376 <HAL_ADC_LevelOutOfWindowCallback>:
/**
  * @brief  Analog watchdog 1 callback in non-blocking mode.
  * @param hadc ADC handle
  * @retval None
  */
__weak void HAL_ADC_LevelOutOfWindowCallback(ADC_HandleTypeDef *hadc)
 8002376:	4770      	bx	lr

08002378 <HAL_ADC_ErrorCallback>:
  *           "HAL_ADC_Start_DMA()"
  *           (this function is also clearing overrun flag)
  * @param hadc ADC handle
  * @retval None
  */
__weak void HAL_ADC_ErrorCallback(ADC_HandleTypeDef *hadc)
 8002378:	4770      	bx	lr
	...

0800237c <HAL_ADC_IRQHandler>:
{
 800237c:	b5f8      	push	{r3, r4, r5, r6, r7, lr}
  uint32_t tmp_isr = hadc->Instance->ISR;
 800237e:	6803      	ldr	r3, [r0, #0]
{
 8002380:	0004      	movs	r4, r0
  uint32_t tmp_isr = hadc->Instance->ISR;
 8002382:	681e      	ldr	r6, [r3, #0]
  uint32_t tmp_ier = hadc->Instance->IER;
 8002384:	685d      	ldr	r5, [r3, #4]
  if (((tmp_isr & ADC_FLAG_EOSMP) == ADC_FLAG_EOSMP) && ((tmp_ier & ADC_IT_EOSMP) == ADC_IT_EOSMP))
 8002386:	2302      	movs	r3, #2
 8002388:	421e      	tst	r6, r3
 800238a:	d00f      	beq.n	80023ac <HAL_ADC_IRQHandler+0x30>
 800238c:	421d      	tst	r5, r3
 800238e:	d00d      	beq.n	80023ac <HAL_ADC_IRQHandler+0x30>
    if ((hadc->State & HAL_ADC_STATE_ERROR_INTERNAL) == 0UL)
 8002390:	6d83      	ldr	r3, [r0, #88]	@ 0x58
 8002392:	06db      	lsls	r3, r3, #27
 8002394:	d404      	bmi.n	80023a0 <HAL_ADC_IRQHandler+0x24>
      SET_BIT(hadc->State, HAL_ADC_STATE_REG_EOSMP);
 8002396:	2380      	movs	r3, #128	@ 0x80
 8002398:	6d82      	ldr	r2, [r0, #88]	@ 0x58
 800239a:	011b      	lsls	r3, r3, #4
 800239c:	4313      	orrs	r3, r2
 800239e:	6583      	str	r3, [r0, #88]	@ 0x58
    HAL_ADCEx_EndOfSamplingCallback(hadc);
 80023a0:	0020      	movs	r0, r4
 80023a2:	f000 f9bf 	bl	8002724 <HAL_ADCEx_EndOfSamplingCallback>
    __HAL_ADC_CLEAR_FLAG(hadc, ADC_FLAG_EOSMP);
 80023a6:	2202      	movs	r2, #2
 80023a8:	6823      	ldr	r3, [r4, #0]
 80023aa:	601a      	str	r2, [r3, #0]
  if ((((tmp_isr & ADC_FLAG_EOC) == ADC_FLAG_EOC) && ((tmp_ier & ADC_IT_EOC) == ADC_IT_EOC)) ||
 80023ac:	2304      	movs	r3, #4
 80023ae:	421e      	tst	r6, r3
 80023b0:	d001      	beq.n	80023b6 <HAL_ADC_IRQHandler+0x3a>
 80023b2:	421d      	tst	r5, r3
 80023b4:	d104      	bne.n	80023c0 <HAL_ADC_IRQHandler+0x44>
      (((tmp_isr & ADC_FLAG_EOS) == ADC_FLAG_EOS) && ((tmp_ier & ADC_IT_EOS) == ADC_IT_EOS)))
 80023b6:	2308      	movs	r3, #8
  if ((((tmp_isr & ADC_FLAG_EOC) == ADC_FLAG_EOC) && ((tmp_ier & ADC_IT_EOC) == ADC_IT_EOC)) ||
 80023b8:	421e      	tst	r6, r3
 80023ba:	d02b      	beq.n	8002414 <HAL_ADC_IRQHandler+0x98>
      (((tmp_isr & ADC_FLAG_EOS) == ADC_FLAG_EOS) && ((tmp_ier & ADC_IT_EOS) == ADC_IT_EOS)))
 80023bc:	421d      	tst	r5, r3
 80023be:	d029      	beq.n	8002414 <HAL_ADC_IRQHandler+0x98>
    if ((hadc->State & HAL_ADC_STATE_ERROR_INTERNAL) == 0UL)
 80023c0:	6da3      	ldr	r3, [r4, #88]	@ 0x58
 80023c2:	06db      	lsls	r3, r3, #27
 80023c4:	d404      	bmi.n	80023d0 <HAL_ADC_IRQHandler+0x54>
      SET_BIT(hadc->State, HAL_ADC_STATE_REG_EOC);
 80023c6:	2380      	movs	r3, #128	@ 0x80
 80023c8:	6da2      	ldr	r2, [r4, #88]	@ 0x58
 80023ca:	009b      	lsls	r3, r3, #2
 80023cc:	4313      	orrs	r3, r2
 80023ce:	65a3      	str	r3, [r4, #88]	@ 0x58
  return ((READ_BIT(ADCx->CFGR1, ADC_CFGR1_EXTEN) == (LL_ADC_REG_TRIG_SOFTWARE & ADC_CFGR1_EXTEN)) ? 1UL : 0UL);
 80023d0:	23c0      	movs	r3, #192	@ 0xc0
    if ((LL_ADC_REG_IsTriggerSourceSWStart(hadc->Instance) != 0UL)
 80023d2:	6827      	ldr	r7, [r4, #0]
 80023d4:	011b      	lsls	r3, r3, #4
 80023d6:	68fa      	ldr	r2, [r7, #12]
 80023d8:	421a      	tst	r2, r3
 80023da:	d115      	bne.n	8002408 <HAL_ADC_IRQHandler+0x8c>
        && (hadc->Init.ContinuousConvMode == DISABLE)
 80023dc:	7ea3      	ldrb	r3, [r4, #26]
 80023de:	2b00      	cmp	r3, #0
 80023e0:	d112      	bne.n	8002408 <HAL_ADC_IRQHandler+0x8c>
      if (__HAL_ADC_GET_FLAG(hadc, ADC_FLAG_EOS))
 80023e2:	683b      	ldr	r3, [r7, #0]
 80023e4:	071b      	lsls	r3, r3, #28
 80023e6:	d50f      	bpl.n	8002408 <HAL_ADC_IRQHandler+0x8c>
        if (LL_ADC_REG_IsConversionOngoing(hadc->Instance) == 0UL)
 80023e8:	0038      	movs	r0, r7
 80023ea:	f7ff feaf 	bl	800214c <LL_ADC_REG_IsConversionOngoing>
 80023ee:	2800      	cmp	r0, #0
 80023f0:	d166      	bne.n	80024c0 <HAL_ADC_IRQHandler+0x144>
          __HAL_ADC_DISABLE_IT(hadc, ADC_IT_EOC | ADC_IT_EOS);
 80023f2:	220c      	movs	r2, #12
 80023f4:	687b      	ldr	r3, [r7, #4]
 80023f6:	4393      	bics	r3, r2
 80023f8:	607b      	str	r3, [r7, #4]
          ADC_STATE_CLR_SET(hadc->State,
 80023fa:	6da2      	ldr	r2, [r4, #88]	@ 0x58
 80023fc:	4b35      	ldr	r3, [pc, #212]	@ (80024d4 <HAL_ADC_IRQHandler+0x158>)
 80023fe:	401a      	ands	r2, r3
 8002400:	3304      	adds	r3, #4
 8002402:	33ff      	adds	r3, #255	@ 0xff
 8002404:	4313      	orrs	r3, r2
 8002406:	65a3      	str	r3, [r4, #88]	@ 0x58
    HAL_ADC_ConvCpltCallback(hadc);
 8002408:	0020      	movs	r0, r4
 800240a:	f7ff ffb3 	bl	8002374 <HAL_ADC_ConvCpltCallback>
    __HAL_ADC_CLEAR_FLAG(hadc, (ADC_FLAG_EOC | ADC_FLAG_EOS));
 800240e:	220c      	movs	r2, #12
 8002410:	6823      	ldr	r3, [r4, #0]
 8002412:	601a      	str	r2, [r3, #0]
  if (((tmp_isr & ADC_FLAG_AWD1) == ADC_FLAG_AWD1) && ((tmp_ier & ADC_IT_AWD1) == ADC_IT_AWD1))
 8002414:	2780      	movs	r7, #128	@ 0x80
 8002416:	423e      	tst	r6, r7
 8002418:	d00b      	beq.n	8002432 <HAL_ADC_IRQHandler+0xb6>
 800241a:	423d      	tst	r5, r7
 800241c:	d009      	beq.n	8002432 <HAL_ADC_IRQHandler+0xb6>
    SET_BIT(hadc->State, HAL_ADC_STATE_AWD1);
 800241e:	2380      	movs	r3, #128	@ 0x80
 8002420:	6da2      	ldr	r2, [r4, #88]	@ 0x58
 8002422:	025b      	lsls	r3, r3, #9
 8002424:	4313      	orrs	r3, r2
 8002426:	65a3      	str	r3, [r4, #88]	@ 0x58
    HAL_ADC_LevelOutOfWindowCallback(hadc);
 8002428:	0020      	movs	r0, r4
 800242a:	f7ff ffa4 	bl	8002376 <HAL_ADC_LevelOutOfWindowCallback>
    __HAL_ADC_CLEAR_FLAG(hadc, ADC_FLAG_AWD1);
 800242e:	6823      	ldr	r3, [r4, #0]
 8002430:	601f      	str	r7, [r3, #0]
  if (((tmp_isr & ADC_FLAG_AWD2) == ADC_FLAG_AWD2) && ((tmp_ier & ADC_IT_AWD2) == ADC_IT_AWD2))
 8002432:	2780      	movs	r7, #128	@ 0x80
 8002434:	007f      	lsls	r7, r7, #1
 8002436:	423e      	tst	r6, r7
 8002438:	d00b      	beq.n	8002452 <HAL_ADC_IRQHandler+0xd6>
 800243a:	423d      	tst	r5, r7
 800243c:	d009      	beq.n	8002452 <HAL_ADC_IRQHandler+0xd6>
    SET_BIT(hadc->State, HAL_ADC_STATE_AWD2);
 800243e:	2380      	movs	r3, #128	@ 0x80
 8002440:	6da2      	ldr	r2, [r4, #88]	@ 0x58
 8002442:	029b      	lsls	r3, r3, #10
 8002444:	4313      	orrs	r3, r2
 8002446:	65a3      	str	r3, [r4, #88]	@ 0x58
    HAL_ADCEx_LevelOutOfWindow2Callback(hadc);
 8002448:	0020      	movs	r0, r4
 800244a:	f000 f969 	bl	8002720 <HAL_ADCEx_LevelOutOfWindow2Callback>
    __HAL_ADC_CLEAR_FLAG(hadc, ADC_FLAG_AWD2);
 800244e:	6823      	ldr	r3, [r4, #0]
 8002450:	601f      	str	r7, [r3, #0]
  if (((tmp_isr & ADC_FLAG_AWD3) == ADC_FLAG_AWD3) && ((tmp_ier & ADC_IT_AWD3) == ADC_IT_AWD3))
 8002452:	2780      	movs	r7, #128	@ 0x80
 8002454:	00bf      	lsls	r7, r7, #2
 8002456:	423e      	tst	r6, r7
 8002458:	d00b      	beq.n	8002472 <HAL_ADC_IRQHandler+0xf6>
 800245a:	423d      	tst	r5, r7
 800245c:	d009      	beq.n	8002472 <HAL_ADC_IRQHandler+0xf6>
    SET_BIT(hadc->State, HAL_ADC_STATE_AWD3);
 800245e:	2380      	movs	r3, #128	@ 0x80
 8002460:	6da2      	ldr	r2, [r4, #88]	@ 0x58
 8002462:	02db      	lsls	r3, r3, #11
 8002464:	4313      	orrs	r3, r2
 8002466:	65a3      	str	r3, [r4, #88]	@ 0x58
    HAL_ADCEx_LevelOutOfWindow3Callback(hadc);
 8002468:	0020      	movs	r0, r4
 800246a:	f000 f95a 	bl	8002722 <HAL_ADCEx_LevelOutOfWindow3Callback>
    __HAL_ADC_CLEAR_FLAG(hadc, ADC_FLAG_AWD3);
 800246e:	6823      	ldr	r3, [r4, #0]
 8002470:	601f      	str	r7, [r3, #0]
  if (((tmp_isr & ADC_FLAG_OVR) == ADC_FLAG_OVR) && ((tmp_ier & ADC_IT_OVR) == ADC_IT_OVR))
 8002472:	2310      	movs	r3, #16
 8002474:	421e      	tst	r6, r3
 8002476:	d017      	beq.n	80024a8 <HAL_ADC_IRQHandler+0x12c>
 8002478:	421d      	tst	r5, r3
 800247a:	d015      	beq.n	80024a8 <HAL_ADC_IRQHandler+0x12c>
    if (hadc->Init.Overrun == ADC_OVR_DATA_PRESERVED)
 800247c:	6b23      	ldr	r3, [r4, #48]	@ 0x30
 800247e:	2b00      	cmp	r3, #0
 8002480:	d003      	beq.n	800248a <HAL_ADC_IRQHandler+0x10e>
      if (LL_ADC_REG_GetDMATransfer(hadc->Instance) != LL_ADC_REG_DMA_TRANSFER_NONE)
 8002482:	6823      	ldr	r3, [r4, #0]
  return (uint32_t)(READ_BIT(ADCx->CFGR1, ADC_CFGR1_DMAEN | ADC_CFGR1_DMACFG));
 8002484:	68db      	ldr	r3, [r3, #12]
 8002486:	079b      	lsls	r3, r3, #30
 8002488:	d00b      	beq.n	80024a2 <HAL_ADC_IRQHandler+0x126>
      SET_BIT(hadc->State, HAL_ADC_STATE_REG_OVR);
 800248a:	2380      	movs	r3, #128	@ 0x80
 800248c:	6da2      	ldr	r2, [r4, #88]	@ 0x58
 800248e:	00db      	lsls	r3, r3, #3
 8002490:	4313      	orrs	r3, r2
 8002492:	65a3      	str	r3, [r4, #88]	@ 0x58
      SET_BIT(hadc->ErrorCode, HAL_ADC_ERROR_OVR);
 8002494:	2302      	movs	r3, #2
 8002496:	6de2      	ldr	r2, [r4, #92]	@ 0x5c
      HAL_ADC_ErrorCallback(hadc);
 8002498:	0020      	movs	r0, r4
      SET_BIT(hadc->ErrorCode, HAL_ADC_ERROR_OVR);
 800249a:	4313      	orrs	r3, r2
 800249c:	65e3      	str	r3, [r4, #92]	@ 0x5c
      HAL_ADC_ErrorCallback(hadc);
 800249e:	f7ff ff6b 	bl	8002378 <HAL_ADC_ErrorCallback>
    __HAL_ADC_CLEAR_FLAG(hadc, ADC_FLAG_OVR);
 80024a2:	2210      	movs	r2, #16
 80024a4:	6823      	ldr	r3, [r4, #0]
 80024a6:	601a      	str	r2, [r3, #0]
  if (((tmp_isr & ADC_FLAG_CCRDY) == ADC_FLAG_CCRDY) && ((tmp_ier & ADC_IT_CCRDY) == ADC_IT_CCRDY))
 80024a8:	2780      	movs	r7, #128	@ 0x80
 80024aa:	01bf      	lsls	r7, r7, #6
 80024ac:	423e      	tst	r6, r7
 80024ae:	d006      	beq.n	80024be <HAL_ADC_IRQHandler+0x142>
 80024b0:	423d      	tst	r5, r7
 80024b2:	d004      	beq.n	80024be <HAL_ADC_IRQHandler+0x142>
    HAL_ADCEx_ChannelConfigReadyCallback(hadc);
 80024b4:	0020      	movs	r0, r4
 80024b6:	f000 f936 	bl	8002726 <HAL_ADCEx_ChannelConfigReadyCallback>
    __HAL_ADC_CLEAR_FLAG(hadc, ADC_FLAG_CCRDY);
 80024ba:	6823      	ldr	r3, [r4, #0]
 80024bc:	601f      	str	r7, [r3, #0]
}
 80024be:	bdf8      	pop	{r3, r4, r5, r6, r7, pc}
          SET_BIT(hadc->State, HAL_ADC_STATE_ERROR_CONFIG);
 80024c0:	2320      	movs	r3, #32
 80024c2:	6da2      	ldr	r2, [r4, #88]	@ 0x58
 80024c4:	4313      	orrs	r3, r2
 80024c6:	65a3      	str	r3, [r4, #88]	@ 0x58
          SET_BIT(hadc->ErrorCode, HAL_ADC_ERROR_INTERNAL);
 80024c8:	2301      	movs	r3, #1
 80024ca:	6de2      	ldr	r2, [r4, #92]	@ 0x5c
 80024cc:	4313      	orrs	r3, r2
 80024ce:	65e3      	str	r3, [r4, #92]	@ 0x5c
 80024d0:	e79a      	b.n	8002408 <HAL_ADC_IRQHandler+0x8c>
 80024d2:	46c0      	nop			@ (mov r8, r8)
 80024d4:	fffffefe 	.word	0xfffffefe

080024d8 <HAL_ADC_ConfigChannel>:
  */
HAL_StatusTypeDef HAL_ADC_ConfigChannel(ADC_HandleTypeDef *hadc, const ADC_ChannelConfTypeDef *pConfig)
{
  HAL_StatusTypeDef tmp_hal_status = HAL_OK;
  uint32_t tmp_config_internal_channel;
  __IO uint32_t wait_loop_index = 0UL;
 80024d8:	2300      	movs	r3, #0
{
 80024da:	b5f0      	push	{r4, r5, r6, r7, lr}
 80024dc:	b085      	sub	sp, #20
  __IO uint32_t wait_loop_index = 0UL;
 80024de:	9303      	str	r3, [sp, #12]
    assert_param(IS_ADC_REGULAR_NB_CONV(hadc->Init.NbrOfConversion));

    assert_param(IS_ADC_REGULAR_RANK(pConfig->Rank));
  }

  __HAL_LOCK(hadc);
 80024e0:	0003      	movs	r3, r0
{
 80024e2:	9100      	str	r1, [sp, #0]
  __HAL_LOCK(hadc);
 80024e4:	3354      	adds	r3, #84	@ 0x54
 80024e6:	781a      	ldrb	r2, [r3, #0]
{
 80024e8:	0004      	movs	r4, r0
  __HAL_LOCK(hadc);
 80024ea:	2002      	movs	r0, #2
 80024ec:	2a01      	cmp	r2, #1
 80024ee:	d04d      	beq.n	800258c <HAL_ADC_ConfigChannel+0xb4>
 80024f0:	2201      	movs	r2, #1
  if ((hadc->Init.ScanConvMode == ADC_SCAN_SEQ_FIXED)       ||
 80024f2:	6927      	ldr	r7, [r4, #16]
  __HAL_LOCK(hadc);
 80024f4:	701a      	strb	r2, [r3, #0]
  /* Parameters that can be updated when ADC is disabled or enabled without   */
  /* conversion on going on regular group:                                    */
  /*  - Channel number                                                        */
  /*  - Channel sampling time                                                 */
  /*  - Management of internal measurement channels: VrefInt/TempSensor/Vbat  */
  if (LL_ADC_REG_IsConversionOngoing(hadc->Instance) == 0UL)
 80024f6:	6825      	ldr	r5, [r4, #0]
 80024f8:	0028      	movs	r0, r5
 80024fa:	f7ff fe27 	bl	800214c <LL_ADC_REG_IsConversionOngoing>
 80024fe:	2800      	cmp	r0, #0
 8002500:	d000      	beq.n	8002504 <HAL_ADC_ConfigChannel+0x2c>
 8002502:	e0f7      	b.n	80026f4 <HAL_ADC_ConfigChannel+0x21c>
    /* If sequencer set to not fully configurable with channel rank set to    */
    /* none, remove the channel from the sequencer.                           */
    /* Otherwise (sequencer set to fully configurable or to to not fully      */
    /* configurable with channel rank to be set), configure the selected      */
    /* channel.                                                               */
    if (pConfig->Rank != ADC_RANK_NONE)
 8002504:	9b00      	ldr	r3, [sp, #0]
      /* Note: ADC channel configuration requires few ADC clock cycles        */
      /*       to be ready. Processing of ADC settings in this function       */
      /*       induce that a specific wait time is not necessary.             */
      /*       For more details on ADC channel configuration ready,           */
      /*       refer to function "LL_ADC_IsActiveFlag_CCRDY()".               */
      if ((hadc->Init.ScanConvMode == ADC_SCAN_SEQ_FIXED)       ||
 8002506:	2204      	movs	r2, #4
    if (pConfig->Rank != ADC_RANK_NONE)
 8002508:	685b      	ldr	r3, [r3, #4]
 800250a:	2180      	movs	r1, #128	@ 0x80
 800250c:	469c      	mov	ip, r3
      if ((hadc->Init.ScanConvMode == ADC_SCAN_SEQ_FIXED)       ||
 800250e:	4397      	bics	r7, r2
    if (pConfig->Rank != ADC_RANK_NONE)
 8002510:	4662      	mov	r2, ip
          (hadc->Init.ScanConvMode == ADC_SCAN_SEQ_FIXED_BACKWARD))
      {
        /* Sequencer set to not fully configurable:                           */
        /* Set the channel by enabling the corresponding bitfield.            */
        LL_ADC_REG_SetSequencerChAdd(hadc->Instance, pConfig->Channel);
 8002512:	9b00      	ldr	r3, [sp, #0]
 8002514:	0609      	lsls	r1, r1, #24
 8002516:	681b      	ldr	r3, [r3, #0]
    if (pConfig->Rank != ADC_RANK_NONE)
 8002518:	2a02      	cmp	r2, #2
 800251a:	d100      	bne.n	800251e <HAL_ADC_ConfigChannel+0x46>
 800251c:	e0be      	b.n	800269c <HAL_ADC_ConfigChannel+0x1c4>
  SET_BIT(ADCx->CHSELR, (Channel & ADC_CHANNEL_ID_BITFIELD_MASK));
 800251e:	035a      	lsls	r2, r3, #13
 8002520:	0b52      	lsrs	r2, r2, #13
      if ((hadc->Init.ScanConvMode == ADC_SCAN_SEQ_FIXED)       ||
 8002522:	428f      	cmp	r7, r1
 8002524:	d134      	bne.n	8002590 <HAL_ADC_ConfigChannel+0xb8>
 8002526:	6aa9      	ldr	r1, [r5, #40]	@ 0x28
  MODIFY_REG(ADCx->CHSELR,
 8002528:	430a      	orrs	r2, r1
 800252a:	62aa      	str	r2, [r5, #40]	@ 0x28
  MODIFY_REG(ADCx->SMPR,
 800252c:	9a00      	ldr	r2, [sp, #0]
 800252e:	6968      	ldr	r0, [r5, #20]
 8002530:	6892      	ldr	r2, [r2, #8]
 8002532:	0219      	lsls	r1, r3, #8
 8002534:	4e72      	ldr	r6, [pc, #456]	@ (8002700 <HAL_ADC_ConfigChannel+0x228>)
 8002536:	400a      	ands	r2, r1
 8002538:	4032      	ands	r2, r6
 800253a:	4388      	bics	r0, r1
 800253c:	4302      	orrs	r2, r0
 800253e:	616a      	str	r2, [r5, #20]
      /* internal measurement paths enable: If internal channel selected,     */
      /* enable dedicated internal buffers and path.                          */
      /* Note: these internal measurement paths can be disabled using         */
      /*       HAL_ADC_DeInit() or removing the channel from sequencer with   */
      /*       channel configuration parameter "Rank".                        */
      if (__LL_ADC_IS_CHANNEL_INTERNAL(pConfig->Channel))
 8002540:	2b00      	cmp	r3, #0
 8002542:	da1f      	bge.n	8002584 <HAL_ADC_ConfigChannel+0xac>
  return (uint32_t)(READ_BIT(ADCxy_COMMON->CCR, ADC_CCR_VREFEN | ADC_CCR_TSEN | ADC_CCR_VBATEN));
 8002544:	21e0      	movs	r1, #224	@ 0xe0
 8002546:	4a6f      	ldr	r2, [pc, #444]	@ (8002704 <HAL_ADC_ConfigChannel+0x22c>)
      {
        tmp_config_internal_channel = LL_ADC_GetCommonPathInternalCh(__LL_ADC_COMMON_INSTANCE(hadc->Instance));

        /* If the requested internal measurement path has already been enabled,   */
        /* bypass the configuration processing.                                   */
        if ((pConfig->Channel == ADC_CHANNEL_TEMPSENSOR) &&
 8002548:	486f      	ldr	r0, [pc, #444]	@ (8002708 <HAL_ADC_ConfigChannel+0x230>)
 800254a:	6815      	ldr	r5, [r2, #0]
 800254c:	0449      	lsls	r1, r1, #17
 800254e:	4029      	ands	r1, r5
 8002550:	4283      	cmp	r3, r0
 8002552:	d000      	beq.n	8002556 <HAL_ADC_ConfigChannel+0x7e>
 8002554:	e08c      	b.n	8002670 <HAL_ADC_ConfigChannel+0x198>
            ((tmp_config_internal_channel & LL_ADC_PATH_INTERNAL_TEMPSENSOR) == 0UL))
 8002556:	2080      	movs	r0, #128	@ 0x80
 8002558:	0400      	lsls	r0, r0, #16
        if ((pConfig->Channel == ADC_CHANNEL_TEMPSENSOR) &&
 800255a:	4205      	tst	r5, r0
 800255c:	d112      	bne.n	8002584 <HAL_ADC_ConfigChannel+0xac>
  MODIFY_REG(ADCxy_COMMON->CCR, ADC_CCR_VREFEN | ADC_CCR_TSEN | ADC_CCR_VBATEN, PathInternal);
 800255e:	6813      	ldr	r3, [r2, #0]
 8002560:	4d6a      	ldr	r5, [pc, #424]	@ (800270c <HAL_ADC_ConfigChannel+0x234>)
 8002562:	402b      	ands	r3, r5
 8002564:	430b      	orrs	r3, r1
 8002566:	4318      	orrs	r0, r3
          /* Delay for temperature sensor stabilization time */
          /* Wait loop initialization and execution */
          /* Note: Variable divided by 2 to compensate partially              */
          /*       CPU processing cycles, scaling in us split to not          */
          /*       exceed 32 bits register capacity and handle low frequency. */
          wait_loop_index = ((LL_ADC_DELAY_TEMPSENSOR_STAB_US / 10UL) * ((SystemCoreClock / (100000UL * 2UL)) + 1UL));
 8002568:	4b69      	ldr	r3, [pc, #420]	@ (8002710 <HAL_ADC_ConfigChannel+0x238>)
 800256a:	6010      	str	r0, [r2, #0]
 800256c:	6818      	ldr	r0, [r3, #0]
 800256e:	4969      	ldr	r1, [pc, #420]	@ (8002714 <HAL_ADC_ConfigChannel+0x23c>)
 8002570:	f7fd fdd0 	bl	8000114 <__udivsi3>
 8002574:	1c43      	adds	r3, r0, #1
 8002576:	200c      	movs	r0, #12
 8002578:	4358      	muls	r0, r3
 800257a:	9003      	str	r0, [sp, #12]
          while (wait_loop_index != 0UL)
 800257c:	9b03      	ldr	r3, [sp, #12]
 800257e:	2b00      	cmp	r3, #0
 8002580:	d000      	beq.n	8002584 <HAL_ADC_ConfigChannel+0xac>
 8002582:	e071      	b.n	8002668 <HAL_ADC_ConfigChannel+0x190>
  HAL_StatusTypeDef tmp_hal_status = HAL_OK;
 8002584:	2000      	movs	r0, #0
    SET_BIT(hadc->State, HAL_ADC_STATE_ERROR_CONFIG);

    tmp_hal_status = HAL_ERROR;
  }

  __HAL_UNLOCK(hadc);
 8002586:	2300      	movs	r3, #0
 8002588:	3454      	adds	r4, #84	@ 0x54
 800258a:	7023      	strb	r3, [r4, #0]

  return tmp_hal_status;
}
 800258c:	b005      	add	sp, #20
 800258e:	bdf0      	pop	{r4, r5, r6, r7, pc}
        MODIFY_REG(hadc->ADCGroupRegularSequencerRanks,
 8002590:	211f      	movs	r1, #31
 8002592:	4667      	mov	r7, ip
 8002594:	400f      	ands	r7, r1
 8002596:	3910      	subs	r1, #16
 8002598:	40b9      	lsls	r1, r7
 800259a:	43ce      	mvns	r6, r1
 800259c:	9601      	str	r6, [sp, #4]
 800259e:	6e26      	ldr	r6, [r4, #96]	@ 0x60
 80025a0:	438e      	bics	r6, r1
 80025a2:	0031      	movs	r1, r6
 80025a4:	2a00      	cmp	r2, #0
 80025a6:	d112      	bne.n	80025ce <HAL_ADC_ConfigChannel+0xf6>
 80025a8:	0e98      	lsrs	r0, r3, #26
 80025aa:	321f      	adds	r2, #31
 80025ac:	4010      	ands	r0, r2
 80025ae:	40b8      	lsls	r0, r7
        if (((pConfig->Rank >> 2UL) + 1UL) <= hadc->Init.NbrOfConversion)
 80025b0:	4662      	mov	r2, ip
        MODIFY_REG(hadc->ADCGroupRegularSequencerRanks,
 80025b2:	4308      	orrs	r0, r1
        if (((pConfig->Rank >> 2UL) + 1UL) <= hadc->Init.NbrOfConversion)
 80025b4:	0892      	lsrs	r2, r2, #2
 80025b6:	69e1      	ldr	r1, [r4, #28]
 80025b8:	3201      	adds	r2, #1
        MODIFY_REG(hadc->ADCGroupRegularSequencerRanks,
 80025ba:	6620      	str	r0, [r4, #96]	@ 0x60
        if (((pConfig->Rank >> 2UL) + 1UL) <= hadc->Init.NbrOfConversion)
 80025bc:	428a      	cmp	r2, r1
 80025be:	d8b5      	bhi.n	800252c <HAL_ADC_ConfigChannel+0x54>
  MODIFY_REG(ADCx->CHSELR,
 80025c0:	6aa9      	ldr	r1, [r5, #40]	@ 0x28
 80025c2:	9801      	ldr	r0, [sp, #4]
 80025c4:	009a      	lsls	r2, r3, #2
 80025c6:	0f12      	lsrs	r2, r2, #28
 80025c8:	40ba      	lsls	r2, r7
 80025ca:	4001      	ands	r1, r0
 80025cc:	e7ac      	b.n	8002528 <HAL_ADC_ConfigChannel+0x50>
        MODIFY_REG(hadc->ADCGroupRegularSequencerRanks,
 80025ce:	2201      	movs	r2, #1
 80025d0:	4213      	tst	r3, r2
 80025d2:	d1ec      	bne.n	80025ae <HAL_ADC_ConfigChannel+0xd6>
 80025d4:	1892      	adds	r2, r2, r2
 80025d6:	4213      	tst	r3, r2
 80025d8:	d124      	bne.n	8002624 <HAL_ADC_ConfigChannel+0x14c>
 80025da:	2604      	movs	r6, #4
 80025dc:	4233      	tst	r3, r6
 80025de:	d123      	bne.n	8002628 <HAL_ADC_ConfigChannel+0x150>
 80025e0:	071a      	lsls	r2, r3, #28
 80025e2:	d423      	bmi.n	800262c <HAL_ADC_ConfigChannel+0x154>
 80025e4:	06da      	lsls	r2, r3, #27
 80025e6:	d423      	bmi.n	8002630 <HAL_ADC_ConfigChannel+0x158>
 80025e8:	069a      	lsls	r2, r3, #26
 80025ea:	d423      	bmi.n	8002634 <HAL_ADC_ConfigChannel+0x15c>
 80025ec:	065a      	lsls	r2, r3, #25
 80025ee:	d423      	bmi.n	8002638 <HAL_ADC_ConfigChannel+0x160>
 80025f0:	061a      	lsls	r2, r3, #24
 80025f2:	d423      	bmi.n	800263c <HAL_ADC_ConfigChannel+0x164>
 80025f4:	05da      	lsls	r2, r3, #23
 80025f6:	d423      	bmi.n	8002640 <HAL_ADC_ConfigChannel+0x168>
 80025f8:	059a      	lsls	r2, r3, #22
 80025fa:	d423      	bmi.n	8002644 <HAL_ADC_ConfigChannel+0x16c>
 80025fc:	055a      	lsls	r2, r3, #21
 80025fe:	d423      	bmi.n	8002648 <HAL_ADC_ConfigChannel+0x170>
 8002600:	051a      	lsls	r2, r3, #20
 8002602:	d423      	bmi.n	800264c <HAL_ADC_ConfigChannel+0x174>
 8002604:	04da      	lsls	r2, r3, #19
 8002606:	d423      	bmi.n	8002650 <HAL_ADC_ConfigChannel+0x178>
 8002608:	049a      	lsls	r2, r3, #18
 800260a:	d423      	bmi.n	8002654 <HAL_ADC_ConfigChannel+0x17c>
 800260c:	045a      	lsls	r2, r3, #17
 800260e:	d423      	bmi.n	8002658 <HAL_ADC_ConfigChannel+0x180>
 8002610:	041a      	lsls	r2, r3, #16
 8002612:	d423      	bmi.n	800265c <HAL_ADC_ConfigChannel+0x184>
 8002614:	03da      	lsls	r2, r3, #15
 8002616:	d423      	bmi.n	8002660 <HAL_ADC_ConfigChannel+0x188>
 8002618:	039a      	lsls	r2, r3, #14
 800261a:	d423      	bmi.n	8002664 <HAL_ADC_ConfigChannel+0x18c>
 800261c:	035a      	lsls	r2, r3, #13
 800261e:	d5c6      	bpl.n	80025ae <HAL_ADC_ConfigChannel+0xd6>
 8002620:	2012      	movs	r0, #18
 8002622:	e7c4      	b.n	80025ae <HAL_ADC_ConfigChannel+0xd6>
 8002624:	2001      	movs	r0, #1
 8002626:	e7c2      	b.n	80025ae <HAL_ADC_ConfigChannel+0xd6>
 8002628:	0010      	movs	r0, r2
 800262a:	e7c0      	b.n	80025ae <HAL_ADC_ConfigChannel+0xd6>
 800262c:	2003      	movs	r0, #3
 800262e:	e7be      	b.n	80025ae <HAL_ADC_ConfigChannel+0xd6>
 8002630:	2004      	movs	r0, #4
 8002632:	e7bc      	b.n	80025ae <HAL_ADC_ConfigChannel+0xd6>
 8002634:	2005      	movs	r0, #5
 8002636:	e7ba      	b.n	80025ae <HAL_ADC_ConfigChannel+0xd6>
 8002638:	2006      	movs	r0, #6
 800263a:	e7b8      	b.n	80025ae <HAL_ADC_ConfigChannel+0xd6>
 800263c:	2007      	movs	r0, #7
 800263e:	e7b6      	b.n	80025ae <HAL_ADC_ConfigChannel+0xd6>
 8002640:	2008      	movs	r0, #8
 8002642:	e7b4      	b.n	80025ae <HAL_ADC_ConfigChannel+0xd6>
 8002644:	2009      	movs	r0, #9
 8002646:	e7b2      	b.n	80025ae <HAL_ADC_ConfigChannel+0xd6>
 8002648:	200a      	movs	r0, #10
 800264a:	e7b0      	b.n	80025ae <HAL_ADC_ConfigChannel+0xd6>
 800264c:	200b      	movs	r0, #11
 800264e:	e7ae      	b.n	80025ae <HAL_ADC_ConfigChannel+0xd6>
 8002650:	200c      	movs	r0, #12
 8002652:	e7ac      	b.n	80025ae <HAL_ADC_ConfigChannel+0xd6>
 8002654:	200d      	movs	r0, #13
 8002656:	e7aa      	b.n	80025ae <HAL_ADC_ConfigChannel+0xd6>
 8002658:	200e      	movs	r0, #14
 800265a:	e7a8      	b.n	80025ae <HAL_ADC_ConfigChannel+0xd6>
 800265c:	200f      	movs	r0, #15
 800265e:	e7a6      	b.n	80025ae <HAL_ADC_ConfigChannel+0xd6>
 8002660:	2010      	movs	r0, #16
 8002662:	e7a4      	b.n	80025ae <HAL_ADC_ConfigChannel+0xd6>
 8002664:	2011      	movs	r0, #17
 8002666:	e7a2      	b.n	80025ae <HAL_ADC_ConfigChannel+0xd6>
            wait_loop_index--;
 8002668:	9b03      	ldr	r3, [sp, #12]
 800266a:	3b01      	subs	r3, #1
 800266c:	9303      	str	r3, [sp, #12]
 800266e:	e785      	b.n	800257c <HAL_ADC_ConfigChannel+0xa4>
        else if ((pConfig->Channel == ADC_CHANNEL_VBAT)
 8002670:	4829      	ldr	r0, [pc, #164]	@ (8002718 <HAL_ADC_ConfigChannel+0x240>)
 8002672:	4283      	cmp	r3, r0
 8002674:	d10b      	bne.n	800268e <HAL_ADC_ConfigChannel+0x1b6>
                 && ((tmp_config_internal_channel & LL_ADC_PATH_INTERNAL_VBAT) == 0UL))
 8002676:	2080      	movs	r0, #128	@ 0x80
 8002678:	0440      	lsls	r0, r0, #17
 800267a:	4205      	tst	r5, r0
 800267c:	d000      	beq.n	8002680 <HAL_ADC_ConfigChannel+0x1a8>
 800267e:	e781      	b.n	8002584 <HAL_ADC_ConfigChannel+0xac>
  MODIFY_REG(ADCxy_COMMON->CCR, ADC_CCR_VREFEN | ADC_CCR_TSEN | ADC_CCR_VBATEN, PathInternal);
 8002680:	6813      	ldr	r3, [r2, #0]
 8002682:	4d22      	ldr	r5, [pc, #136]	@ (800270c <HAL_ADC_ConfigChannel+0x234>)
 8002684:	402b      	ands	r3, r5
 8002686:	430b      	orrs	r3, r1
 8002688:	4318      	orrs	r0, r3
 800268a:	6010      	str	r0, [r2, #0]
}
 800268c:	e77a      	b.n	8002584 <HAL_ADC_ConfigChannel+0xac>
        else if ((pConfig->Channel == ADC_CHANNEL_VREFINT) &&
 800268e:	4823      	ldr	r0, [pc, #140]	@ (800271c <HAL_ADC_ConfigChannel+0x244>)
 8002690:	4283      	cmp	r3, r0
 8002692:	d000      	beq.n	8002696 <HAL_ADC_ConfigChannel+0x1be>
 8002694:	e776      	b.n	8002584 <HAL_ADC_ConfigChannel+0xac>
                 ((tmp_config_internal_channel & LL_ADC_PATH_INTERNAL_VREFINT) == 0UL))
 8002696:	2080      	movs	r0, #128	@ 0x80
 8002698:	03c0      	lsls	r0, r0, #15
 800269a:	e7ee      	b.n	800267a <HAL_ADC_ConfigChannel+0x1a2>
      if ((hadc->Init.ScanConvMode == ADC_SCAN_SEQ_FIXED)       ||
 800269c:	428f      	cmp	r7, r1
 800269e:	d104      	bne.n	80026aa <HAL_ADC_ConfigChannel+0x1d2>
  CLEAR_BIT(ADCx->CHSELR, (Channel & ADC_CHANNEL_ID_BITFIELD_MASK));
 80026a0:	6aaa      	ldr	r2, [r5, #40]	@ 0x28
 80026a2:	0359      	lsls	r1, r3, #13
 80026a4:	0b49      	lsrs	r1, r1, #13
 80026a6:	438a      	bics	r2, r1
 80026a8:	62aa      	str	r2, [r5, #40]	@ 0x28
      if (__LL_ADC_IS_CHANNEL_INTERNAL(pConfig->Channel))
 80026aa:	2b00      	cmp	r3, #0
 80026ac:	db00      	blt.n	80026b0 <HAL_ADC_ConfigChannel+0x1d8>
 80026ae:	e769      	b.n	8002584 <HAL_ADC_ConfigChannel+0xac>
  return (uint32_t)(READ_BIT(ADCxy_COMMON->CCR, ADC_CCR_VREFEN | ADC_CCR_TSEN | ADC_CCR_VBATEN));
 80026b0:	4a14      	ldr	r2, [pc, #80]	@ (8002704 <HAL_ADC_ConfigChannel+0x22c>)
        if (pConfig->Channel == ADC_CHANNEL_TEMPSENSOR)
 80026b2:	4815      	ldr	r0, [pc, #84]	@ (8002708 <HAL_ADC_ConfigChannel+0x230>)
 80026b4:	6811      	ldr	r1, [r2, #0]
 80026b6:	4283      	cmp	r3, r0
 80026b8:	d108      	bne.n	80026cc <HAL_ADC_ConfigChannel+0x1f4>
          LL_ADC_SetCommonPathInternalCh(__LL_ADC_COMMON_INSTANCE(hadc->Instance),
 80026ba:	23a0      	movs	r3, #160	@ 0xa0
  MODIFY_REG(ADCxy_COMMON->CCR, ADC_CCR_VREFEN | ADC_CCR_TSEN | ADC_CCR_VBATEN, PathInternal);
 80026bc:	6810      	ldr	r0, [r2, #0]
 80026be:	045b      	lsls	r3, r3, #17
          LL_ADC_SetCommonPathInternalCh(__LL_ADC_COMMON_INSTANCE(hadc->Instance),
 80026c0:	400b      	ands	r3, r1
 80026c2:	4912      	ldr	r1, [pc, #72]	@ (800270c <HAL_ADC_ConfigChannel+0x234>)
 80026c4:	4001      	ands	r1, r0
 80026c6:	430b      	orrs	r3, r1
 80026c8:	6013      	str	r3, [r2, #0]
}
 80026ca:	e75b      	b.n	8002584 <HAL_ADC_ConfigChannel+0xac>
        else if (pConfig->Channel == ADC_CHANNEL_VBAT)
 80026cc:	4812      	ldr	r0, [pc, #72]	@ (8002718 <HAL_ADC_ConfigChannel+0x240>)
 80026ce:	4283      	cmp	r3, r0
 80026d0:	d103      	bne.n	80026da <HAL_ADC_ConfigChannel+0x202>
          LL_ADC_SetCommonPathInternalCh(__LL_ADC_COMMON_INSTANCE(hadc->Instance),
 80026d2:	23c0      	movs	r3, #192	@ 0xc0
  MODIFY_REG(ADCxy_COMMON->CCR, ADC_CCR_VREFEN | ADC_CCR_TSEN | ADC_CCR_VBATEN, PathInternal);
 80026d4:	6810      	ldr	r0, [r2, #0]
 80026d6:	041b      	lsls	r3, r3, #16
 80026d8:	e7f2      	b.n	80026c0 <HAL_ADC_ConfigChannel+0x1e8>
        else if (pConfig->Channel == ADC_CHANNEL_VREFINT)
 80026da:	4810      	ldr	r0, [pc, #64]	@ (800271c <HAL_ADC_ConfigChannel+0x244>)
 80026dc:	4283      	cmp	r3, r0
 80026de:	d000      	beq.n	80026e2 <HAL_ADC_ConfigChannel+0x20a>
 80026e0:	e750      	b.n	8002584 <HAL_ADC_ConfigChannel+0xac>
          LL_ADC_SetCommonPathInternalCh(__LL_ADC_COMMON_INSTANCE(hadc->Instance),
 80026e2:	20c0      	movs	r0, #192	@ 0xc0
 80026e4:	0440      	lsls	r0, r0, #17
 80026e6:	6813      	ldr	r3, [r2, #0]
 80026e8:	4001      	ands	r1, r0
 80026ea:	4808      	ldr	r0, [pc, #32]	@ (800270c <HAL_ADC_ConfigChannel+0x234>)
 80026ec:	4003      	ands	r3, r0
 80026ee:	4319      	orrs	r1, r3
 80026f0:	6011      	str	r1, [r2, #0]
}
 80026f2:	e747      	b.n	8002584 <HAL_ADC_ConfigChannel+0xac>
    SET_BIT(hadc->State, HAL_ADC_STATE_ERROR_CONFIG);
 80026f4:	2320      	movs	r3, #32
 80026f6:	6da2      	ldr	r2, [r4, #88]	@ 0x58
    tmp_hal_status = HAL_ERROR;
 80026f8:	2001      	movs	r0, #1
    SET_BIT(hadc->State, HAL_ADC_STATE_ERROR_CONFIG);
 80026fa:	4313      	orrs	r3, r2
 80026fc:	65a3      	str	r3, [r4, #88]	@ 0x58
    tmp_hal_status = HAL_ERROR;
 80026fe:	e742      	b.n	8002586 <HAL_ADC_ConfigChannel+0xae>
 8002700:	07ffff00 	.word	0x07ffff00
 8002704:	40012708 	.word	0x40012708
 8002708:	b0001000 	.word	0xb0001000
 800270c:	fe3fffff 	.word	0xfe3fffff
 8002710:	2000000c 	.word	0x2000000c
 8002714:	00030d40 	.word	0x00030d40
 8002718:	b8004000 	.word	0xb8004000
 800271c:	b4002000 	.word	0xb4002000

08002720 <HAL_ADCEx_LevelOutOfWindow2Callback>:
  UNUSED(hadc);

  /* NOTE : This function should not be modified. When the callback is needed,
            function HAL_ADCEx_LevelOutOfWindow2Callback must be implemented in the user file.
  */
}
 8002720:	4770      	bx	lr

08002722 <HAL_ADCEx_LevelOutOfWindow3Callback>:
/**
  * @brief  Analog watchdog 3 callback in non-blocking mode.
  * @param hadc ADC handle
  * @retval None
  */
__weak void HAL_ADCEx_LevelOutOfWindow3Callback(ADC_HandleTypeDef *hadc)
 8002722:	4770      	bx	lr

08002724 <HAL_ADCEx_EndOfSamplingCallback>:
/**
  * @brief  End Of Sampling callback in non-blocking mode.
  * @param hadc ADC handle
  * @retval None
  */
__weak void HAL_ADCEx_EndOfSamplingCallback(ADC_HandleTypeDef *hadc)
 8002724:	4770      	bx	lr

08002726 <HAL_ADCEx_ChannelConfigReadyCallback>:
/**
  * @brief  ADC channel configuration ready callback in non-blocking mode.
  * @param hadc ADC handle
  * @retval None
  */
__weak void HAL_ADCEx_ChannelConfigReadyCallback(ADC_HandleTypeDef *hadc)
 8002726:	4770      	bx	lr

08002728 <HAL_NVIC_SetPriority>:
  *         with stm32g0xx devices, this parameter is a dummy value and it is ignored, because
  *         no subpriority supported in Cortex M0+ based products.
  * @retval None
  */
void HAL_NVIC_SetPriority(IRQn_Type IRQn, uint32_t PreemptPriority, uint32_t SubPriority)
{
 8002728:	b510      	push	{r4, lr}
 */
__STATIC_INLINE void __NVIC_SetPriority(IRQn_Type IRQn, uint32_t priority)
{
  if ((int32_t)(IRQn) >= 0)
  {
    NVIC->IP[_IP_IDX(IRQn)]  = ((uint32_t)(NVIC->IP[_IP_IDX(IRQn)]  & ~(0xFFUL << _BIT_SHIFT(IRQn))) |
 800272a:	24ff      	movs	r4, #255	@ 0xff
 800272c:	2203      	movs	r2, #3
 800272e:	000b      	movs	r3, r1
 8002730:	0021      	movs	r1, r4
 8002732:	4002      	ands	r2, r0
 8002734:	00d2      	lsls	r2, r2, #3
 8002736:	4091      	lsls	r1, r2
       (((priority << (8U - __NVIC_PRIO_BITS)) & (uint32_t)0xFFUL) << _BIT_SHIFT(IRQn)));
 8002738:	019b      	lsls	r3, r3, #6
 800273a:	4023      	ands	r3, r4
    NVIC->IP[_IP_IDX(IRQn)]  = ((uint32_t)(NVIC->IP[_IP_IDX(IRQn)]  & ~(0xFFUL << _BIT_SHIFT(IRQn))) |
 800273c:	43c9      	mvns	r1, r1
       (((priority << (8U - __NVIC_PRIO_BITS)) & (uint32_t)0xFFUL) << _BIT_SHIFT(IRQn)));
 800273e:	4093      	lsls	r3, r2
  if ((int32_t)(IRQn) >= 0)
 8002740:	2800      	cmp	r0, #0
 8002742:	db0a      	blt.n	800275a <HAL_NVIC_SetPriority+0x32>
    NVIC->IP[_IP_IDX(IRQn)]  = ((uint32_t)(NVIC->IP[_IP_IDX(IRQn)]  & ~(0xFFUL << _BIT_SHIFT(IRQn))) |
 8002744:	24c0      	movs	r4, #192	@ 0xc0
 8002746:	4a0b      	ldr	r2, [pc, #44]	@ (8002774 <HAL_NVIC_SetPriority+0x4c>)
 8002748:	0880      	lsrs	r0, r0, #2
 800274a:	0080      	lsls	r0, r0, #2
 800274c:	1880      	adds	r0, r0, r2
 800274e:	00a4      	lsls	r4, r4, #2
 8002750:	5902      	ldr	r2, [r0, r4]
 8002752:	400a      	ands	r2, r1
 8002754:	4313      	orrs	r3, r2
 8002756:	5103      	str	r3, [r0, r4]
  UNUSED(SubPriority);

  /* Check the parameters */
  assert_param(IS_NVIC_PREEMPTION_PRIORITY(PreemptPriority));
  NVIC_SetPriority(IRQn, PreemptPriority);
}
 8002758:	bd10      	pop	{r4, pc}
  }
  else
  {
    SCB->SHP[_SHP_IDX(IRQn)] = ((uint32_t)(SCB->SHP[_SHP_IDX(IRQn)] & ~(0xFFUL << _BIT_SHIFT(IRQn))) |
 800275a:	220f      	movs	r2, #15
 800275c:	4010      	ands	r0, r2
 800275e:	3808      	subs	r0, #8
 8002760:	4a05      	ldr	r2, [pc, #20]	@ (8002778 <HAL_NVIC_SetPriority+0x50>)
 8002762:	0880      	lsrs	r0, r0, #2
 8002764:	0080      	lsls	r0, r0, #2
 8002766:	1880      	adds	r0, r0, r2
 8002768:	69c2      	ldr	r2, [r0, #28]
 800276a:	4011      	ands	r1, r2
 800276c:	4319      	orrs	r1, r3
 800276e:	61c1      	str	r1, [r0, #28]
 8002770:	e7f2      	b.n	8002758 <HAL_NVIC_SetPriority+0x30>
 8002772:	46c0      	nop			@ (mov r8, r8)
 8002774:	e000e100 	.word	0xe000e100
 8002778:	e000ed00 	.word	0xe000ed00

0800277c <HAL_NVIC_EnableIRQ>:
  if ((int32_t)(IRQn) >= 0)
 800277c:	2800      	cmp	r0, #0
 800277e:	db05      	blt.n	800278c <HAL_NVIC_EnableIRQ+0x10>
    NVIC->ISER[0U] = (uint32_t)(1UL << (((uint32_t)IRQn) & 0x1FUL));
 8002780:	231f      	movs	r3, #31
 8002782:	4018      	ands	r0, r3
 8002784:	3b1e      	subs	r3, #30
 8002786:	4083      	lsls	r3, r0
 8002788:	4a01      	ldr	r2, [pc, #4]	@ (8002790 <HAL_NVIC_EnableIRQ+0x14>)
 800278a:	6013      	str	r3, [r2, #0]
  /* Check the parameters */
  assert_param(IS_NVIC_DEVICE_IRQ(IRQn));

  /* Enable interrupt */
  NVIC_EnableIRQ(IRQn);
}
 800278c:	4770      	bx	lr
 800278e:	46c0      	nop			@ (mov r8, r8)
 8002790:	e000e100 	.word	0xe000e100

08002794 <HAL_SYSTICK_Config>:
           function <b>SysTick_Config</b> is not included. In this case, the file <b><i>device</i>.h</b>
           must contain a vendor-specific implementation of this function.
 */
__STATIC_INLINE uint32_t SysTick_Config(uint32_t ticks)
{
  if ((ticks - 1UL) > SysTick_LOAD_RELOAD_Msk)
 8002794:	2280      	movs	r2, #128	@ 0x80
 8002796:	1e43      	subs	r3, r0, #1
 8002798:	0452      	lsls	r2, r2, #17
  {
    return (1UL);                                                   /* Reload value impossible */
 800279a:	2001      	movs	r0, #1
  if ((ticks - 1UL) > SysTick_LOAD_RELOAD_Msk)
 800279c:	4293      	cmp	r3, r2
 800279e:	d20d      	bcs.n	80027bc <HAL_SYSTICK_Config+0x28>
    SCB->SHP[_SHP_IDX(IRQn)] = ((uint32_t)(SCB->SHP[_SHP_IDX(IRQn)] & ~(0xFFUL << _BIT_SHIFT(IRQn))) |
 80027a0:	21c0      	movs	r1, #192	@ 0xc0
  }

  SysTick->LOAD  = (uint32_t)(ticks - 1UL);                         /* set reload register */
 80027a2:	4a07      	ldr	r2, [pc, #28]	@ (80027c0 <HAL_SYSTICK_Config+0x2c>)
    SCB->SHP[_SHP_IDX(IRQn)] = ((uint32_t)(SCB->SHP[_SHP_IDX(IRQn)] & ~(0xFFUL << _BIT_SHIFT(IRQn))) |
 80027a4:	4807      	ldr	r0, [pc, #28]	@ (80027c4 <HAL_SYSTICK_Config+0x30>)
  SysTick->LOAD  = (uint32_t)(ticks - 1UL);                         /* set reload register */
 80027a6:	6053      	str	r3, [r2, #4]
    SCB->SHP[_SHP_IDX(IRQn)] = ((uint32_t)(SCB->SHP[_SHP_IDX(IRQn)] & ~(0xFFUL << _BIT_SHIFT(IRQn))) |
 80027a8:	6a03      	ldr	r3, [r0, #32]
 80027aa:	0609      	lsls	r1, r1, #24
 80027ac:	021b      	lsls	r3, r3, #8
 80027ae:	0a1b      	lsrs	r3, r3, #8
 80027b0:	430b      	orrs	r3, r1
 80027b2:	6203      	str	r3, [r0, #32]
  NVIC_SetPriority (SysTick_IRQn, (1UL << __NVIC_PRIO_BITS) - 1UL); /* set Priority for Systick Interrupt */
  SysTick->VAL   = 0UL;                                             /* Load the SysTick Counter Value */
 80027b4:	2000      	movs	r0, #0
  SysTick->CTRL  = SysTick_CTRL_CLKSOURCE_Msk |
 80027b6:	2307      	movs	r3, #7
  SysTick->VAL   = 0UL;                                             /* Load the SysTick Counter Value */
 80027b8:	6090      	str	r0, [r2, #8]
  SysTick->CTRL  = SysTick_CTRL_CLKSOURCE_Msk |
 80027ba:	6013      	str	r3, [r2, #0]
  *                  - 1  Function failed.
  */
uint32_t HAL_SYSTICK_Config(uint32_t TicksNumb)
{
  return SysTick_Config(TicksNumb);
}
 80027bc:	4770      	bx	lr
 80027be:	46c0      	nop			@ (mov r8, r8)
 80027c0:	e000e010 	.word	0xe000e010
 80027c4:	e000ed00 	.word	0xe000ed00

080027c8 <DMA_CalcDMAMUXChannelBaseAndMask>:
  * @param hdma Pointer to a DMA_HandleTypeDef structure that contains
  *             the configuration information for the specified DMA Channel.
  * @retval None
  */
static void DMA_CalcDMAMUXChannelBaseAndMask(DMA_HandleTypeDef *hdma)
{
 80027c8:	b510      	push	{r4, lr}
 80027ca:	0004      	movs	r4, r0
    /* Prepare channel_number used for DMAmuxChannelStatusMask computation */
    channel_number = (((((uint32_t)hdma->Instance & 0xFFU) - 8U) / 20U) + 7U);
  }
#else
  /* Associate a DMA Channel to a DMAMUX channel */
  hdma->DMAmuxChannel = (DMAMUX_Channel_TypeDef *)(uint32_t)((uint32_t)DMAMUX1_Channel0 + ((hdma->ChannelIndex >> 2U) * ((uint32_t)DMAMUX1_Channel1 - (uint32_t)DMAMUX1_Channel0)));
 80027cc:	6c03      	ldr	r3, [r0, #64]	@ 0x40
 80027ce:	4a09      	ldr	r2, [pc, #36]	@ (80027f4 <DMA_CalcDMAMUXChannelBaseAndMask+0x2c>)
 80027d0:	089b      	lsrs	r3, r3, #2
 80027d2:	189b      	adds	r3, r3, r2
 80027d4:	009b      	lsls	r3, r3, #2
 80027d6:	6443      	str	r3, [r0, #68]	@ 0x44

  /* Prepare channel_number used for DMAmuxChannelStatusMask computation */
  channel_number = (((uint32_t)hdma->Instance & 0xFFU) - 8U) / 20U;
 80027d8:	6800      	ldr	r0, [r0, #0]
 80027da:	2114      	movs	r1, #20
 80027dc:	b2c0      	uxtb	r0, r0
 80027de:	3808      	subs	r0, #8
 80027e0:	f7fd fc98 	bl	8000114 <__udivsi3>
#endif /* DMA2 */

  /* Initialize the field DMAmuxChannelStatus to DMAMUX1_ChannelStatus base */
  hdma->DMAmuxChannelStatus = DMAMUX1_ChannelStatus;
 80027e4:	4b04      	ldr	r3, [pc, #16]	@ (80027f8 <DMA_CalcDMAMUXChannelBaseAndMask+0x30>)
 80027e6:	64a3      	str	r3, [r4, #72]	@ 0x48

  /* Initialize the field DMAmuxChannelStatusMask with the corresponding index of the DMAMUX channel selected for the current ChannelIndex */
  hdma->DMAmuxChannelStatusMask = 1UL << (channel_number & 0x1FU);
 80027e8:	231f      	movs	r3, #31
 80027ea:	4018      	ands	r0, r3
 80027ec:	3b1e      	subs	r3, #30
 80027ee:	4083      	lsls	r3, r0
 80027f0:	64e3      	str	r3, [r4, #76]	@ 0x4c
}
 80027f2:	bd10      	pop	{r4, pc}
 80027f4:	10008200 	.word	0x10008200
 80027f8:	40020880 	.word	0x40020880

080027fc <HAL_DMA_Init>:
{
 80027fc:	b5f8      	push	{r3, r4, r5, r6, r7, lr}
 80027fe:	0004      	movs	r4, r0
    return HAL_ERROR;
 8002800:	2001      	movs	r0, #1
  if (hdma == NULL)
 8002802:	2c00      	cmp	r4, #0
 8002804:	d046      	beq.n	8002894 <HAL_DMA_Init+0x98>
  hdma->ChannelIndex = (((uint32_t)hdma->Instance - (uint32_t)DMA1_Channel1) / ((uint32_t)DMA1_Channel2 - (uint32_t)DMA1_Channel1)) << 2U;
 8002806:	6825      	ldr	r5, [r4, #0]
 8002808:	4b25      	ldr	r3, [pc, #148]	@ (80028a0 <HAL_DMA_Init+0xa4>)
 800280a:	2114      	movs	r1, #20
 800280c:	18e8      	adds	r0, r5, r3
 800280e:	f7fd fc81 	bl	8000114 <__udivsi3>
  hdma->State = HAL_DMA_STATE_BUSY;
 8002812:	2302      	movs	r3, #2
  hdma->ChannelIndex = (((uint32_t)hdma->Instance - (uint32_t)DMA1_Channel1) / ((uint32_t)DMA1_Channel2 - (uint32_t)DMA1_Channel1)) << 2U;
 8002814:	0080      	lsls	r0, r0, #2
  hdma->State = HAL_DMA_STATE_BUSY;
 8002816:	1da6      	adds	r6, r4, #6
  hdma->ChannelIndex = (((uint32_t)hdma->Instance - (uint32_t)DMA1_Channel1) / ((uint32_t)DMA1_Channel2 - (uint32_t)DMA1_Channel1)) << 2U;
 8002818:	6420      	str	r0, [r4, #64]	@ 0x40
  hdma->State = HAL_DMA_STATE_BUSY;
 800281a:	77f3      	strb	r3, [r6, #31]
  CLEAR_BIT(hdma->Instance->CCR, (DMA_CCR_PL    | DMA_CCR_MSIZE  | DMA_CCR_PSIZE  | \
 800281c:	682b      	ldr	r3, [r5, #0]
 800281e:	4a21      	ldr	r2, [pc, #132]	@ (80028a4 <HAL_DMA_Init+0xa8>)
  SET_BIT(hdma->Instance->CCR, (hdma->Init.Direction           |                               \
 8002820:	68a7      	ldr	r7, [r4, #8]
  CLEAR_BIT(hdma->Instance->CCR, (DMA_CCR_PL    | DMA_CCR_MSIZE  | DMA_CCR_PSIZE  | \
 8002822:	4013      	ands	r3, r2
 8002824:	602b      	str	r3, [r5, #0]
  SET_BIT(hdma->Instance->CCR, (hdma->Init.Direction           |                               \
 8002826:	68e3      	ldr	r3, [r4, #12]
 8002828:	6921      	ldr	r1, [r4, #16]
 800282a:	433b      	orrs	r3, r7
 800282c:	430b      	orrs	r3, r1
 800282e:	6961      	ldr	r1, [r4, #20]
 8002830:	682a      	ldr	r2, [r5, #0]
 8002832:	430b      	orrs	r3, r1
 8002834:	69a1      	ldr	r1, [r4, #24]
  DMA_CalcDMAMUXChannelBaseAndMask(hdma);
 8002836:	0020      	movs	r0, r4
  SET_BIT(hdma->Instance->CCR, (hdma->Init.Direction           |                               \
 8002838:	430b      	orrs	r3, r1
 800283a:	69e1      	ldr	r1, [r4, #28]
 800283c:	430b      	orrs	r3, r1
 800283e:	6a21      	ldr	r1, [r4, #32]
 8002840:	430b      	orrs	r3, r1
 8002842:	4313      	orrs	r3, r2
 8002844:	602b      	str	r3, [r5, #0]
  DMA_CalcDMAMUXChannelBaseAndMask(hdma);
 8002846:	f7ff ffbf 	bl	80027c8 <DMA_CalcDMAMUXChannelBaseAndMask>
  if (hdma->Init.Direction == DMA_MEMORY_TO_MEMORY)
 800284a:	2380      	movs	r3, #128	@ 0x80
 800284c:	01db      	lsls	r3, r3, #7
 800284e:	429f      	cmp	r7, r3
 8002850:	d101      	bne.n	8002856 <HAL_DMA_Init+0x5a>
    hdma->Init.Request = DMA_REQUEST_MEM2MEM;
 8002852:	2300      	movs	r3, #0
 8002854:	6063      	str	r3, [r4, #4]
  hdma->DMAmuxChannel->CCR = (hdma->Init.Request & DMAMUX_CxCR_DMAREQ_ID);
 8002856:	233f      	movs	r3, #63	@ 0x3f
 8002858:	6862      	ldr	r2, [r4, #4]
 800285a:	6c61      	ldr	r1, [r4, #68]	@ 0x44
 800285c:	4013      	ands	r3, r2
 800285e:	600b      	str	r3, [r1, #0]
  hdma->DMAmuxChannelStatus->CFR = hdma->DMAmuxChannelStatusMask;
 8002860:	6ce0      	ldr	r0, [r4, #76]	@ 0x4c
 8002862:	6ca1      	ldr	r1, [r4, #72]	@ 0x48
  if (((hdma->Init.Request >  0UL) && (hdma->Init.Request <= DMA_REQUEST_GENERATOR3)))
 8002864:	3a01      	subs	r2, #1
  hdma->DMAmuxChannelStatus->CFR = hdma->DMAmuxChannelStatusMask;
 8002866:	6048      	str	r0, [r1, #4]
  if (((hdma->Init.Request >  0UL) && (hdma->Init.Request <= DMA_REQUEST_GENERATOR3)))
 8002868:	2a03      	cmp	r2, #3
 800286a:	d814      	bhi.n	8002896 <HAL_DMA_Init+0x9a>
static void DMA_CalcDMAMUXRequestGenBaseAndMask(DMA_HandleTypeDef *hdma)
{
  uint32_t request =  hdma->Init.Request & DMAMUX_CxCR_DMAREQ_ID;

  /* DMA Channels are connected to DMAMUX1 request generator blocks*/
  hdma->DMAmuxRequestGen = (DMAMUX_RequestGen_TypeDef *)((uint32_t)(((uint32_t)DMAMUX1_RequestGenerator0) + ((request - 1U) * 4U)));
 800286c:	4a0e      	ldr	r2, [pc, #56]	@ (80028a8 <HAL_DMA_Init+0xac>)

  hdma->DMAmuxRequestGenStatus = DMAMUX1_RequestGenStatus;
 800286e:	480f      	ldr	r0, [pc, #60]	@ (80028ac <HAL_DMA_Init+0xb0>)
  hdma->DMAmuxRequestGen = (DMAMUX_RequestGen_TypeDef *)((uint32_t)(((uint32_t)DMAMUX1_RequestGenerator0) + ((request - 1U) * 4U)));
 8002870:	1899      	adds	r1, r3, r2

  /* here "Request" is either DMA_REQUEST_GENERATOR0 to DMA_REQUEST_GENERATOR3, i.e. <= 4*/
  hdma->DMAmuxRequestGenStatusMask = 1UL << ((request - 1U) & 0x3U);
 8002872:	2201      	movs	r2, #1
 8002874:	3b01      	subs	r3, #1
 8002876:	409a      	lsls	r2, r3
 8002878:	65a2      	str	r2, [r4, #88]	@ 0x58
 800287a:	0013      	movs	r3, r2
    hdma->DMAmuxRequestGen->RGCR = 0U;
 800287c:	2200      	movs	r2, #0
  hdma->DMAmuxRequestGen = (DMAMUX_RequestGen_TypeDef *)((uint32_t)(((uint32_t)DMAMUX1_RequestGenerator0) + ((request - 1U) * 4U)));
 800287e:	0089      	lsls	r1, r1, #2
 8002880:	6521      	str	r1, [r4, #80]	@ 0x50
  hdma->DMAmuxRequestGenStatus = DMAMUX1_RequestGenStatus;
 8002882:	6560      	str	r0, [r4, #84]	@ 0x54
    hdma->DMAmuxRequestGen->RGCR = 0U;
 8002884:	600a      	str	r2, [r1, #0]
    hdma->DMAmuxRequestGenStatus->RGCFR = hdma->DMAmuxRequestGenStatusMask;
 8002886:	6043      	str	r3, [r0, #4]
  hdma->ErrorCode = HAL_DMA_ERROR_NONE;
 8002888:	2000      	movs	r0, #0
  hdma->State = HAL_DMA_STATE_READY;
 800288a:	2301      	movs	r3, #1
  hdma->ErrorCode = HAL_DMA_ERROR_NONE;
 800288c:	63e0      	str	r0, [r4, #60]	@ 0x3c
  __HAL_UNLOCK(hdma);
 800288e:	3405      	adds	r4, #5
  hdma->State = HAL_DMA_STATE_READY;
 8002890:	77f3      	strb	r3, [r6, #31]
  __HAL_UNLOCK(hdma);
 8002892:	77e0      	strb	r0, [r4, #31]
}
 8002894:	bdf8      	pop	{r3, r4, r5, r6, r7, pc}
    hdma->DMAmuxRequestGen = 0U;
 8002896:	2300      	movs	r3, #0
 8002898:	6523      	str	r3, [r4, #80]	@ 0x50
    hdma->DMAmuxRequestGenStatus = 0U;
 800289a:	6563      	str	r3, [r4, #84]	@ 0x54
    hdma->DMAmuxRequestGenStatusMask = 0U;
 800289c:	65a3      	str	r3, [r4, #88]	@ 0x58
 800289e:	e7f3      	b.n	8002888 <HAL_DMA_Init+0x8c>
 80028a0:	bffdfff8 	.word	0xbffdfff8
 80028a4:	ffff800f 	.word	0xffff800f
 80028a8:	1000823f 	.word	0x1000823f
 80028ac:	40020940 	.word	0x40020940

080028b0 <HAL_DMA_Abort_IT>:
{
 80028b0:	b5f8      	push	{r3, r4, r5, r6, r7, lr}
  if (hdma->State != HAL_DMA_STATE_BUSY)
 80028b2:	1d81      	adds	r1, r0, #6
 80028b4:	7fca      	ldrb	r2, [r1, #31]
 80028b6:	2301      	movs	r3, #1
 80028b8:	2a02      	cmp	r2, #2
 80028ba:	d003      	beq.n	80028c4 <HAL_DMA_Abort_IT+0x14>
    hdma->ErrorCode = HAL_DMA_ERROR_NO_XFER;
 80028bc:	2204      	movs	r2, #4
 80028be:	63c2      	str	r2, [r0, #60]	@ 0x3c
    status = HAL_ERROR;
 80028c0:	0018      	movs	r0, r3
}
 80028c2:	bdf8      	pop	{r3, r4, r5, r6, r7, pc}
    __HAL_DMA_DISABLE_IT(hdma, (DMA_IT_TC | DMA_IT_HT | DMA_IT_TE));
 80028c4:	250e      	movs	r5, #14
    __HAL_DMA_CLEAR_FLAG(hdma, ((DMA_FLAG_GI1) << (hdma->ChannelIndex & 0x1CU)));
 80028c6:	271c      	movs	r7, #28
    __HAL_DMA_DISABLE(hdma);
 80028c8:	6802      	ldr	r2, [r0, #0]
 80028ca:	6814      	ldr	r4, [r2, #0]
 80028cc:	439c      	bics	r4, r3
 80028ce:	6014      	str	r4, [r2, #0]
    __HAL_DMA_DISABLE_IT(hdma, (DMA_IT_TC | DMA_IT_HT | DMA_IT_TE));
 80028d0:	6814      	ldr	r4, [r2, #0]
 80028d2:	43ac      	bics	r4, r5
    hdma->DMAmuxChannel->CCR &= ~DMAMUX_CxCR_SOIE;
 80028d4:	6c45      	ldr	r5, [r0, #68]	@ 0x44
    __HAL_DMA_DISABLE_IT(hdma, (DMA_IT_TC | DMA_IT_HT | DMA_IT_TE));
 80028d6:	6014      	str	r4, [r2, #0]
    hdma->DMAmuxChannel->CCR &= ~DMAMUX_CxCR_SOIE;
 80028d8:	682a      	ldr	r2, [r5, #0]
 80028da:	4c10      	ldr	r4, [pc, #64]	@ (800291c <HAL_DMA_Abort_IT+0x6c>)
 80028dc:	4022      	ands	r2, r4
 80028de:	602a      	str	r2, [r5, #0]
    __HAL_DMA_CLEAR_FLAG(hdma, ((DMA_FLAG_GI1) << (hdma->ChannelIndex & 0x1CU)));
 80028e0:	6c02      	ldr	r2, [r0, #64]	@ 0x40
 80028e2:	4d0f      	ldr	r5, [pc, #60]	@ (8002920 <HAL_DMA_Abort_IT+0x70>)
 80028e4:	403a      	ands	r2, r7
 80028e6:	4093      	lsls	r3, r2
 80028e8:	686e      	ldr	r6, [r5, #4]
 80028ea:	4333      	orrs	r3, r6
 80028ec:	606b      	str	r3, [r5, #4]
    hdma->DMAmuxChannelStatus->CFR = hdma->DMAmuxChannelStatusMask;
 80028ee:	6cc2      	ldr	r2, [r0, #76]	@ 0x4c
 80028f0:	6c83      	ldr	r3, [r0, #72]	@ 0x48
 80028f2:	605a      	str	r2, [r3, #4]
    if (hdma->DMAmuxRequestGen != 0U)
 80028f4:	6d03      	ldr	r3, [r0, #80]	@ 0x50
 80028f6:	2b00      	cmp	r3, #0
 80028f8:	d005      	beq.n	8002906 <HAL_DMA_Abort_IT+0x56>
      hdma->DMAmuxRequestGen->RGCR &= ~DMAMUX_RGxCR_OIE;
 80028fa:	681a      	ldr	r2, [r3, #0]
 80028fc:	4022      	ands	r2, r4
 80028fe:	601a      	str	r2, [r3, #0]
      hdma->DMAmuxRequestGenStatus->RGCFR = hdma->DMAmuxRequestGenStatusMask;
 8002900:	6d43      	ldr	r3, [r0, #84]	@ 0x54
 8002902:	6d82      	ldr	r2, [r0, #88]	@ 0x58
 8002904:	605a      	str	r2, [r3, #4]
    hdma->State = HAL_DMA_STATE_READY;
 8002906:	2301      	movs	r3, #1
    __HAL_UNLOCK(hdma);
 8002908:	2200      	movs	r2, #0
    hdma->State = HAL_DMA_STATE_READY;
 800290a:	77cb      	strb	r3, [r1, #31]
    __HAL_UNLOCK(hdma);
 800290c:	1d43      	adds	r3, r0, #5
 800290e:	77da      	strb	r2, [r3, #31]
    if (hdma->XferAbortCallback != NULL)
 8002910:	6b83      	ldr	r3, [r0, #56]	@ 0x38
 8002912:	4293      	cmp	r3, r2
 8002914:	d000      	beq.n	8002918 <HAL_DMA_Abort_IT+0x68>
      hdma->XferAbortCallback(hdma);
 8002916:	4798      	blx	r3
  HAL_StatusTypeDef status = HAL_OK;
 8002918:	2000      	movs	r0, #0
 800291a:	e7d2      	b.n	80028c2 <HAL_DMA_Abort_IT+0x12>
 800291c:	fffffeff 	.word	0xfffffeff
 8002920:	40020000 	.word	0x40020000

08002924 <HAL_DMA_IRQHandler>:
{
 8002924:	b5f8      	push	{r3, r4, r5, r6, r7, lr}
  if (((flag_it & (DMA_FLAG_HT1 << (hdma->ChannelIndex & 0x1CU))) != 0U) && ((source_it & DMA_IT_HT) != 0U))
 8002926:	241c      	movs	r4, #28
 8002928:	2704      	movs	r7, #4
 800292a:	6c01      	ldr	r1, [r0, #64]	@ 0x40
  uint32_t flag_it = DMA1->ISR;
 800292c:	4a26      	ldr	r2, [pc, #152]	@ (80029c8 <HAL_DMA_IRQHandler+0xa4>)
  if (((flag_it & (DMA_FLAG_HT1 << (hdma->ChannelIndex & 0x1CU))) != 0U) && ((source_it & DMA_IT_HT) != 0U))
 800292e:	4021      	ands	r1, r4
 8002930:	003c      	movs	r4, r7
 8002932:	408c      	lsls	r4, r1
  uint32_t flag_it = DMA1->ISR;
 8002934:	6816      	ldr	r6, [r2, #0]
  uint32_t source_it = hdma->Instance->CCR;
 8002936:	6803      	ldr	r3, [r0, #0]
 8002938:	681d      	ldr	r5, [r3, #0]
  if (((flag_it & (DMA_FLAG_HT1 << (hdma->ChannelIndex & 0x1CU))) != 0U) && ((source_it & DMA_IT_HT) != 0U))
 800293a:	4226      	tst	r6, r4
 800293c:	d00f      	beq.n	800295e <HAL_DMA_IRQHandler+0x3a>
 800293e:	423d      	tst	r5, r7
 8002940:	d00d      	beq.n	800295e <HAL_DMA_IRQHandler+0x3a>
    if ((hdma->Instance->CCR & DMA_CCR_CIRC) == 0U)
 8002942:	6819      	ldr	r1, [r3, #0]
 8002944:	0689      	lsls	r1, r1, #26
 8002946:	d402      	bmi.n	800294e <HAL_DMA_IRQHandler+0x2a>
      __HAL_DMA_DISABLE_IT(hdma, DMA_IT_HT);
 8002948:	6819      	ldr	r1, [r3, #0]
 800294a:	43b9      	bics	r1, r7
 800294c:	6019      	str	r1, [r3, #0]
    __HAL_DMA_CLEAR_FLAG(hdma, (DMA_FLAG_HT1 << (hdma->ChannelIndex & 0x1CU)));
 800294e:	6853      	ldr	r3, [r2, #4]
 8002950:	431c      	orrs	r4, r3
    if (hdma->XferHalfCpltCallback != NULL)
 8002952:	6b03      	ldr	r3, [r0, #48]	@ 0x30
    __HAL_DMA_CLEAR_FLAG(hdma, (DMA_FLAG_HT1 << (hdma->ChannelIndex & 0x1CU)));
 8002954:	6054      	str	r4, [r2, #4]
    if (hdma->XferHalfCpltCallback != NULL)
 8002956:	2b00      	cmp	r3, #0
 8002958:	d01b      	beq.n	8002992 <HAL_DMA_IRQHandler+0x6e>
      hdma->XferErrorCallback(hdma);
 800295a:	4798      	blx	r3
  return;
 800295c:	e019      	b.n	8002992 <HAL_DMA_IRQHandler+0x6e>
  else if ((0U != (flag_it & (DMA_FLAG_TC1 << (hdma->ChannelIndex & 0x1CU)))) && (0U != (source_it & DMA_IT_TC)))
 800295e:	2702      	movs	r7, #2
 8002960:	003c      	movs	r4, r7
 8002962:	408c      	lsls	r4, r1
 8002964:	4226      	tst	r6, r4
 8002966:	d015      	beq.n	8002994 <HAL_DMA_IRQHandler+0x70>
 8002968:	423d      	tst	r5, r7
 800296a:	d013      	beq.n	8002994 <HAL_DMA_IRQHandler+0x70>
    if ((hdma->Instance->CCR & DMA_CCR_CIRC) == 0U)
 800296c:	6819      	ldr	r1, [r3, #0]
 800296e:	0689      	lsls	r1, r1, #26
 8002970:	d406      	bmi.n	8002980 <HAL_DMA_IRQHandler+0x5c>
      __HAL_DMA_DISABLE_IT(hdma, DMA_IT_TE | DMA_IT_TC);
 8002972:	250a      	movs	r5, #10
 8002974:	6819      	ldr	r1, [r3, #0]
 8002976:	43a9      	bics	r1, r5
 8002978:	6019      	str	r1, [r3, #0]
      hdma->State = HAL_DMA_STATE_READY;
 800297a:	2101      	movs	r1, #1
 800297c:	1d83      	adds	r3, r0, #6
 800297e:	77d9      	strb	r1, [r3, #31]
    __HAL_DMA_CLEAR_FLAG(hdma, (DMA_FLAG_TC1 << (hdma->ChannelIndex & 0x1CU)));
 8002980:	6853      	ldr	r3, [r2, #4]
 8002982:	431c      	orrs	r4, r3
 8002984:	6054      	str	r4, [r2, #4]
    __HAL_UNLOCK(hdma);
 8002986:	2200      	movs	r2, #0
 8002988:	1d43      	adds	r3, r0, #5
 800298a:	77da      	strb	r2, [r3, #31]
    if (hdma->XferCpltCallback != NULL)
 800298c:	6ac3      	ldr	r3, [r0, #44]	@ 0x2c
    if (hdma->XferErrorCallback != NULL)
 800298e:	4293      	cmp	r3, r2
 8002990:	d1e3      	bne.n	800295a <HAL_DMA_IRQHandler+0x36>
}
 8002992:	bdf8      	pop	{r3, r4, r5, r6, r7, pc}
  else if (((flag_it & (DMA_FLAG_TE1 << (hdma->ChannelIndex & 0x1CU))) != 0U) && ((source_it & DMA_IT_TE) != 0U))
 8002994:	2408      	movs	r4, #8
 8002996:	0027      	movs	r7, r4
 8002998:	408f      	lsls	r7, r1
 800299a:	423e      	tst	r6, r7
 800299c:	d0f9      	beq.n	8002992 <HAL_DMA_IRQHandler+0x6e>
 800299e:	4225      	tst	r5, r4
 80029a0:	d0f7      	beq.n	8002992 <HAL_DMA_IRQHandler+0x6e>
    __HAL_DMA_DISABLE_IT(hdma, (DMA_IT_TC | DMA_IT_HT | DMA_IT_TE));
 80029a2:	250e      	movs	r5, #14
 80029a4:	681c      	ldr	r4, [r3, #0]
 80029a6:	43ac      	bics	r4, r5
 80029a8:	601c      	str	r4, [r3, #0]
    __HAL_DMA_CLEAR_FLAG(hdma, (DMA_FLAG_GI1 << (hdma->ChannelIndex & 0x1CU)));
 80029aa:	2301      	movs	r3, #1
 80029ac:	001d      	movs	r5, r3
 80029ae:	408d      	lsls	r5, r1
 80029b0:	0029      	movs	r1, r5
 80029b2:	6854      	ldr	r4, [r2, #4]
 80029b4:	4321      	orrs	r1, r4
 80029b6:	6051      	str	r1, [r2, #4]
    hdma->State = HAL_DMA_STATE_READY;
 80029b8:	1d82      	adds	r2, r0, #6
    hdma->ErrorCode = HAL_DMA_ERROR_TE;
 80029ba:	63c3      	str	r3, [r0, #60]	@ 0x3c
    hdma->State = HAL_DMA_STATE_READY;
 80029bc:	77d3      	strb	r3, [r2, #31]
    __HAL_UNLOCK(hdma);
 80029be:	2200      	movs	r2, #0
 80029c0:	1d43      	adds	r3, r0, #5
 80029c2:	77da      	strb	r2, [r3, #31]
    if (hdma->XferErrorCallback != NULL)
 80029c4:	6b43      	ldr	r3, [r0, #52]	@ 0x34
 80029c6:	e7e2      	b.n	800298e <HAL_DMA_IRQHandler+0x6a>
 80029c8:	40020000 	.word	0x40020000

080029cc <HAL_DMA_GetState>:
  return hdma->State;
 80029cc:	3006      	adds	r0, #6
 80029ce:	7fc0      	ldrb	r0, [r0, #31]
 80029d0:	b2c0      	uxtb	r0, r0
}
 80029d2:	4770      	bx	lr

080029d4 <HAL_GPIO_Init>:
  *         the configuration information for the specified GPIO peripheral.
  * @retval None
  */
void HAL_GPIO_Init(GPIO_TypeDef *GPIOx, GPIO_InitTypeDef const *GPIO_Init)
{
  uint32_t position = 0x00u;
 80029d4:	2300      	movs	r3, #0
{
 80029d6:	b5f0      	push	{r4, r5, r6, r7, lr}
 80029d8:	b085      	sub	sp, #20
  assert_param(IS_GPIO_ALL_INSTANCE(GPIOx));
  assert_param(IS_GPIO_PIN(GPIO_Init->Pin));
  assert_param(IS_GPIO_MODE(GPIO_Init->Mode));

  /* Configure the port pins */
  while (((GPIO_Init->Pin) >> position) != 0x00u)
 80029da:	680a      	ldr	r2, [r1, #0]
 80029dc:	0014      	movs	r4, r2
 80029de:	40dc      	lsrs	r4, r3
 80029e0:	d101      	bne.n	80029e6 <HAL_GPIO_Init+0x12>
      }
    }

    position++;
  }
}
 80029e2:	b005      	add	sp, #20
 80029e4:	bdf0      	pop	{r4, r5, r6, r7, pc}
    iocurrent = (GPIO_Init->Pin) & (1uL << position);
 80029e6:	2501      	movs	r5, #1
 80029e8:	0014      	movs	r4, r2
 80029ea:	409d      	lsls	r5, r3
 80029ec:	402c      	ands	r4, r5
 80029ee:	9400      	str	r4, [sp, #0]
    if (iocurrent != 0x00u)
 80029f0:	422a      	tst	r2, r5
 80029f2:	d100      	bne.n	80029f6 <HAL_GPIO_Init+0x22>
 80029f4:	e091      	b.n	8002b1a <HAL_GPIO_Init+0x146>
      if (((GPIO_Init->Mode & GPIO_MODE) == MODE_OUTPUT) || ((GPIO_Init->Mode & GPIO_MODE) == MODE_AF))
 80029f6:	684a      	ldr	r2, [r1, #4]
 80029f8:	005f      	lsls	r7, r3, #1
 80029fa:	4694      	mov	ip, r2
 80029fc:	2203      	movs	r2, #3
 80029fe:	4664      	mov	r4, ip
 8002a00:	4022      	ands	r2, r4
        temp &= ~(GPIO_OSPEEDR_OSPEED0 << (position * 2u));
 8002a02:	2403      	movs	r4, #3
 8002a04:	40bc      	lsls	r4, r7
 8002a06:	43e4      	mvns	r4, r4
 8002a08:	9401      	str	r4, [sp, #4]
      if (((GPIO_Init->Mode & GPIO_MODE) == MODE_OUTPUT) || ((GPIO_Init->Mode & GPIO_MODE) == MODE_AF))
 8002a0a:	1e54      	subs	r4, r2, #1
 8002a0c:	2c01      	cmp	r4, #1
 8002a0e:	d82e      	bhi.n	8002a6e <HAL_GPIO_Init+0x9a>
        temp = GPIOx->OSPEEDR;
 8002a10:	6886      	ldr	r6, [r0, #8]
        temp &= ~(GPIO_OSPEEDR_OSPEED0 << (position * 2u));
 8002a12:	9c01      	ldr	r4, [sp, #4]
 8002a14:	4026      	ands	r6, r4
        temp |= (GPIO_Init->Speed << (position * 2u));
 8002a16:	68cc      	ldr	r4, [r1, #12]
 8002a18:	40bc      	lsls	r4, r7
 8002a1a:	4334      	orrs	r4, r6
        GPIOx->OSPEEDR = temp;
 8002a1c:	6084      	str	r4, [r0, #8]
        temp = GPIOx->OTYPER;
 8002a1e:	6844      	ldr	r4, [r0, #4]
        temp |= (((GPIO_Init->Mode & OUTPUT_TYPE) >> OUTPUT_TYPE_Pos) << position);
 8002a20:	2601      	movs	r6, #1
        temp &= ~(GPIO_OTYPER_OT0 << position) ;
 8002a22:	43ac      	bics	r4, r5
 8002a24:	0025      	movs	r5, r4
        temp |= (((GPIO_Init->Mode & OUTPUT_TYPE) >> OUTPUT_TYPE_Pos) << position);
 8002a26:	4664      	mov	r4, ip
 8002a28:	0924      	lsrs	r4, r4, #4
 8002a2a:	4034      	ands	r4, r6
 8002a2c:	409c      	lsls	r4, r3
 8002a2e:	432c      	orrs	r4, r5
        GPIOx->OTYPER = temp;
 8002a30:	6044      	str	r4, [r0, #4]
        temp = GPIOx->PUPDR;
 8002a32:	68c5      	ldr	r5, [r0, #12]
        temp &= ~(GPIO_PUPDR_PUPD0 << (position * 2u));
 8002a34:	9c01      	ldr	r4, [sp, #4]
 8002a36:	4025      	ands	r5, r4
        temp |= ((GPIO_Init->Pull) << (position * 2u));
 8002a38:	688c      	ldr	r4, [r1, #8]
 8002a3a:	40bc      	lsls	r4, r7
 8002a3c:	432c      	orrs	r4, r5
        GPIOx->PUPDR = temp;
 8002a3e:	60c4      	str	r4, [r0, #12]
      if ((GPIO_Init->Mode & GPIO_MODE) == MODE_AF)
 8002a40:	2a02      	cmp	r2, #2
 8002a42:	d116      	bne.n	8002a72 <HAL_GPIO_Init+0x9e>
        temp &= ~(0xFu << ((position & 0x07u) * 4u));
 8002a44:	2507      	movs	r5, #7
 8002a46:	260f      	movs	r6, #15
 8002a48:	401d      	ands	r5, r3
 8002a4a:	00ad      	lsls	r5, r5, #2
 8002a4c:	40ae      	lsls	r6, r5
        temp = GPIOx->AFR[position >> 3u];
 8002a4e:	08dc      	lsrs	r4, r3, #3
 8002a50:	00a4      	lsls	r4, r4, #2
 8002a52:	1904      	adds	r4, r0, r4
 8002a54:	9402      	str	r4, [sp, #8]
 8002a56:	6a24      	ldr	r4, [r4, #32]
        temp &= ~(0xFu << ((position & 0x07u) * 4u));
 8002a58:	9603      	str	r6, [sp, #12]
 8002a5a:	0026      	movs	r6, r4
 8002a5c:	9c03      	ldr	r4, [sp, #12]
 8002a5e:	43a6      	bics	r6, r4
 8002a60:	0034      	movs	r4, r6
        temp |= ((GPIO_Init->Alternate) << ((position & 0x07u) * 4u));
 8002a62:	690e      	ldr	r6, [r1, #16]
 8002a64:	40ae      	lsls	r6, r5
 8002a66:	4326      	orrs	r6, r4
        GPIOx->AFR[position >> 3u] = temp;
 8002a68:	9c02      	ldr	r4, [sp, #8]
 8002a6a:	6226      	str	r6, [r4, #32]
 8002a6c:	e001      	b.n	8002a72 <HAL_GPIO_Init+0x9e>
      if ((GPIO_Init->Mode & GPIO_MODE) != MODE_ANALOG)
 8002a6e:	2a03      	cmp	r2, #3
 8002a70:	d1df      	bne.n	8002a32 <HAL_GPIO_Init+0x5e>
      temp |= ((GPIO_Init->Mode & GPIO_MODE) << (position * 2u));
 8002a72:	40ba      	lsls	r2, r7
      temp = GPIOx->MODER;
 8002a74:	6804      	ldr	r4, [r0, #0]
      temp &= ~(GPIO_MODER_MODE0 << (position * 2u));
 8002a76:	9d01      	ldr	r5, [sp, #4]
 8002a78:	4025      	ands	r5, r4
      temp |= ((GPIO_Init->Mode & GPIO_MODE) << (position * 2u));
 8002a7a:	432a      	orrs	r2, r5
      if ((GPIO_Init->Mode & EXTI_MODE) != 0x00u)
 8002a7c:	24c0      	movs	r4, #192	@ 0xc0
      GPIOx->MODER = temp;
 8002a7e:	6002      	str	r2, [r0, #0]
      if ((GPIO_Init->Mode & EXTI_MODE) != 0x00u)
 8002a80:	4662      	mov	r2, ip
 8002a82:	02a4      	lsls	r4, r4, #10
 8002a84:	4222      	tst	r2, r4
 8002a86:	d048      	beq.n	8002b1a <HAL_GPIO_Init+0x146>
        temp = EXTI->EXTICR[position >> 2u];
 8002a88:	4a25      	ldr	r2, [pc, #148]	@ (8002b20 <HAL_GPIO_Init+0x14c>)
        temp &= ~(0x0FuL << (8u * (position & 0x03u)));
 8002a8a:	2503      	movs	r5, #3
        temp = EXTI->EXTICR[position >> 2u];
 8002a8c:	089c      	lsrs	r4, r3, #2
 8002a8e:	00a4      	lsls	r4, r4, #2
 8002a90:	18a4      	adds	r4, r4, r2
        temp &= ~(0x0FuL << (8u * (position & 0x03u)));
 8002a92:	220f      	movs	r2, #15
 8002a94:	401d      	ands	r5, r3
 8002a96:	00ed      	lsls	r5, r5, #3
 8002a98:	40aa      	lsls	r2, r5
        temp |= (GPIO_GET_INDEX(GPIOx) << (8u * (position & 0x03u)));
 8002a9a:	27a0      	movs	r7, #160	@ 0xa0
        temp = EXTI->EXTICR[position >> 2u];
 8002a9c:	6e26      	ldr	r6, [r4, #96]	@ 0x60
        temp |= (GPIO_GET_INDEX(GPIOx) << (8u * (position & 0x03u)));
 8002a9e:	05ff      	lsls	r7, r7, #23
        temp &= ~(0x0FuL << (8u * (position & 0x03u)));
 8002aa0:	4396      	bics	r6, r2
        temp |= (GPIO_GET_INDEX(GPIOx) << (8u * (position & 0x03u)));
 8002aa2:	2200      	movs	r2, #0
 8002aa4:	42b8      	cmp	r0, r7
 8002aa6:	d00c      	beq.n	8002ac2 <HAL_GPIO_Init+0xee>
 8002aa8:	4f1e      	ldr	r7, [pc, #120]	@ (8002b24 <HAL_GPIO_Init+0x150>)
 8002aaa:	3201      	adds	r2, #1
 8002aac:	42b8      	cmp	r0, r7
 8002aae:	d008      	beq.n	8002ac2 <HAL_GPIO_Init+0xee>
 8002ab0:	4f1d      	ldr	r7, [pc, #116]	@ (8002b28 <HAL_GPIO_Init+0x154>)
 8002ab2:	3201      	adds	r2, #1
 8002ab4:	42b8      	cmp	r0, r7
 8002ab6:	d004      	beq.n	8002ac2 <HAL_GPIO_Init+0xee>
 8002ab8:	4f1c      	ldr	r7, [pc, #112]	@ (8002b2c <HAL_GPIO_Init+0x158>)
 8002aba:	3203      	adds	r2, #3
 8002abc:	42b8      	cmp	r0, r7
 8002abe:	d100      	bne.n	8002ac2 <HAL_GPIO_Init+0xee>
 8002ac0:	3a02      	subs	r2, #2
 8002ac2:	40aa      	lsls	r2, r5
        if ((GPIO_Init->Mode & TRIGGER_RISING) != 0x00u)
 8002ac4:	4667      	mov	r7, ip
        temp |= (GPIO_GET_INDEX(GPIOx) << (8u * (position & 0x03u)));
 8002ac6:	4332      	orrs	r2, r6
        EXTI->EXTICR[position >> 2u] = temp;
 8002ac8:	6622      	str	r2, [r4, #96]	@ 0x60
        temp = EXTI->RTSR1;
 8002aca:	4c15      	ldr	r4, [pc, #84]	@ (8002b20 <HAL_GPIO_Init+0x14c>)
        temp &= ~(iocurrent);
 8002acc:	9a00      	ldr	r2, [sp, #0]
        temp = EXTI->RTSR1;
 8002ace:	6826      	ldr	r6, [r4, #0]
          temp |= iocurrent;
 8002ad0:	9d00      	ldr	r5, [sp, #0]
        temp &= ~(iocurrent);
 8002ad2:	43d2      	mvns	r2, r2
          temp |= iocurrent;
 8002ad4:	4335      	orrs	r5, r6
        if ((GPIO_Init->Mode & TRIGGER_RISING) != 0x00u)
 8002ad6:	02ff      	lsls	r7, r7, #11
 8002ad8:	d401      	bmi.n	8002ade <HAL_GPIO_Init+0x10a>
        temp &= ~(iocurrent);
 8002ada:	0035      	movs	r5, r6
 8002adc:	4015      	ands	r5, r2
        if ((GPIO_Init->Mode & TRIGGER_FALLING) != 0x00u)
 8002ade:	4667      	mov	r7, ip
        EXTI->RTSR1 = temp;
 8002ae0:	6025      	str	r5, [r4, #0]
        temp = EXTI->FTSR1;
 8002ae2:	6866      	ldr	r6, [r4, #4]
          temp |= iocurrent;
 8002ae4:	9d00      	ldr	r5, [sp, #0]
 8002ae6:	4335      	orrs	r5, r6
        if ((GPIO_Init->Mode & TRIGGER_FALLING) != 0x00u)
 8002ae8:	02bf      	lsls	r7, r7, #10
 8002aea:	d401      	bmi.n	8002af0 <HAL_GPIO_Init+0x11c>
        temp &= ~(iocurrent);
 8002aec:	0035      	movs	r5, r6
 8002aee:	4015      	ands	r5, r2
        if ((GPIO_Init->Mode & EXTI_EVT) != 0x00u)
 8002af0:	4667      	mov	r7, ip
        EXTI->FTSR1 = temp;
 8002af2:	6065      	str	r5, [r4, #4]
        temp = EXTI->EMR1;
 8002af4:	4c0e      	ldr	r4, [pc, #56]	@ (8002b30 <HAL_GPIO_Init+0x15c>)
          temp |= iocurrent;
 8002af6:	9d00      	ldr	r5, [sp, #0]
        temp = EXTI->EMR1;
 8002af8:	6fe6      	ldr	r6, [r4, #124]	@ 0x7c
          temp |= iocurrent;
 8002afa:	4335      	orrs	r5, r6
        if ((GPIO_Init->Mode & EXTI_EVT) != 0x00u)
 8002afc:	03bf      	lsls	r7, r7, #14
 8002afe:	d401      	bmi.n	8002b04 <HAL_GPIO_Init+0x130>
        temp &= ~(iocurrent);
 8002b00:	0035      	movs	r5, r6
 8002b02:	4015      	ands	r5, r2
        if ((GPIO_Init->Mode & EXTI_IT) != 0x00u)
 8002b04:	4667      	mov	r7, ip
        EXTI->EMR1 = temp;
 8002b06:	67e5      	str	r5, [r4, #124]	@ 0x7c
        temp = EXTI->IMR1;
 8002b08:	4c0a      	ldr	r4, [pc, #40]	@ (8002b34 <HAL_GPIO_Init+0x160>)
          temp |= iocurrent;
 8002b0a:	9e00      	ldr	r6, [sp, #0]
        temp = EXTI->IMR1;
 8002b0c:	6fe5      	ldr	r5, [r4, #124]	@ 0x7c
          temp |= iocurrent;
 8002b0e:	432e      	orrs	r6, r5
        if ((GPIO_Init->Mode & EXTI_IT) != 0x00u)
 8002b10:	03ff      	lsls	r7, r7, #15
 8002b12:	d401      	bmi.n	8002b18 <HAL_GPIO_Init+0x144>
        temp &= ~(iocurrent);
 8002b14:	4015      	ands	r5, r2
 8002b16:	002e      	movs	r6, r5
        EXTI->IMR1 = temp;
 8002b18:	67e6      	str	r6, [r4, #124]	@ 0x7c
    position++;
 8002b1a:	3301      	adds	r3, #1
 8002b1c:	e75d      	b.n	80029da <HAL_GPIO_Init+0x6>
 8002b1e:	46c0      	nop			@ (mov r8, r8)
 8002b20:	40021800 	.word	0x40021800
 8002b24:	50000400 	.word	0x50000400
 8002b28:	50000800 	.word	0x50000800
 8002b2c:	50000c00 	.word	0x50000c00
 8002b30:	40021808 	.word	0x40021808
 8002b34:	40021804 	.word	0x40021804

08002b38 <HAL_GPIO_ReadPin>:
  GPIO_PinState bitstatus;

  /* Check the parameters */
  assert_param(IS_GPIO_PIN(GPIO_Pin));

  if ((GPIOx->IDR & GPIO_Pin) != 0x00u)
 8002b38:	6900      	ldr	r0, [r0, #16]
 8002b3a:	4008      	ands	r0, r1
 8002b3c:	1e43      	subs	r3, r0, #1
 8002b3e:	4198      	sbcs	r0, r3
  }
  else
  {
    bitstatus = GPIO_PIN_RESET;
  }
  return bitstatus;
 8002b40:	b2c0      	uxtb	r0, r0
}
 8002b42:	4770      	bx	lr

08002b44 <HAL_GPIO_WritePin>:
{
  /* Check the parameters */
  assert_param(IS_GPIO_PIN(GPIO_Pin));
  assert_param(IS_GPIO_PIN_ACTION(PinState));

  if (PinState != GPIO_PIN_RESET)
 8002b44:	2a00      	cmp	r2, #0
 8002b46:	d001      	beq.n	8002b4c <HAL_GPIO_WritePin+0x8>
  {
    GPIOx->BSRR = (uint32_t)GPIO_Pin;
 8002b48:	6181      	str	r1, [r0, #24]
  }
  else
  {
    GPIOx->BRR = (uint32_t)GPIO_Pin;
  }
}
 8002b4a:	4770      	bx	lr
    GPIOx->BRR = (uint32_t)GPIO_Pin;
 8002b4c:	6281      	str	r1, [r0, #40]	@ 0x28
}
 8002b4e:	e7fc      	b.n	8002b4a <HAL_GPIO_WritePin+0x6>

08002b50 <I2C_Flush_TXDR>:
  */
static void I2C_Flush_TXDR(I2C_HandleTypeDef *hi2c)
{
  /* If a pending TXIS flag is set */
  /* Write a dummy data in TXDR to clear it */
  if (__HAL_I2C_GET_FLAG(hi2c, I2C_FLAG_TXIS) != RESET)
 8002b50:	6803      	ldr	r3, [r0, #0]
 8002b52:	699a      	ldr	r2, [r3, #24]
 8002b54:	0792      	lsls	r2, r2, #30
 8002b56:	d501      	bpl.n	8002b5c <I2C_Flush_TXDR+0xc>
  {
    hi2c->Instance->TXDR = 0x00U;
 8002b58:	2200      	movs	r2, #0
 8002b5a:	629a      	str	r2, [r3, #40]	@ 0x28
  }

  /* Flush TX register if not empty */
  if (__HAL_I2C_GET_FLAG(hi2c, I2C_FLAG_TXE) == RESET)
 8002b5c:	2201      	movs	r2, #1
 8002b5e:	6999      	ldr	r1, [r3, #24]
 8002b60:	4211      	tst	r1, r2
 8002b62:	d102      	bne.n	8002b6a <I2C_Flush_TXDR+0x1a>
  {
    __HAL_I2C_CLEAR_FLAG(hi2c, I2C_FLAG_TXE);
 8002b64:	6999      	ldr	r1, [r3, #24]
 8002b66:	430a      	orrs	r2, r1
 8002b68:	619a      	str	r2, [r3, #24]
  }
}
 8002b6a:	4770      	bx	lr

08002b6c <I2C_TransferConfig>:
  *     @arg @ref I2C_GENERATE_START_WRITE Generate Restart for write request.
  * @retval None
  */
static void I2C_TransferConfig(I2C_HandleTypeDef *hi2c, uint16_t DevAddress, uint8_t Size, uint32_t Mode,
                               uint32_t Request)
{
 8002b6c:	b530      	push	{r4, r5, lr}
 8002b6e:	9c03      	ldr	r4, [sp, #12]
  tmp = ((uint32_t)(((uint32_t)DevAddress & I2C_CR2_SADD) | \
                    (((uint32_t)Size << I2C_CR2_NBYTES_Pos) & I2C_CR2_NBYTES) | \
                    (uint32_t)Mode | (uint32_t)Request) & (~0x80000000U));

  /* update CR2 register */
  MODIFY_REG(hi2c->Instance->CR2, \
 8002b70:	6800      	ldr	r0, [r0, #0]
  tmp = ((uint32_t)(((uint32_t)DevAddress & I2C_CR2_SADD) | \
 8002b72:	4323      	orrs	r3, r4
                    (((uint32_t)Size << I2C_CR2_NBYTES_Pos) & I2C_CR2_NBYTES) | \
 8002b74:	0412      	lsls	r2, r2, #16
  tmp = ((uint32_t)(((uint32_t)DevAddress & I2C_CR2_SADD) | \
 8002b76:	0589      	lsls	r1, r1, #22
 8002b78:	431a      	orrs	r2, r3
 8002b7a:	0d89      	lsrs	r1, r1, #22
  MODIFY_REG(hi2c->Instance->CR2, \
 8002b7c:	4b05      	ldr	r3, [pc, #20]	@ (8002b94 <I2C_TransferConfig+0x28>)
 8002b7e:	6845      	ldr	r5, [r0, #4]
  tmp = ((uint32_t)(((uint32_t)DevAddress & I2C_CR2_SADD) | \
 8002b80:	430a      	orrs	r2, r1
  MODIFY_REG(hi2c->Instance->CR2, \
 8002b82:	0d64      	lsrs	r4, r4, #21
 8002b84:	4323      	orrs	r3, r4
  tmp = ((uint32_t)(((uint32_t)DevAddress & I2C_CR2_SADD) | \
 8002b86:	0052      	lsls	r2, r2, #1
  MODIFY_REG(hi2c->Instance->CR2, \
 8002b88:	439d      	bics	r5, r3
  tmp = ((uint32_t)(((uint32_t)DevAddress & I2C_CR2_SADD) | \
 8002b8a:	0852      	lsrs	r2, r2, #1
  MODIFY_REG(hi2c->Instance->CR2, \
 8002b8c:	432a      	orrs	r2, r5
 8002b8e:	6042      	str	r2, [r0, #4]
             ((I2C_CR2_SADD | I2C_CR2_NBYTES | I2C_CR2_RELOAD | I2C_CR2_AUTOEND | \
               (I2C_CR2_RD_WRN & (uint32_t)(Request >> (31U - I2C_CR2_RD_WRN_Pos))) | \
               I2C_CR2_START | I2C_CR2_STOP)), tmp);
}
 8002b90:	bd30      	pop	{r4, r5, pc}
 8002b92:	46c0      	nop			@ (mov r8, r8)
 8002b94:	03ff63ff 	.word	0x03ff63ff

08002b98 <I2C_Enable_IRQ>:
  *                the configuration information for the specified I2C.
  * @param  InterruptRequest Value of @ref I2C_Interrupt_configuration_definition.
  * @retval None
  */
static void I2C_Enable_IRQ(I2C_HandleTypeDef *hi2c, uint16_t InterruptRequest)
{
 8002b98:	b510      	push	{r4, lr}
  uint32_t tmpisr = 0U;

  if ((hi2c->XferISR != I2C_Master_ISR_DMA) && \
 8002b9a:	6b42      	ldr	r2, [r0, #52]	@ 0x34
 8002b9c:	4c1b      	ldr	r4, [pc, #108]	@ (8002c0c <I2C_Enable_IRQ+0x74>)
      (hi2c->XferISR != I2C_Slave_ISR_DMA) && \
      (hi2c->XferISR != I2C_Mem_ISR_DMA))
  {
    if ((InterruptRequest & I2C_XFER_LISTEN_IT) == I2C_XFER_LISTEN_IT)
 8002b9e:	b20b      	sxth	r3, r1
  if ((hi2c->XferISR != I2C_Master_ISR_DMA) && \
 8002ba0:	42a2      	cmp	r2, r4
 8002ba2:	d01e      	beq.n	8002be2 <I2C_Enable_IRQ+0x4a>
 8002ba4:	4c1a      	ldr	r4, [pc, #104]	@ (8002c10 <I2C_Enable_IRQ+0x78>)
 8002ba6:	42a2      	cmp	r2, r4
 8002ba8:	d01b      	beq.n	8002be2 <I2C_Enable_IRQ+0x4a>
      (hi2c->XferISR != I2C_Slave_ISR_DMA) && \
 8002baa:	4c1a      	ldr	r4, [pc, #104]	@ (8002c14 <I2C_Enable_IRQ+0x7c>)
 8002bac:	42a2      	cmp	r2, r4
 8002bae:	d018      	beq.n	8002be2 <I2C_Enable_IRQ+0x4a>
    {
      /* Enable ERR, STOP, NACK and ADDR interrupts */
      tmpisr |= I2C_IT_ADDRI | I2C_IT_STOPI | I2C_IT_NACKI | I2C_IT_ERRI;
 8002bb0:	22b8      	movs	r2, #184	@ 0xb8
    }

    if ((InterruptRequest & I2C_XFER_TX_IT) == I2C_XFER_TX_IT)
 8002bb2:	24f2      	movs	r4, #242	@ 0xf2
  uint32_t tmpisr = 0U;
 8002bb4:	17db      	asrs	r3, r3, #31
 8002bb6:	401a      	ands	r2, r3
    if ((InterruptRequest & I2C_XFER_TX_IT) == I2C_XFER_TX_IT)
 8002bb8:	07cb      	lsls	r3, r1, #31
 8002bba:	17db      	asrs	r3, r3, #31
 8002bbc:	4023      	ands	r3, r4
 8002bbe:	4313      	orrs	r3, r2
    {
      /* Enable ERR, TC, STOP, NACK and TXI interrupts */
      tmpisr |= I2C_IT_ERRI | I2C_IT_TCI | I2C_IT_STOPI | I2C_IT_NACKI | I2C_IT_TXI;
    }

    if ((InterruptRequest & I2C_XFER_RX_IT) == I2C_XFER_RX_IT)
 8002bc0:	078a      	lsls	r2, r1, #30
 8002bc2:	d501      	bpl.n	8002bc8 <I2C_Enable_IRQ+0x30>
    {
      /* Enable ERR, TC, STOP, NACK and RXI interrupts */
      tmpisr |= I2C_IT_ERRI | I2C_IT_TCI | I2C_IT_STOPI | I2C_IT_NACKI | I2C_IT_RXI;
 8002bc4:	22f4      	movs	r2, #244	@ 0xf4
 8002bc6:	4313      	orrs	r3, r2
    }

    if (InterruptRequest == I2C_XFER_ERROR_IT)
 8002bc8:	2910      	cmp	r1, #16
 8002bca:	d106      	bne.n	8002bda <I2C_Enable_IRQ+0x42>
    }

    if (InterruptRequest == I2C_XFER_ERROR_IT)
    {
      /* Enable ERR and NACK interrupts */
      tmpisr |= I2C_IT_ERRI | I2C_IT_NACKI;
 8002bcc:	2290      	movs	r2, #144	@ 0x90
    }

    if (InterruptRequest == I2C_XFER_CPLT_IT)
    {
      /* Enable STOP interrupts */
      tmpisr |= (I2C_IT_STOPI | I2C_IT_TCI);
 8002bce:	4313      	orrs	r3, r2
  }

  /* Enable interrupts only at the end */
  /* to avoid the risk of I2C interrupt handle execution before */
  /* all interrupts requested done */
  __HAL_I2C_ENABLE_IT(hi2c, tmpisr);
 8002bd0:	6801      	ldr	r1, [r0, #0]
 8002bd2:	680a      	ldr	r2, [r1, #0]
 8002bd4:	4313      	orrs	r3, r2
 8002bd6:	600b      	str	r3, [r1, #0]
}
 8002bd8:	bd10      	pop	{r4, pc}
    if (InterruptRequest == I2C_XFER_CPLT_IT)
 8002bda:	2920      	cmp	r1, #32
 8002bdc:	d1f8      	bne.n	8002bd0 <I2C_Enable_IRQ+0x38>
      tmpisr |= I2C_IT_TCI;
 8002bde:	430b      	orrs	r3, r1
 8002be0:	e7f6      	b.n	8002bd0 <I2C_Enable_IRQ+0x38>
      tmpisr |= I2C_IT_ADDRI | I2C_IT_STOPI | I2C_IT_NACKI | I2C_IT_ERRI;
 8002be2:	22b8      	movs	r2, #184	@ 0xb8
    if ((InterruptRequest & I2C_XFER_TX_IT) == I2C_XFER_TX_IT)
 8002be4:	24f2      	movs	r4, #242	@ 0xf2
  uint32_t tmpisr = 0U;
 8002be6:	17db      	asrs	r3, r3, #31
 8002be8:	401a      	ands	r2, r3
    if ((InterruptRequest & I2C_XFER_TX_IT) == I2C_XFER_TX_IT)
 8002bea:	07cb      	lsls	r3, r1, #31
 8002bec:	17db      	asrs	r3, r3, #31
 8002bee:	4023      	ands	r3, r4
 8002bf0:	4313      	orrs	r3, r2
    if ((InterruptRequest & I2C_XFER_RX_IT) == I2C_XFER_RX_IT)
 8002bf2:	078a      	lsls	r2, r1, #30
 8002bf4:	d501      	bpl.n	8002bfa <I2C_Enable_IRQ+0x62>
      tmpisr |= I2C_IT_ERRI | I2C_IT_TCI | I2C_IT_STOPI | I2C_IT_NACKI | I2C_IT_RXI;
 8002bf6:	22f4      	movs	r2, #244	@ 0xf4
 8002bf8:	4313      	orrs	r3, r2
    if (InterruptRequest == I2C_XFER_ERROR_IT)
 8002bfa:	2910      	cmp	r1, #16
 8002bfc:	d0e6      	beq.n	8002bcc <I2C_Enable_IRQ+0x34>
    if (InterruptRequest == I2C_XFER_CPLT_IT)
 8002bfe:	2920      	cmp	r1, #32
 8002c00:	d101      	bne.n	8002c06 <I2C_Enable_IRQ+0x6e>
      tmpisr |= (I2C_IT_STOPI | I2C_IT_TCI);
 8002c02:	2260      	movs	r2, #96	@ 0x60
 8002c04:	e7e3      	b.n	8002bce <I2C_Enable_IRQ+0x36>
    if (InterruptRequest == I2C_XFER_RELOAD_IT)
 8002c06:	2940      	cmp	r1, #64	@ 0x40
 8002c08:	d0e9      	beq.n	8002bde <I2C_Enable_IRQ+0x46>
 8002c0a:	e7e1      	b.n	8002bd0 <I2C_Enable_IRQ+0x38>
 8002c0c:	08003725 	.word	0x08003725
 8002c10:	08003b69 	.word	0x08003b69
 8002c14:	080035c9 	.word	0x080035c9

08002c18 <I2C_Disable_IRQ>:
  * @param  InterruptRequest Value of @ref I2C_Interrupt_configuration_definition.
  * @retval None
  */
static void I2C_Disable_IRQ(I2C_HandleTypeDef *hi2c, uint16_t InterruptRequest)
{
  uint32_t tmpisr = 0U;
 8002c18:	2300      	movs	r3, #0
{
 8002c1a:	b510      	push	{r4, lr}

  if ((InterruptRequest & I2C_XFER_TX_IT) == I2C_XFER_TX_IT)
 8002c1c:	07ca      	lsls	r2, r1, #31
 8002c1e:	d508      	bpl.n	8002c32 <I2C_Disable_IRQ+0x1a>
  {
    /* Disable TC and TXI interrupts */
    tmpisr |= I2C_IT_TCI | I2C_IT_TXI;

    if (((uint32_t)hi2c->State & (uint32_t)HAL_I2C_STATE_LISTEN) != (uint32_t)HAL_I2C_STATE_LISTEN)
 8002c20:	0003      	movs	r3, r0
 8002c22:	3341      	adds	r3, #65	@ 0x41
 8002c24:	781a      	ldrb	r2, [r3, #0]
 8002c26:	2328      	movs	r3, #40	@ 0x28
 8002c28:	401a      	ands	r2, r3
    {
      /* Disable NACK and STOP interrupts */
      tmpisr |= I2C_IT_STOPI | I2C_IT_NACKI | I2C_IT_ERRI;
 8002c2a:	33ca      	adds	r3, #202	@ 0xca
    if (((uint32_t)hi2c->State & (uint32_t)HAL_I2C_STATE_LISTEN) != (uint32_t)HAL_I2C_STATE_LISTEN)
 8002c2c:	2a28      	cmp	r2, #40	@ 0x28
 8002c2e:	d100      	bne.n	8002c32 <I2C_Disable_IRQ+0x1a>
    tmpisr |= I2C_IT_TCI | I2C_IT_TXI;
 8002c30:	3bb0      	subs	r3, #176	@ 0xb0
    }
  }

  if ((InterruptRequest & I2C_XFER_RX_IT) == I2C_XFER_RX_IT)
 8002c32:	078a      	lsls	r2, r1, #30
 8002c34:	d508      	bpl.n	8002c48 <I2C_Disable_IRQ+0x30>
  {
    /* Disable TC and RXI interrupts */
    tmpisr |= I2C_IT_TCI | I2C_IT_RXI;

    if (((uint32_t)hi2c->State & (uint32_t)HAL_I2C_STATE_LISTEN) != (uint32_t)HAL_I2C_STATE_LISTEN)
 8002c36:	0002      	movs	r2, r0
 8002c38:	2428      	movs	r4, #40	@ 0x28
 8002c3a:	3241      	adds	r2, #65	@ 0x41
 8002c3c:	7812      	ldrb	r2, [r2, #0]
 8002c3e:	4022      	ands	r2, r4
 8002c40:	42a2      	cmp	r2, r4
 8002c42:	d10b      	bne.n	8002c5c <I2C_Disable_IRQ+0x44>
    tmpisr |= I2C_IT_TCI | I2C_IT_RXI;
 8002c44:	2244      	movs	r2, #68	@ 0x44
    {
      /* Disable NACK and STOP interrupts */
      tmpisr |= I2C_IT_STOPI | I2C_IT_NACKI | I2C_IT_ERRI;
 8002c46:	4313      	orrs	r3, r2
    }
  }

  if ((InterruptRequest & I2C_XFER_LISTEN_IT) == I2C_XFER_LISTEN_IT)
 8002c48:	b209      	sxth	r1, r1
 8002c4a:	2900      	cmp	r1, #0
 8002c4c:	da01      	bge.n	8002c52 <I2C_Disable_IRQ+0x3a>
  {
    /* Disable ADDR, NACK and STOP interrupts */
    tmpisr |= I2C_IT_ADDRI | I2C_IT_STOPI | I2C_IT_NACKI | I2C_IT_ERRI;
 8002c4e:	22b8      	movs	r2, #184	@ 0xb8
 8002c50:	4313      	orrs	r3, r2
  }

  /* Disable interrupts only at the end */
  /* to avoid a breaking situation like at "t" time */
  /* all disable interrupts request are not done */
  __HAL_I2C_DISABLE_IT(hi2c, tmpisr);
 8002c52:	6801      	ldr	r1, [r0, #0]
 8002c54:	680a      	ldr	r2, [r1, #0]
 8002c56:	439a      	bics	r2, r3
 8002c58:	600a      	str	r2, [r1, #0]
}
 8002c5a:	bd10      	pop	{r4, pc}
      tmpisr |= I2C_IT_STOPI | I2C_IT_NACKI | I2C_IT_ERRI;
 8002c5c:	22f4      	movs	r2, #244	@ 0xf4
 8002c5e:	e7f2      	b.n	8002c46 <I2C_Disable_IRQ+0x2e>

08002c60 <I2C_IsErrorOccurred>:
{
 8002c60:	b5f7      	push	{r0, r1, r2, r4, r5, r6, r7, lr}
 8002c62:	0015      	movs	r5, r2
  uint32_t itflag   = hi2c->Instance->ISR;
 8002c64:	6802      	ldr	r2, [r0, #0]
{
 8002c66:	000e      	movs	r6, r1
  uint32_t itflag   = hi2c->Instance->ISR;
 8002c68:	6991      	ldr	r1, [r2, #24]
  if (HAL_IS_BIT_SET(itflag, I2C_FLAG_AF))
 8002c6a:	2310      	movs	r3, #16
 8002c6c:	000f      	movs	r7, r1
{
 8002c6e:	0004      	movs	r4, r0
  if (HAL_IS_BIT_SET(itflag, I2C_FLAG_AF))
 8002c70:	401f      	ands	r7, r3
  HAL_StatusTypeDef status = HAL_OK;
 8002c72:	2000      	movs	r0, #0
  if (HAL_IS_BIT_SET(itflag, I2C_FLAG_AF))
 8002c74:	4219      	tst	r1, r3
 8002c76:	d00d      	beq.n	8002c94 <I2C_IsErrorOccurred+0x34>
  HAL_StatusTypeDef status = HAL_OK;
 8002c78:	0007      	movs	r7, r0
    __HAL_I2C_CLEAR_FLAG(hi2c, I2C_FLAG_AF);
 8002c7a:	61d3      	str	r3, [r2, #28]
  uint32_t error_code = 0;
 8002c7c:	9001      	str	r0, [sp, #4]
    while ((__HAL_I2C_GET_FLAG(hi2c, I2C_FLAG_STOPF) == RESET) && (status == HAL_OK))
 8002c7e:	6823      	ldr	r3, [r4, #0]
 8002c80:	2120      	movs	r1, #32
 8002c82:	699a      	ldr	r2, [r3, #24]
 8002c84:	420a      	tst	r2, r1
 8002c86:	d15f      	bne.n	8002d48 <I2C_IsErrorOccurred+0xe8>
 8002c88:	2f00      	cmp	r7, #0
 8002c8a:	d031      	beq.n	8002cf0 <I2C_IsErrorOccurred+0x90>
    error_code |= HAL_I2C_ERROR_AF;
 8002c8c:	2704      	movs	r7, #4
    status = HAL_ERROR;
 8002c8e:	2001      	movs	r0, #1
    error_code |= HAL_I2C_ERROR_AF;
 8002c90:	9b01      	ldr	r3, [sp, #4]
 8002c92:	431f      	orrs	r7, r3
  if (HAL_IS_BIT_SET(itflag, I2C_FLAG_BERR))
 8002c94:	2280      	movs	r2, #128	@ 0x80
  itflag = hi2c->Instance->ISR;
 8002c96:	6825      	ldr	r5, [r4, #0]
  if (HAL_IS_BIT_SET(itflag, I2C_FLAG_BERR))
 8002c98:	0052      	lsls	r2, r2, #1
  itflag = hi2c->Instance->ISR;
 8002c9a:	69ab      	ldr	r3, [r5, #24]
  if (HAL_IS_BIT_SET(itflag, I2C_FLAG_BERR))
 8002c9c:	4213      	tst	r3, r2
 8002c9e:	d002      	beq.n	8002ca6 <I2C_IsErrorOccurred+0x46>
    error_code |= HAL_I2C_ERROR_BERR;
 8002ca0:	2001      	movs	r0, #1
    __HAL_I2C_CLEAR_FLAG(hi2c, I2C_FLAG_BERR);
 8002ca2:	61ea      	str	r2, [r5, #28]
    error_code |= HAL_I2C_ERROR_BERR;
 8002ca4:	4307      	orrs	r7, r0
  if (HAL_IS_BIT_SET(itflag, I2C_FLAG_OVR))
 8002ca6:	2280      	movs	r2, #128	@ 0x80
 8002ca8:	00d2      	lsls	r2, r2, #3
 8002caa:	4213      	tst	r3, r2
 8002cac:	d003      	beq.n	8002cb6 <I2C_IsErrorOccurred+0x56>
    error_code |= HAL_I2C_ERROR_OVR;
 8002cae:	2108      	movs	r1, #8
    status = HAL_ERROR;
 8002cb0:	2001      	movs	r0, #1
    error_code |= HAL_I2C_ERROR_OVR;
 8002cb2:	430f      	orrs	r7, r1
    __HAL_I2C_CLEAR_FLAG(hi2c, I2C_FLAG_OVR);
 8002cb4:	61ea      	str	r2, [r5, #28]
  if (HAL_IS_BIT_SET(itflag, I2C_FLAG_ARLO))
 8002cb6:	2280      	movs	r2, #128	@ 0x80
 8002cb8:	0092      	lsls	r2, r2, #2
 8002cba:	4213      	tst	r3, r2
 8002cbc:	d049      	beq.n	8002d52 <I2C_IsErrorOccurred+0xf2>
    error_code |= HAL_I2C_ERROR_ARLO;
 8002cbe:	2302      	movs	r3, #2
    __HAL_I2C_CLEAR_FLAG(hi2c, I2C_FLAG_ARLO);
 8002cc0:	61ea      	str	r2, [r5, #28]
    error_code |= HAL_I2C_ERROR_ARLO;
 8002cc2:	431f      	orrs	r7, r3
    I2C_Flush_TXDR(hi2c);
 8002cc4:	0020      	movs	r0, r4
 8002cc6:	f7ff ff43 	bl	8002b50 <I2C_Flush_TXDR>
    I2C_RESET_CR2(hi2c);
 8002cca:	686b      	ldr	r3, [r5, #4]
 8002ccc:	4a22      	ldr	r2, [pc, #136]	@ (8002d58 <I2C_IsErrorOccurred+0xf8>)
    __HAL_UNLOCK(hi2c);
 8002cce:	2001      	movs	r0, #1
    I2C_RESET_CR2(hi2c);
 8002cd0:	4013      	ands	r3, r2
 8002cd2:	606b      	str	r3, [r5, #4]
    hi2c->ErrorCode |= error_code;
 8002cd4:	6c63      	ldr	r3, [r4, #68]	@ 0x44
    hi2c->State = HAL_I2C_STATE_READY;
 8002cd6:	2220      	movs	r2, #32
    hi2c->ErrorCode |= error_code;
 8002cd8:	433b      	orrs	r3, r7
 8002cda:	6463      	str	r3, [r4, #68]	@ 0x44
    hi2c->State = HAL_I2C_STATE_READY;
 8002cdc:	0023      	movs	r3, r4
 8002cde:	3341      	adds	r3, #65	@ 0x41
 8002ce0:	701a      	strb	r2, [r3, #0]
    hi2c->Mode = HAL_I2C_MODE_NONE;
 8002ce2:	0022      	movs	r2, r4
 8002ce4:	2300      	movs	r3, #0
 8002ce6:	3242      	adds	r2, #66	@ 0x42
    __HAL_UNLOCK(hi2c);
 8002ce8:	3440      	adds	r4, #64	@ 0x40
    hi2c->Mode = HAL_I2C_MODE_NONE;
 8002cea:	7013      	strb	r3, [r2, #0]
    __HAL_UNLOCK(hi2c);
 8002cec:	7023      	strb	r3, [r4, #0]
 8002cee:	e032      	b.n	8002d56 <I2C_IsErrorOccurred+0xf6>
      if (Timeout != HAL_MAX_DELAY)
 8002cf0:	1c72      	adds	r2, r6, #1
 8002cf2:	d0c5      	beq.n	8002c80 <I2C_IsErrorOccurred+0x20>
        if (((HAL_GetTick() - tickstart) > Timeout) || (Timeout == 0U))
 8002cf4:	f7ff fa24 	bl	8002140 <HAL_GetTick>
 8002cf8:	1b40      	subs	r0, r0, r5
 8002cfa:	42b0      	cmp	r0, r6
 8002cfc:	d801      	bhi.n	8002d02 <I2C_IsErrorOccurred+0xa2>
 8002cfe:	2e00      	cmp	r6, #0
 8002d00:	d1bd      	bne.n	8002c7e <I2C_IsErrorOccurred+0x1e>
          tmp2 = hi2c->Mode;
 8002d02:	0022      	movs	r2, r4
          tmp1 = (uint32_t)(hi2c->Instance->CR2 & I2C_CR2_STOP);
 8002d04:	6823      	ldr	r3, [r4, #0]
          tmp2 = hi2c->Mode;
 8002d06:	3242      	adds	r2, #66	@ 0x42
          tmp1 = (uint32_t)(hi2c->Instance->CR2 & I2C_CR2_STOP);
 8002d08:	6858      	ldr	r0, [r3, #4]
          tmp2 = hi2c->Mode;
 8002d0a:	7811      	ldrb	r1, [r2, #0]
          if ((__HAL_I2C_GET_FLAG(hi2c, I2C_FLAG_BUSY) != RESET) && \
 8002d0c:	699a      	ldr	r2, [r3, #24]
          tmp2 = hi2c->Mode;
 8002d0e:	b2c9      	uxtb	r1, r1
          if ((__HAL_I2C_GET_FLAG(hi2c, I2C_FLAG_BUSY) != RESET) && \
 8002d10:	0412      	lsls	r2, r2, #16
 8002d12:	d50b      	bpl.n	8002d2c <I2C_IsErrorOccurred+0xcc>
          tmp1 = (uint32_t)(hi2c->Instance->CR2 & I2C_CR2_STOP);
 8002d14:	2280      	movs	r2, #128	@ 0x80
 8002d16:	01d2      	lsls	r2, r2, #7
          if ((__HAL_I2C_GET_FLAG(hi2c, I2C_FLAG_BUSY) != RESET) && \
 8002d18:	4210      	tst	r0, r2
 8002d1a:	d107      	bne.n	8002d2c <I2C_IsErrorOccurred+0xcc>
              (tmp1 != I2C_CR2_STOP) && \
 8002d1c:	2920      	cmp	r1, #32
 8002d1e:	d005      	beq.n	8002d2c <I2C_IsErrorOccurred+0xcc>
            hi2c->Instance->CR2 |= I2C_CR2_STOP;
 8002d20:	6859      	ldr	r1, [r3, #4]
 8002d22:	430a      	orrs	r2, r1
 8002d24:	605a      	str	r2, [r3, #4]
            tickstart = HAL_GetTick();
 8002d26:	f7ff fa0b 	bl	8002140 <HAL_GetTick>
 8002d2a:	0005      	movs	r5, r0
          while (__HAL_I2C_GET_FLAG(hi2c, I2C_FLAG_STOPF) == RESET)
 8002d2c:	2220      	movs	r2, #32
 8002d2e:	6823      	ldr	r3, [r4, #0]
 8002d30:	699b      	ldr	r3, [r3, #24]
 8002d32:	4213      	tst	r3, r2
 8002d34:	d1a3      	bne.n	8002c7e <I2C_IsErrorOccurred+0x1e>
            if ((HAL_GetTick() - tickstart) > I2C_TIMEOUT_STOPF)
 8002d36:	f7ff fa03 	bl	8002140 <HAL_GetTick>
 8002d3a:	1b40      	subs	r0, r0, r5
 8002d3c:	2819      	cmp	r0, #25
 8002d3e:	d9f5      	bls.n	8002d2c <I2C_IsErrorOccurred+0xcc>
              error_code |= HAL_I2C_ERROR_TIMEOUT;
 8002d40:	2320      	movs	r3, #32
              status = HAL_ERROR;
 8002d42:	2701      	movs	r7, #1
              error_code |= HAL_I2C_ERROR_TIMEOUT;
 8002d44:	9301      	str	r3, [sp, #4]
 8002d46:	e79a      	b.n	8002c7e <I2C_IsErrorOccurred+0x1e>
    if (status == HAL_OK)
 8002d48:	2f00      	cmp	r7, #0
 8002d4a:	d19f      	bne.n	8002c8c <I2C_IsErrorOccurred+0x2c>
      __HAL_I2C_CLEAR_FLAG(hi2c, I2C_FLAG_STOPF);
 8002d4c:	2220      	movs	r2, #32
 8002d4e:	61da      	str	r2, [r3, #28]
 8002d50:	e79c      	b.n	8002c8c <I2C_IsErrorOccurred+0x2c>
  if (status != HAL_OK)
 8002d52:	2800      	cmp	r0, #0
 8002d54:	d1b6      	bne.n	8002cc4 <I2C_IsErrorOccurred+0x64>
}
 8002d56:	bdfe      	pop	{r1, r2, r3, r4, r5, r6, r7, pc}
 8002d58:	fe00e800 	.word	0xfe00e800

08002d5c <I2C_WaitOnTXISFlagUntilTimeout>:
{
 8002d5c:	b5f8      	push	{r3, r4, r5, r6, r7, lr}
 8002d5e:	0004      	movs	r4, r0
 8002d60:	000d      	movs	r5, r1
 8002d62:	0016      	movs	r6, r2
  while (__HAL_I2C_GET_FLAG(hi2c, I2C_FLAG_TXIS) == RESET)
 8002d64:	2702      	movs	r7, #2
 8002d66:	6823      	ldr	r3, [r4, #0]
 8002d68:	699b      	ldr	r3, [r3, #24]
 8002d6a:	423b      	tst	r3, r7
 8002d6c:	d001      	beq.n	8002d72 <I2C_WaitOnTXISFlagUntilTimeout+0x16>
  return HAL_OK;
 8002d6e:	2000      	movs	r0, #0
 8002d70:	e021      	b.n	8002db6 <I2C_WaitOnTXISFlagUntilTimeout+0x5a>
    if (I2C_IsErrorOccurred(hi2c, Timeout, Tickstart) != HAL_OK)
 8002d72:	0032      	movs	r2, r6
 8002d74:	0029      	movs	r1, r5
 8002d76:	0020      	movs	r0, r4
 8002d78:	f7ff ff72 	bl	8002c60 <I2C_IsErrorOccurred>
 8002d7c:	2800      	cmp	r0, #0
 8002d7e:	d119      	bne.n	8002db4 <I2C_WaitOnTXISFlagUntilTimeout+0x58>
    if (Timeout != HAL_MAX_DELAY)
 8002d80:	1c6b      	adds	r3, r5, #1
 8002d82:	d0f0      	beq.n	8002d66 <I2C_WaitOnTXISFlagUntilTimeout+0xa>
      if (((HAL_GetTick() - Tickstart) > Timeout) || (Timeout == 0U))
 8002d84:	f7ff f9dc 	bl	8002140 <HAL_GetTick>
 8002d88:	1b80      	subs	r0, r0, r6
 8002d8a:	42a8      	cmp	r0, r5
 8002d8c:	d801      	bhi.n	8002d92 <I2C_WaitOnTXISFlagUntilTimeout+0x36>
 8002d8e:	2d00      	cmp	r5, #0
 8002d90:	d1e9      	bne.n	8002d66 <I2C_WaitOnTXISFlagUntilTimeout+0xa>
        if (__HAL_I2C_GET_FLAG(hi2c, I2C_FLAG_TXIS) == RESET)
 8002d92:	6823      	ldr	r3, [r4, #0]
 8002d94:	6999      	ldr	r1, [r3, #24]
 8002d96:	2302      	movs	r3, #2
 8002d98:	000a      	movs	r2, r1
 8002d9a:	401a      	ands	r2, r3
 8002d9c:	4219      	tst	r1, r3
 8002d9e:	d1e2      	bne.n	8002d66 <I2C_WaitOnTXISFlagUntilTimeout+0xa>
          hi2c->ErrorCode |= HAL_I2C_ERROR_TIMEOUT;
 8002da0:	2120      	movs	r1, #32
 8002da2:	6c63      	ldr	r3, [r4, #68]	@ 0x44
 8002da4:	430b      	orrs	r3, r1
 8002da6:	6463      	str	r3, [r4, #68]	@ 0x44
          hi2c->State = HAL_I2C_STATE_READY;
 8002da8:	0023      	movs	r3, r4
          __HAL_UNLOCK(hi2c);
 8002daa:	3440      	adds	r4, #64	@ 0x40
          hi2c->State = HAL_I2C_STATE_READY;
 8002dac:	3341      	adds	r3, #65	@ 0x41
 8002dae:	7019      	strb	r1, [r3, #0]
          hi2c->Mode = HAL_I2C_MODE_NONE;
 8002db0:	705a      	strb	r2, [r3, #1]
          __HAL_UNLOCK(hi2c);
 8002db2:	7022      	strb	r2, [r4, #0]
      return HAL_ERROR;
 8002db4:	2001      	movs	r0, #1
}
 8002db6:	bdf8      	pop	{r3, r4, r5, r6, r7, pc}

08002db8 <I2C_WaitOnFlagUntilTimeout>:
{
 8002db8:	b5f8      	push	{r3, r4, r5, r6, r7, lr}
 8002dba:	0004      	movs	r4, r0
 8002dbc:	000d      	movs	r5, r1
 8002dbe:	0017      	movs	r7, r2
 8002dc0:	001e      	movs	r6, r3
  while (__HAL_I2C_GET_FLAG(hi2c, Flag) == Status)
 8002dc2:	6823      	ldr	r3, [r4, #0]
 8002dc4:	699b      	ldr	r3, [r3, #24]
 8002dc6:	402b      	ands	r3, r5
 8002dc8:	1b5b      	subs	r3, r3, r5
 8002dca:	425a      	negs	r2, r3
 8002dcc:	4153      	adcs	r3, r2
 8002dce:	42bb      	cmp	r3, r7
 8002dd0:	d001      	beq.n	8002dd6 <I2C_WaitOnFlagUntilTimeout+0x1e>
  return HAL_OK;
 8002dd2:	2000      	movs	r0, #0
 8002dd4:	e026      	b.n	8002e24 <I2C_WaitOnFlagUntilTimeout+0x6c>
    if (I2C_IsErrorOccurred(hi2c, Timeout, Tickstart) != HAL_OK)
 8002dd6:	0031      	movs	r1, r6
 8002dd8:	0020      	movs	r0, r4
 8002dda:	9a06      	ldr	r2, [sp, #24]
 8002ddc:	f7ff ff40 	bl	8002c60 <I2C_IsErrorOccurred>
 8002de0:	2800      	cmp	r0, #0
 8002de2:	d11e      	bne.n	8002e22 <I2C_WaitOnFlagUntilTimeout+0x6a>
    if (Timeout != HAL_MAX_DELAY)
 8002de4:	1c73      	adds	r3, r6, #1
 8002de6:	d0ec      	beq.n	8002dc2 <I2C_WaitOnFlagUntilTimeout+0xa>
      if (((HAL_GetTick() - Tickstart) > Timeout) || (Timeout == 0U))
 8002de8:	f7ff f9aa 	bl	8002140 <HAL_GetTick>
 8002dec:	9b06      	ldr	r3, [sp, #24]
 8002dee:	1ac0      	subs	r0, r0, r3
 8002df0:	42b0      	cmp	r0, r6
 8002df2:	d801      	bhi.n	8002df8 <I2C_WaitOnFlagUntilTimeout+0x40>
 8002df4:	2e00      	cmp	r6, #0
 8002df6:	d1e4      	bne.n	8002dc2 <I2C_WaitOnFlagUntilTimeout+0xa>
        if (__HAL_I2C_GET_FLAG(hi2c, Flag) == Status)
 8002df8:	6823      	ldr	r3, [r4, #0]
 8002dfa:	699b      	ldr	r3, [r3, #24]
 8002dfc:	402b      	ands	r3, r5
 8002dfe:	1b5b      	subs	r3, r3, r5
 8002e00:	425a      	negs	r2, r3
 8002e02:	4153      	adcs	r3, r2
 8002e04:	42bb      	cmp	r3, r7
 8002e06:	d1dc      	bne.n	8002dc2 <I2C_WaitOnFlagUntilTimeout+0xa>
          hi2c->ErrorCode |= HAL_I2C_ERROR_TIMEOUT;
 8002e08:	2220      	movs	r2, #32
 8002e0a:	6c63      	ldr	r3, [r4, #68]	@ 0x44
 8002e0c:	4313      	orrs	r3, r2
 8002e0e:	6463      	str	r3, [r4, #68]	@ 0x44
          hi2c->State = HAL_I2C_STATE_READY;
 8002e10:	0023      	movs	r3, r4
 8002e12:	3341      	adds	r3, #65	@ 0x41
 8002e14:	701a      	strb	r2, [r3, #0]
          hi2c->Mode = HAL_I2C_MODE_NONE;
 8002e16:	0022      	movs	r2, r4
 8002e18:	2300      	movs	r3, #0
 8002e1a:	3242      	adds	r2, #66	@ 0x42
          __HAL_UNLOCK(hi2c);
 8002e1c:	3440      	adds	r4, #64	@ 0x40
          hi2c->Mode = HAL_I2C_MODE_NONE;
 8002e1e:	7013      	strb	r3, [r2, #0]
          __HAL_UNLOCK(hi2c);
 8002e20:	7023      	strb	r3, [r4, #0]
      return HAL_ERROR;
 8002e22:	2001      	movs	r0, #1
}
 8002e24:	bdf8      	pop	{r3, r4, r5, r6, r7, pc}

08002e26 <I2C_WaitOnSTOPFlagUntilTimeout>:
{
 8002e26:	b5f8      	push	{r3, r4, r5, r6, r7, lr}
 8002e28:	0004      	movs	r4, r0
 8002e2a:	000e      	movs	r6, r1
 8002e2c:	0017      	movs	r7, r2
  while (__HAL_I2C_GET_FLAG(hi2c, I2C_FLAG_STOPF) == RESET)
 8002e2e:	2520      	movs	r5, #32
 8002e30:	6823      	ldr	r3, [r4, #0]
 8002e32:	699b      	ldr	r3, [r3, #24]
 8002e34:	422b      	tst	r3, r5
 8002e36:	d001      	beq.n	8002e3c <I2C_WaitOnSTOPFlagUntilTimeout+0x16>
  return HAL_OK;
 8002e38:	2000      	movs	r0, #0
 8002e3a:	e01d      	b.n	8002e78 <I2C_WaitOnSTOPFlagUntilTimeout+0x52>
    if (I2C_IsErrorOccurred(hi2c, Timeout, Tickstart) != HAL_OK)
 8002e3c:	003a      	movs	r2, r7
 8002e3e:	0031      	movs	r1, r6
 8002e40:	0020      	movs	r0, r4
 8002e42:	f7ff ff0d 	bl	8002c60 <I2C_IsErrorOccurred>
 8002e46:	2800      	cmp	r0, #0
 8002e48:	d115      	bne.n	8002e76 <I2C_WaitOnSTOPFlagUntilTimeout+0x50>
    if (((HAL_GetTick() - Tickstart) > Timeout) || (Timeout == 0U))
 8002e4a:	f7ff f979 	bl	8002140 <HAL_GetTick>
 8002e4e:	1bc0      	subs	r0, r0, r7
 8002e50:	42b0      	cmp	r0, r6
 8002e52:	d801      	bhi.n	8002e58 <I2C_WaitOnSTOPFlagUntilTimeout+0x32>
 8002e54:	2e00      	cmp	r6, #0
 8002e56:	d1eb      	bne.n	8002e30 <I2C_WaitOnSTOPFlagUntilTimeout+0xa>
      if (__HAL_I2C_GET_FLAG(hi2c, I2C_FLAG_STOPF) == RESET)
 8002e58:	6823      	ldr	r3, [r4, #0]
 8002e5a:	699b      	ldr	r3, [r3, #24]
 8002e5c:	001a      	movs	r2, r3
 8002e5e:	402a      	ands	r2, r5
 8002e60:	422b      	tst	r3, r5
 8002e62:	d1e5      	bne.n	8002e30 <I2C_WaitOnSTOPFlagUntilTimeout+0xa>
        hi2c->ErrorCode |= HAL_I2C_ERROR_TIMEOUT;
 8002e64:	6c63      	ldr	r3, [r4, #68]	@ 0x44
 8002e66:	432b      	orrs	r3, r5
 8002e68:	6463      	str	r3, [r4, #68]	@ 0x44
        hi2c->State = HAL_I2C_STATE_READY;
 8002e6a:	0023      	movs	r3, r4
        __HAL_UNLOCK(hi2c);
 8002e6c:	3440      	adds	r4, #64	@ 0x40
        hi2c->State = HAL_I2C_STATE_READY;
 8002e6e:	3341      	adds	r3, #65	@ 0x41
 8002e70:	701d      	strb	r5, [r3, #0]
        hi2c->Mode = HAL_I2C_MODE_NONE;
 8002e72:	705a      	strb	r2, [r3, #1]
        __HAL_UNLOCK(hi2c);
 8002e74:	7022      	strb	r2, [r4, #0]
      return HAL_ERROR;
 8002e76:	2001      	movs	r0, #1
}
 8002e78:	bdf8      	pop	{r3, r4, r5, r6, r7, pc}
	...

08002e7c <HAL_I2C_Init>:
{
 8002e7c:	b570      	push	{r4, r5, r6, lr}
 8002e7e:	0004      	movs	r4, r0
    return HAL_ERROR;
 8002e80:	2001      	movs	r0, #1
  if (hi2c == NULL)
 8002e82:	2c00      	cmp	r4, #0
 8002e84:	d04e      	beq.n	8002f24 <HAL_I2C_Init+0xa8>
  if (hi2c->State == HAL_I2C_STATE_RESET)
 8002e86:	0025      	movs	r5, r4
 8002e88:	3541      	adds	r5, #65	@ 0x41
 8002e8a:	782b      	ldrb	r3, [r5, #0]
 8002e8c:	b2da      	uxtb	r2, r3
 8002e8e:	2b00      	cmp	r3, #0
 8002e90:	d105      	bne.n	8002e9e <HAL_I2C_Init+0x22>
    hi2c->Lock = HAL_UNLOCKED;
 8002e92:	0023      	movs	r3, r4
 8002e94:	3340      	adds	r3, #64	@ 0x40
    HAL_I2C_MspInit(hi2c);
 8002e96:	0020      	movs	r0, r4
    hi2c->Lock = HAL_UNLOCKED;
 8002e98:	701a      	strb	r2, [r3, #0]
    HAL_I2C_MspInit(hi2c);
 8002e9a:	f7fe ffe3 	bl	8001e64 <HAL_I2C_MspInit>
  hi2c->State = HAL_I2C_STATE_BUSY;
 8002e9e:	2324      	movs	r3, #36	@ 0x24
  __HAL_I2C_DISABLE(hi2c);
 8002ea0:	2101      	movs	r1, #1
  hi2c->State = HAL_I2C_STATE_BUSY;
 8002ea2:	702b      	strb	r3, [r5, #0]
  __HAL_I2C_DISABLE(hi2c);
 8002ea4:	6823      	ldr	r3, [r4, #0]
  if (hi2c->Init.AddressingMode == I2C_ADDRESSINGMODE_7BIT)
 8002ea6:	68e0      	ldr	r0, [r4, #12]
  __HAL_I2C_DISABLE(hi2c);
 8002ea8:	681a      	ldr	r2, [r3, #0]
    hi2c->Instance->OAR1 = (I2C_OAR1_OA1EN | hi2c->Init.OwnAddress1);
 8002eaa:	68a6      	ldr	r6, [r4, #8]
  __HAL_I2C_DISABLE(hi2c);
 8002eac:	438a      	bics	r2, r1
 8002eae:	601a      	str	r2, [r3, #0]
  hi2c->Instance->TIMINGR = hi2c->Init.Timing & TIMING_CLEAR_MASK;
 8002eb0:	491d      	ldr	r1, [pc, #116]	@ (8002f28 <HAL_I2C_Init+0xac>)
 8002eb2:	6862      	ldr	r2, [r4, #4]
 8002eb4:	400a      	ands	r2, r1
 8002eb6:	611a      	str	r2, [r3, #16]
  hi2c->Instance->OAR1 &= ~I2C_OAR1_OA1EN;
 8002eb8:	689a      	ldr	r2, [r3, #8]
 8002eba:	491c      	ldr	r1, [pc, #112]	@ (8002f2c <HAL_I2C_Init+0xb0>)
 8002ebc:	400a      	ands	r2, r1
 8002ebe:	609a      	str	r2, [r3, #8]
  if (hi2c->Init.AddressingMode == I2C_ADDRESSINGMODE_7BIT)
 8002ec0:	2801      	cmp	r0, #1
 8002ec2:	d107      	bne.n	8002ed4 <HAL_I2C_Init+0x58>
    hi2c->Instance->OAR1 = (I2C_OAR1_OA1EN | hi2c->Init.OwnAddress1);
 8002ec4:	2280      	movs	r2, #128	@ 0x80
 8002ec6:	0212      	lsls	r2, r2, #8
 8002ec8:	4332      	orrs	r2, r6
 8002eca:	609a      	str	r2, [r3, #8]
    CLEAR_BIT(hi2c->Instance->CR2, I2C_CR2_ADD10);
 8002ecc:	685a      	ldr	r2, [r3, #4]
 8002ece:	4818      	ldr	r0, [pc, #96]	@ (8002f30 <HAL_I2C_Init+0xb4>)
 8002ed0:	4002      	ands	r2, r0
 8002ed2:	e009      	b.n	8002ee8 <HAL_I2C_Init+0x6c>
    hi2c->Instance->OAR1 = (I2C_OAR1_OA1EN | I2C_OAR1_OA1MODE | hi2c->Init.OwnAddress1);
 8002ed4:	2284      	movs	r2, #132	@ 0x84
 8002ed6:	0212      	lsls	r2, r2, #8
 8002ed8:	4332      	orrs	r2, r6
 8002eda:	609a      	str	r2, [r3, #8]
  if (hi2c->Init.AddressingMode == I2C_ADDRESSINGMODE_10BIT)
 8002edc:	2802      	cmp	r0, #2
 8002ede:	d1f5      	bne.n	8002ecc <HAL_I2C_Init+0x50>
    SET_BIT(hi2c->Instance->CR2, I2C_CR2_ADD10);
 8002ee0:	2280      	movs	r2, #128	@ 0x80
 8002ee2:	6858      	ldr	r0, [r3, #4]
 8002ee4:	0112      	lsls	r2, r2, #4
 8002ee6:	4302      	orrs	r2, r0
    CLEAR_BIT(hi2c->Instance->CR2, I2C_CR2_ADD10);
 8002ee8:	605a      	str	r2, [r3, #4]
  hi2c->Instance->CR2 |= (I2C_CR2_AUTOEND | I2C_CR2_NACK);
 8002eea:	6858      	ldr	r0, [r3, #4]
 8002eec:	4a11      	ldr	r2, [pc, #68]	@ (8002f34 <HAL_I2C_Init+0xb8>)
 8002eee:	4302      	orrs	r2, r0
 8002ef0:	605a      	str	r2, [r3, #4]
  hi2c->Instance->OAR2 &= ~I2C_DUALADDRESS_ENABLE;
 8002ef2:	68da      	ldr	r2, [r3, #12]
  hi2c->ErrorCode = HAL_I2C_ERROR_NONE;
 8002ef4:	2000      	movs	r0, #0
  hi2c->Instance->OAR2 &= ~I2C_DUALADDRESS_ENABLE;
 8002ef6:	400a      	ands	r2, r1
 8002ef8:	60da      	str	r2, [r3, #12]
  hi2c->Instance->OAR2 = (hi2c->Init.DualAddressMode | hi2c->Init.OwnAddress2 | \
 8002efa:	6961      	ldr	r1, [r4, #20]
 8002efc:	6922      	ldr	r2, [r4, #16]
 8002efe:	430a      	orrs	r2, r1
                          (hi2c->Init.OwnAddress2Masks << 8));
 8002f00:	69a1      	ldr	r1, [r4, #24]
 8002f02:	0209      	lsls	r1, r1, #8
  hi2c->Instance->OAR2 = (hi2c->Init.DualAddressMode | hi2c->Init.OwnAddress2 | \
 8002f04:	430a      	orrs	r2, r1
 8002f06:	60da      	str	r2, [r3, #12]
  hi2c->Instance->CR1 = (hi2c->Init.GeneralCallMode | hi2c->Init.NoStretchMode);
 8002f08:	6a21      	ldr	r1, [r4, #32]
 8002f0a:	69e2      	ldr	r2, [r4, #28]
 8002f0c:	430a      	orrs	r2, r1
 8002f0e:	601a      	str	r2, [r3, #0]
  __HAL_I2C_ENABLE(hi2c);
 8002f10:	2201      	movs	r2, #1
 8002f12:	6819      	ldr	r1, [r3, #0]
 8002f14:	430a      	orrs	r2, r1
 8002f16:	601a      	str	r2, [r3, #0]
  hi2c->State = HAL_I2C_STATE_READY;
 8002f18:	2320      	movs	r3, #32
  hi2c->ErrorCode = HAL_I2C_ERROR_NONE;
 8002f1a:	6460      	str	r0, [r4, #68]	@ 0x44
  hi2c->State = HAL_I2C_STATE_READY;
 8002f1c:	702b      	strb	r3, [r5, #0]
  hi2c->PreviousState = I2C_STATE_NONE;
 8002f1e:	6320      	str	r0, [r4, #48]	@ 0x30
  hi2c->Mode = HAL_I2C_MODE_NONE;
 8002f20:	3442      	adds	r4, #66	@ 0x42
 8002f22:	7020      	strb	r0, [r4, #0]
}
 8002f24:	bd70      	pop	{r4, r5, r6, pc}
 8002f26:	46c0      	nop			@ (mov r8, r8)
 8002f28:	f0ffffff 	.word	0xf0ffffff
 8002f2c:	ffff7fff 	.word	0xffff7fff
 8002f30:	fffff7ff 	.word	0xfffff7ff
 8002f34:	02008000 	.word	0x02008000

08002f38 <HAL_I2C_Mem_Write>:
{
 8002f38:	b5f0      	push	{r4, r5, r6, r7, lr}
  if (hi2c->State == HAL_I2C_STATE_READY)
 8002f3a:	0007      	movs	r7, r0
{
 8002f3c:	b087      	sub	sp, #28
 8002f3e:	9303      	str	r3, [sp, #12]
 8002f40:	ab0c      	add	r3, sp, #48	@ 0x30
 8002f42:	9202      	str	r2, [sp, #8]
 8002f44:	cb04      	ldmia	r3!, {r2}
  if (hi2c->State == HAL_I2C_STATE_READY)
 8002f46:	3741      	adds	r7, #65	@ 0x41
{
 8002f48:	881b      	ldrh	r3, [r3, #0]
 8002f4a:	9204      	str	r2, [sp, #16]
 8002f4c:	9305      	str	r3, [sp, #20]
  if (hi2c->State == HAL_I2C_STATE_READY)
 8002f4e:	783b      	ldrb	r3, [r7, #0]
{
 8002f50:	0004      	movs	r4, r0
 8002f52:	000e      	movs	r6, r1
    __HAL_LOCK(hi2c);
 8002f54:	2002      	movs	r0, #2
  if (hi2c->State == HAL_I2C_STATE_READY)
 8002f56:	2b20      	cmp	r3, #32
 8002f58:	d108      	bne.n	8002f6c <HAL_I2C_Mem_Write+0x34>
    if ((pData == NULL) || (Size == 0U))
 8002f5a:	2a00      	cmp	r2, #0
 8002f5c:	d002      	beq.n	8002f64 <HAL_I2C_Mem_Write+0x2c>
 8002f5e:	9b05      	ldr	r3, [sp, #20]
 8002f60:	2b00      	cmp	r3, #0
 8002f62:	d105      	bne.n	8002f70 <HAL_I2C_Mem_Write+0x38>
      hi2c->ErrorCode = HAL_I2C_ERROR_INVALID_PARAM;
 8002f64:	2380      	movs	r3, #128	@ 0x80
 8002f66:	009b      	lsls	r3, r3, #2
 8002f68:	6463      	str	r3, [r4, #68]	@ 0x44
      return  HAL_ERROR;
 8002f6a:	2001      	movs	r0, #1
}
 8002f6c:	b007      	add	sp, #28
 8002f6e:	bdf0      	pop	{r4, r5, r6, r7, pc}
    __HAL_LOCK(hi2c);
 8002f70:	0023      	movs	r3, r4
 8002f72:	3340      	adds	r3, #64	@ 0x40
 8002f74:	781a      	ldrb	r2, [r3, #0]
 8002f76:	2002      	movs	r0, #2
 8002f78:	2a01      	cmp	r2, #1
 8002f7a:	d0f7      	beq.n	8002f6c <HAL_I2C_Mem_Write+0x34>
 8002f7c:	2201      	movs	r2, #1
 8002f7e:	701a      	strb	r2, [r3, #0]
    tickstart = HAL_GetTick();
 8002f80:	f7ff f8de 	bl	8002140 <HAL_GetTick>
    if (I2C_WaitOnFlagUntilTimeout(hi2c, I2C_FLAG_BUSY, SET, I2C_TIMEOUT_BUSY, tickstart) != HAL_OK)
 8002f84:	2180      	movs	r1, #128	@ 0x80
    tickstart = HAL_GetTick();
 8002f86:	0005      	movs	r5, r0
    if (I2C_WaitOnFlagUntilTimeout(hi2c, I2C_FLAG_BUSY, SET, I2C_TIMEOUT_BUSY, tickstart) != HAL_OK)
 8002f88:	9000      	str	r0, [sp, #0]
 8002f8a:	2319      	movs	r3, #25
 8002f8c:	2201      	movs	r2, #1
 8002f8e:	0020      	movs	r0, r4
 8002f90:	0209      	lsls	r1, r1, #8
 8002f92:	f7ff ff11 	bl	8002db8 <I2C_WaitOnFlagUntilTimeout>
 8002f96:	2800      	cmp	r0, #0
 8002f98:	d1e7      	bne.n	8002f6a <HAL_I2C_Mem_Write+0x32>
    hi2c->State     = HAL_I2C_STATE_BUSY_TX;
 8002f9a:	2321      	movs	r3, #33	@ 0x21
 8002f9c:	703b      	strb	r3, [r7, #0]
    hi2c->Mode      = HAL_I2C_MODE_MEM;
 8002f9e:	0027      	movs	r7, r4
 8002fa0:	331f      	adds	r3, #31
 8002fa2:	3742      	adds	r7, #66	@ 0x42
 8002fa4:	703b      	strb	r3, [r7, #0]
    hi2c->pBuffPtr  = pData;
 8002fa6:	9b04      	ldr	r3, [sp, #16]
    hi2c->ErrorCode = HAL_I2C_ERROR_NONE;
 8002fa8:	6460      	str	r0, [r4, #68]	@ 0x44
    hi2c->pBuffPtr  = pData;
 8002faa:	6263      	str	r3, [r4, #36]	@ 0x24
    hi2c->XferCount = Size;
 8002fac:	9b05      	ldr	r3, [sp, #20]
    hi2c->XferISR   = NULL;
 8002fae:	6360      	str	r0, [r4, #52]	@ 0x34
    hi2c->XferCount = Size;
 8002fb0:	8563      	strh	r3, [r4, #42]	@ 0x2a
  I2C_TransferConfig(hi2c, DevAddress, (uint8_t)MemAddSize, I2C_RELOAD_MODE, I2C_GENERATE_START_WRITE);
 8002fb2:	466b      	mov	r3, sp
 8002fb4:	7b1a      	ldrb	r2, [r3, #12]
 8002fb6:	4b4b      	ldr	r3, [pc, #300]	@ (80030e4 <HAL_I2C_Mem_Write+0x1ac>)
 8002fb8:	0031      	movs	r1, r6
 8002fba:	9300      	str	r3, [sp, #0]
 8002fbc:	2380      	movs	r3, #128	@ 0x80
 8002fbe:	0020      	movs	r0, r4
 8002fc0:	045b      	lsls	r3, r3, #17
 8002fc2:	f7ff fdd3 	bl	8002b6c <I2C_TransferConfig>
  if (I2C_WaitOnTXISFlagUntilTimeout(hi2c, Timeout, Tickstart) != HAL_OK)
 8002fc6:	002a      	movs	r2, r5
 8002fc8:	0020      	movs	r0, r4
 8002fca:	990e      	ldr	r1, [sp, #56]	@ 0x38
 8002fcc:	f7ff fec6 	bl	8002d5c <I2C_WaitOnTXISFlagUntilTimeout>
 8002fd0:	2800      	cmp	r0, #0
 8002fd2:	d129      	bne.n	8003028 <HAL_I2C_Mem_Write+0xf0>
  if (MemAddSize == I2C_MEMADD_SIZE_8BIT)
 8002fd4:	9a03      	ldr	r2, [sp, #12]
    hi2c->Instance->TXDR = I2C_MEM_ADD_LSB(MemAddress);
 8002fd6:	6823      	ldr	r3, [r4, #0]
  if (MemAddSize == I2C_MEMADD_SIZE_8BIT)
 8002fd8:	2a01      	cmp	r2, #1
 8002fda:	d116      	bne.n	800300a <HAL_I2C_Mem_Write+0xd2>
    hi2c->Instance->TXDR = I2C_MEM_ADD_LSB(MemAddress);
 8002fdc:	466a      	mov	r2, sp
 8002fde:	7a12      	ldrb	r2, [r2, #8]
 8002fe0:	629a      	str	r2, [r3, #40]	@ 0x28
  if (I2C_WaitOnFlagUntilTimeout(hi2c, I2C_FLAG_TCR, RESET, Timeout, Tickstart) != HAL_OK)
 8002fe2:	2200      	movs	r2, #0
 8002fe4:	2180      	movs	r1, #128	@ 0x80
 8002fe6:	0020      	movs	r0, r4
 8002fe8:	9b0e      	ldr	r3, [sp, #56]	@ 0x38
 8002fea:	9500      	str	r5, [sp, #0]
 8002fec:	f7ff fee4 	bl	8002db8 <I2C_WaitOnFlagUntilTimeout>
 8002ff0:	2800      	cmp	r0, #0
 8002ff2:	d119      	bne.n	8003028 <HAL_I2C_Mem_Write+0xf0>
    if (hi2c->XferCount > MAX_NBYTE_SIZE)
 8002ff4:	8d63      	ldrh	r3, [r4, #42]	@ 0x2a
 8002ff6:	2bff      	cmp	r3, #255	@ 0xff
 8002ff8:	d81a      	bhi.n	8003030 <HAL_I2C_Mem_Write+0xf8>
      I2C_TransferConfig(hi2c, DevAddress, (uint8_t)hi2c->XferSize, I2C_AUTOEND_MODE, I2C_NO_STARTSTOP);
 8002ffa:	2380      	movs	r3, #128	@ 0x80
      hi2c->XferSize = hi2c->XferCount;
 8002ffc:	8d62      	ldrh	r2, [r4, #42]	@ 0x2a
      I2C_TransferConfig(hi2c, DevAddress, (uint8_t)hi2c->XferSize, I2C_AUTOEND_MODE, I2C_NO_STARTSTOP);
 8002ffe:	049b      	lsls	r3, r3, #18
      hi2c->XferSize = hi2c->XferCount;
 8003000:	b292      	uxth	r2, r2
 8003002:	8522      	strh	r2, [r4, #40]	@ 0x28
      I2C_TransferConfig(hi2c, DevAddress, (uint8_t)hi2c->XferSize, I2C_AUTOEND_MODE, I2C_NO_STARTSTOP);
 8003004:	b2d2      	uxtb	r2, r2
 8003006:	9000      	str	r0, [sp, #0]
 8003008:	e017      	b.n	800303a <HAL_I2C_Mem_Write+0x102>
    hi2c->Instance->TXDR = I2C_MEM_ADD_MSB(MemAddress);
 800300a:	9a02      	ldr	r2, [sp, #8]
    if (I2C_WaitOnTXISFlagUntilTimeout(hi2c, Timeout, Tickstart) != HAL_OK)
 800300c:	0020      	movs	r0, r4
    hi2c->Instance->TXDR = I2C_MEM_ADD_MSB(MemAddress);
 800300e:	0a12      	lsrs	r2, r2, #8
 8003010:	629a      	str	r2, [r3, #40]	@ 0x28
    if (I2C_WaitOnTXISFlagUntilTimeout(hi2c, Timeout, Tickstart) != HAL_OK)
 8003012:	990e      	ldr	r1, [sp, #56]	@ 0x38
 8003014:	002a      	movs	r2, r5
 8003016:	f7ff fea1 	bl	8002d5c <I2C_WaitOnTXISFlagUntilTimeout>
 800301a:	2800      	cmp	r0, #0
 800301c:	d104      	bne.n	8003028 <HAL_I2C_Mem_Write+0xf0>
    hi2c->Instance->TXDR = I2C_MEM_ADD_LSB(MemAddress);
 800301e:	466b      	mov	r3, sp
 8003020:	6822      	ldr	r2, [r4, #0]
 8003022:	7a1b      	ldrb	r3, [r3, #8]
 8003024:	6293      	str	r3, [r2, #40]	@ 0x28
 8003026:	e7dc      	b.n	8002fe2 <HAL_I2C_Mem_Write+0xaa>
      __HAL_UNLOCK(hi2c);
 8003028:	2300      	movs	r3, #0
 800302a:	3440      	adds	r4, #64	@ 0x40
 800302c:	7023      	strb	r3, [r4, #0]
      return HAL_ERROR;
 800302e:	e79c      	b.n	8002f6a <HAL_I2C_Mem_Write+0x32>
      hi2c->XferSize = MAX_NBYTE_SIZE;
 8003030:	22ff      	movs	r2, #255	@ 0xff
      I2C_TransferConfig(hi2c, DevAddress, (uint8_t)hi2c->XferSize, I2C_RELOAD_MODE, I2C_NO_STARTSTOP);
 8003032:	2380      	movs	r3, #128	@ 0x80
      hi2c->XferSize = MAX_NBYTE_SIZE;
 8003034:	8522      	strh	r2, [r4, #40]	@ 0x28
      I2C_TransferConfig(hi2c, DevAddress, (uint8_t)hi2c->XferSize, I2C_RELOAD_MODE, I2C_NO_STARTSTOP);
 8003036:	045b      	lsls	r3, r3, #17
 8003038:	9000      	str	r0, [sp, #0]
      I2C_TransferConfig(hi2c, DevAddress, (uint8_t)hi2c->XferSize, I2C_AUTOEND_MODE, I2C_NO_STARTSTOP);
 800303a:	0031      	movs	r1, r6
 800303c:	0020      	movs	r0, r4
 800303e:	f7ff fd95 	bl	8002b6c <I2C_TransferConfig>
      if (I2C_WaitOnTXISFlagUntilTimeout(hi2c, Timeout, tickstart) != HAL_OK)
 8003042:	002a      	movs	r2, r5
 8003044:	0020      	movs	r0, r4
 8003046:	990e      	ldr	r1, [sp, #56]	@ 0x38
 8003048:	f7ff fe88 	bl	8002d5c <I2C_WaitOnTXISFlagUntilTimeout>
 800304c:	2800      	cmp	r0, #0
 800304e:	d000      	beq.n	8003052 <HAL_I2C_Mem_Write+0x11a>
 8003050:	e78b      	b.n	8002f6a <HAL_I2C_Mem_Write+0x32>
      hi2c->Instance->TXDR = *hi2c->pBuffPtr;
 8003052:	6a63      	ldr	r3, [r4, #36]	@ 0x24
 8003054:	6822      	ldr	r2, [r4, #0]
 8003056:	7819      	ldrb	r1, [r3, #0]
      hi2c->pBuffPtr++;
 8003058:	3301      	adds	r3, #1
      hi2c->Instance->TXDR = *hi2c->pBuffPtr;
 800305a:	6291      	str	r1, [r2, #40]	@ 0x28
      hi2c->pBuffPtr++;
 800305c:	6263      	str	r3, [r4, #36]	@ 0x24
      hi2c->XferCount--;
 800305e:	8d63      	ldrh	r3, [r4, #42]	@ 0x2a
      hi2c->XferSize--;
 8003060:	8d22      	ldrh	r2, [r4, #40]	@ 0x28
      hi2c->XferCount--;
 8003062:	3b01      	subs	r3, #1
 8003064:	b29b      	uxth	r3, r3
 8003066:	8563      	strh	r3, [r4, #42]	@ 0x2a
      hi2c->XferSize--;
 8003068:	3a01      	subs	r2, #1
      if ((hi2c->XferCount != 0U) && (hi2c->XferSize == 0U))
 800306a:	8d63      	ldrh	r3, [r4, #42]	@ 0x2a
      hi2c->XferSize--;
 800306c:	b292      	uxth	r2, r2
 800306e:	8522      	strh	r2, [r4, #40]	@ 0x28
      if ((hi2c->XferCount != 0U) && (hi2c->XferSize == 0U))
 8003070:	2b00      	cmp	r3, #0
 8003072:	d016      	beq.n	80030a2 <HAL_I2C_Mem_Write+0x16a>
 8003074:	2a00      	cmp	r2, #0
 8003076:	d114      	bne.n	80030a2 <HAL_I2C_Mem_Write+0x16a>
        if (I2C_WaitOnFlagUntilTimeout(hi2c, I2C_FLAG_TCR, RESET, Timeout, tickstart) != HAL_OK)
 8003078:	2180      	movs	r1, #128	@ 0x80
 800307a:	0020      	movs	r0, r4
 800307c:	9b0e      	ldr	r3, [sp, #56]	@ 0x38
 800307e:	9500      	str	r5, [sp, #0]
 8003080:	f7ff fe9a 	bl	8002db8 <I2C_WaitOnFlagUntilTimeout>
 8003084:	2800      	cmp	r0, #0
 8003086:	d000      	beq.n	800308a <HAL_I2C_Mem_Write+0x152>
 8003088:	e76f      	b.n	8002f6a <HAL_I2C_Mem_Write+0x32>
        if (hi2c->XferCount > MAX_NBYTE_SIZE)
 800308a:	8d63      	ldrh	r3, [r4, #42]	@ 0x2a
 800308c:	2bff      	cmp	r3, #255	@ 0xff
 800308e:	d921      	bls.n	80030d4 <HAL_I2C_Mem_Write+0x19c>
          hi2c->XferSize = MAX_NBYTE_SIZE;
 8003090:	22ff      	movs	r2, #255	@ 0xff
          I2C_TransferConfig(hi2c, DevAddress, (uint8_t)hi2c->XferSize, I2C_RELOAD_MODE,
 8003092:	2380      	movs	r3, #128	@ 0x80
          hi2c->XferSize = MAX_NBYTE_SIZE;
 8003094:	8522      	strh	r2, [r4, #40]	@ 0x28
          I2C_TransferConfig(hi2c, DevAddress, (uint8_t)hi2c->XferSize, I2C_RELOAD_MODE,
 8003096:	045b      	lsls	r3, r3, #17
 8003098:	9000      	str	r0, [sp, #0]
          I2C_TransferConfig(hi2c, DevAddress, (uint8_t)hi2c->XferSize, I2C_AUTOEND_MODE,
 800309a:	0031      	movs	r1, r6
 800309c:	0020      	movs	r0, r4
 800309e:	f7ff fd65 	bl	8002b6c <I2C_TransferConfig>
    } while (hi2c->XferCount > 0U);
 80030a2:	8d63      	ldrh	r3, [r4, #42]	@ 0x2a
 80030a4:	2b00      	cmp	r3, #0
 80030a6:	d1cc      	bne.n	8003042 <HAL_I2C_Mem_Write+0x10a>
    if (I2C_WaitOnSTOPFlagUntilTimeout(hi2c, Timeout, tickstart) != HAL_OK)
 80030a8:	002a      	movs	r2, r5
 80030aa:	0020      	movs	r0, r4
 80030ac:	990e      	ldr	r1, [sp, #56]	@ 0x38
 80030ae:	f7ff feba 	bl	8002e26 <I2C_WaitOnSTOPFlagUntilTimeout>
 80030b2:	2800      	cmp	r0, #0
 80030b4:	d000      	beq.n	80030b8 <HAL_I2C_Mem_Write+0x180>
 80030b6:	e758      	b.n	8002f6a <HAL_I2C_Mem_Write+0x32>
    __HAL_I2C_CLEAR_FLAG(hi2c, I2C_FLAG_STOPF);
 80030b8:	2120      	movs	r1, #32
 80030ba:	6823      	ldr	r3, [r4, #0]
    I2C_RESET_CR2(hi2c);
 80030bc:	4d0a      	ldr	r5, [pc, #40]	@ (80030e8 <HAL_I2C_Mem_Write+0x1b0>)
    __HAL_I2C_CLEAR_FLAG(hi2c, I2C_FLAG_STOPF);
 80030be:	61d9      	str	r1, [r3, #28]
    I2C_RESET_CR2(hi2c);
 80030c0:	685a      	ldr	r2, [r3, #4]
 80030c2:	402a      	ands	r2, r5
 80030c4:	605a      	str	r2, [r3, #4]
    hi2c->State = HAL_I2C_STATE_READY;
 80030c6:	0023      	movs	r3, r4
    __HAL_UNLOCK(hi2c);
 80030c8:	3440      	adds	r4, #64	@ 0x40
    hi2c->State = HAL_I2C_STATE_READY;
 80030ca:	3341      	adds	r3, #65	@ 0x41
 80030cc:	7019      	strb	r1, [r3, #0]
    hi2c->Mode  = HAL_I2C_MODE_NONE;
 80030ce:	7038      	strb	r0, [r7, #0]
    __HAL_UNLOCK(hi2c);
 80030d0:	7020      	strb	r0, [r4, #0]
    return HAL_OK;
 80030d2:	e74b      	b.n	8002f6c <HAL_I2C_Mem_Write+0x34>
          I2C_TransferConfig(hi2c, DevAddress, (uint8_t)hi2c->XferSize, I2C_AUTOEND_MODE,
 80030d4:	2380      	movs	r3, #128	@ 0x80
          hi2c->XferSize = hi2c->XferCount;
 80030d6:	8d62      	ldrh	r2, [r4, #42]	@ 0x2a
          I2C_TransferConfig(hi2c, DevAddress, (uint8_t)hi2c->XferSize, I2C_AUTOEND_MODE,
 80030d8:	049b      	lsls	r3, r3, #18
          hi2c->XferSize = hi2c->XferCount;
 80030da:	b292      	uxth	r2, r2
 80030dc:	8522      	strh	r2, [r4, #40]	@ 0x28
          I2C_TransferConfig(hi2c, DevAddress, (uint8_t)hi2c->XferSize, I2C_AUTOEND_MODE,
 80030de:	b2d2      	uxtb	r2, r2
 80030e0:	9000      	str	r0, [sp, #0]
 80030e2:	e7da      	b.n	800309a <HAL_I2C_Mem_Write+0x162>
 80030e4:	80002000 	.word	0x80002000
 80030e8:	fe00e800 	.word	0xfe00e800

080030ec <HAL_I2C_Mem_Read_IT>:
{
 80030ec:	b5f0      	push	{r4, r5, r6, r7, lr}
  if (hi2c->State == HAL_I2C_STATE_READY)
 80030ee:	0006      	movs	r6, r0
{
 80030f0:	b087      	sub	sp, #28
 80030f2:	9303      	str	r3, [sp, #12]
 80030f4:	ab0c      	add	r3, sp, #48	@ 0x30
 80030f6:	cb20      	ldmia	r3!, {r5}
 80030f8:	9202      	str	r2, [sp, #8]
 80030fa:	881b      	ldrh	r3, [r3, #0]
  if (hi2c->State == HAL_I2C_STATE_READY)
 80030fc:	3641      	adds	r6, #65	@ 0x41
{
 80030fe:	9304      	str	r3, [sp, #16]
  if (hi2c->State == HAL_I2C_STATE_READY)
 8003100:	7833      	ldrb	r3, [r6, #0]
{
 8003102:	0004      	movs	r4, r0
      return HAL_BUSY;
 8003104:	2002      	movs	r0, #2
  if (hi2c->State == HAL_I2C_STATE_READY)
 8003106:	2b20      	cmp	r3, #32
 8003108:	d108      	bne.n	800311c <HAL_I2C_Mem_Read_IT+0x30>
    if ((pData == NULL) || (Size == 0U))
 800310a:	2d00      	cmp	r5, #0
 800310c:	d002      	beq.n	8003114 <HAL_I2C_Mem_Read_IT+0x28>
 800310e:	9b04      	ldr	r3, [sp, #16]
 8003110:	2b00      	cmp	r3, #0
 8003112:	d105      	bne.n	8003120 <HAL_I2C_Mem_Read_IT+0x34>
      hi2c->ErrorCode = HAL_I2C_ERROR_INVALID_PARAM;
 8003114:	2380      	movs	r3, #128	@ 0x80
      return  HAL_ERROR;
 8003116:	2001      	movs	r0, #1
      hi2c->ErrorCode = HAL_I2C_ERROR_INVALID_PARAM;
 8003118:	009b      	lsls	r3, r3, #2
 800311a:	6463      	str	r3, [r4, #68]	@ 0x44
}
 800311c:	b007      	add	sp, #28
 800311e:	bdf0      	pop	{r4, r5, r6, r7, pc}
    if (__HAL_I2C_GET_FLAG(hi2c, I2C_FLAG_BUSY) == SET)
 8003120:	6823      	ldr	r3, [r4, #0]
 8003122:	2780      	movs	r7, #128	@ 0x80
 8003124:	6998      	ldr	r0, [r3, #24]
 8003126:	023f      	lsls	r7, r7, #8
 8003128:	4684      	mov	ip, r0
 800312a:	4662      	mov	r2, ip
 800312c:	4038      	ands	r0, r7
 800312e:	9005      	str	r0, [sp, #20]
      return HAL_BUSY;
 8003130:	2002      	movs	r0, #2
    if (__HAL_I2C_GET_FLAG(hi2c, I2C_FLAG_BUSY) == SET)
 8003132:	423a      	tst	r2, r7
 8003134:	d1f2      	bne.n	800311c <HAL_I2C_Mem_Read_IT+0x30>
    __HAL_LOCK(hi2c);
 8003136:	0027      	movs	r7, r4
 8003138:	3740      	adds	r7, #64	@ 0x40
 800313a:	783a      	ldrb	r2, [r7, #0]
 800313c:	2a01      	cmp	r2, #1
 800313e:	d0ed      	beq.n	800311c <HAL_I2C_Mem_Read_IT+0x30>
 8003140:	3801      	subs	r0, #1
 8003142:	7038      	strb	r0, [r7, #0]
    hi2c->State       = HAL_I2C_STATE_BUSY_RX;
 8003144:	3021      	adds	r0, #33	@ 0x21
 8003146:	7030      	strb	r0, [r6, #0]
    hi2c->Mode        = HAL_I2C_MODE_MEM;
 8003148:	0020      	movs	r0, r4
 800314a:	2640      	movs	r6, #64	@ 0x40
    hi2c->ErrorCode   = HAL_I2C_ERROR_NONE;
 800314c:	9a05      	ldr	r2, [sp, #20]
    hi2c->Mode        = HAL_I2C_MODE_MEM;
 800314e:	3042      	adds	r0, #66	@ 0x42
 8003150:	7006      	strb	r6, [r0, #0]
    hi2c->ErrorCode   = HAL_I2C_ERROR_NONE;
 8003152:	6462      	str	r2, [r4, #68]	@ 0x44
    hi2c->XferCount   = Size;
 8003154:	9a04      	ldr	r2, [sp, #16]
    hi2c->pBuffPtr    = pData;
 8003156:	6265      	str	r5, [r4, #36]	@ 0x24
    hi2c->XferCount   = Size;
 8003158:	8562      	strh	r2, [r4, #42]	@ 0x2a
    hi2c->XferOptions = I2C_NO_OPTION_FRAME;
 800315a:	4a12      	ldr	r2, [pc, #72]	@ (80031a4 <HAL_I2C_Mem_Read_IT+0xb8>)
 800315c:	62e2      	str	r2, [r4, #44]	@ 0x2c
    hi2c->XferISR     = I2C_Mem_ISR_IT;
 800315e:	4a12      	ldr	r2, [pc, #72]	@ (80031a8 <HAL_I2C_Mem_Read_IT+0xbc>)
    hi2c->Devaddress  = DevAddress;
 8003160:	64e1      	str	r1, [r4, #76]	@ 0x4c
    hi2c->XferISR     = I2C_Mem_ISR_IT;
 8003162:	6362      	str	r2, [r4, #52]	@ 0x34
      hi2c->Instance->TXDR = I2C_MEM_ADD_LSB(MemAddress);
 8003164:	466a      	mov	r2, sp
 8003166:	7a10      	ldrb	r0, [r2, #8]
    if (MemAddSize == I2C_MEMADD_SIZE_8BIT)
 8003168:	9a03      	ldr	r2, [sp, #12]
 800316a:	2a01      	cmp	r2, #1
 800316c:	d115      	bne.n	800319a <HAL_I2C_Mem_Read_IT+0xae>
      hi2c->Instance->TXDR = I2C_MEM_ADD_LSB(MemAddress);
 800316e:	6298      	str	r0, [r3, #40]	@ 0x28
      hi2c->Memaddress = 0xFFFFFFFFU;
 8003170:	2301      	movs	r3, #1
 8003172:	425b      	negs	r3, r3
 8003174:	6523      	str	r3, [r4, #80]	@ 0x50
    I2C_TransferConfig(hi2c, DevAddress, (uint8_t)MemAddSize, I2C_SOFTEND_MODE, I2C_GENERATE_START_WRITE);
 8003176:	466b      	mov	r3, sp
 8003178:	7b1a      	ldrb	r2, [r3, #12]
 800317a:	4b0c      	ldr	r3, [pc, #48]	@ (80031ac <HAL_I2C_Mem_Read_IT+0xc0>)
 800317c:	0020      	movs	r0, r4
 800317e:	9300      	str	r3, [sp, #0]
 8003180:	2300      	movs	r3, #0
 8003182:	f7ff fcf3 	bl	8002b6c <I2C_TransferConfig>
    __HAL_UNLOCK(hi2c);
 8003186:	0023      	movs	r3, r4
 8003188:	2500      	movs	r5, #0
 800318a:	3340      	adds	r3, #64	@ 0x40
    I2C_Enable_IRQ(hi2c, I2C_XFER_TX_IT);
 800318c:	0020      	movs	r0, r4
 800318e:	2101      	movs	r1, #1
    __HAL_UNLOCK(hi2c);
 8003190:	701d      	strb	r5, [r3, #0]
    I2C_Enable_IRQ(hi2c, I2C_XFER_TX_IT);
 8003192:	f7ff fd01 	bl	8002b98 <I2C_Enable_IRQ>
    return HAL_OK;
 8003196:	0028      	movs	r0, r5
 8003198:	e7c0      	b.n	800311c <HAL_I2C_Mem_Read_IT+0x30>
      hi2c->Instance->TXDR = I2C_MEM_ADD_MSB(MemAddress);
 800319a:	9a02      	ldr	r2, [sp, #8]
 800319c:	0a12      	lsrs	r2, r2, #8
 800319e:	629a      	str	r2, [r3, #40]	@ 0x28
      hi2c->Memaddress = I2C_MEM_ADD_LSB(MemAddress);
 80031a0:	6520      	str	r0, [r4, #80]	@ 0x50
 80031a2:	e7e8      	b.n	8003176 <HAL_I2C_Mem_Read_IT+0x8a>
 80031a4:	ffff0000 	.word	0xffff0000
 80031a8:	0800382d 	.word	0x0800382d
 80031ac:	80002000 	.word	0x80002000

080031b0 <HAL_I2C_EV_IRQHandler>:
  uint32_t itflags   = READ_REG(hi2c->Instance->ISR);
 80031b0:	6803      	ldr	r3, [r0, #0]
{
 80031b2:	b510      	push	{r4, lr}
  uint32_t itflags   = READ_REG(hi2c->Instance->ISR);
 80031b4:	6999      	ldr	r1, [r3, #24]
  uint32_t itsources = READ_REG(hi2c->Instance->CR1);
 80031b6:	681a      	ldr	r2, [r3, #0]
  if (hi2c->XferISR != NULL)
 80031b8:	6b43      	ldr	r3, [r0, #52]	@ 0x34
 80031ba:	2b00      	cmp	r3, #0
 80031bc:	d000      	beq.n	80031c0 <HAL_I2C_EV_IRQHandler+0x10>
    hi2c->XferISR(hi2c, itflags, itsources);
 80031be:	4798      	blx	r3
}
 80031c0:	bd10      	pop	{r4, pc}

080031c2 <HAL_I2C_MasterTxCpltCallback>:
__weak void HAL_I2C_MasterTxCpltCallback(I2C_HandleTypeDef *hi2c)
 80031c2:	4770      	bx	lr

080031c4 <HAL_I2C_MasterRxCpltCallback>:
__weak void HAL_I2C_MasterRxCpltCallback(I2C_HandleTypeDef *hi2c)
 80031c4:	4770      	bx	lr

080031c6 <I2C_ITMasterSeqCplt>:
  hi2c->Mode = HAL_I2C_MODE_NONE;
 80031c6:	0003      	movs	r3, r0
{
 80031c8:	b570      	push	{r4, r5, r6, lr}
  hi2c->Mode = HAL_I2C_MODE_NONE;
 80031ca:	2500      	movs	r5, #0
 80031cc:	2220      	movs	r2, #32
 80031ce:	0006      	movs	r6, r0
 80031d0:	3342      	adds	r3, #66	@ 0x42
 80031d2:	701d      	strb	r5, [r3, #0]
  if (hi2c->State == HAL_I2C_STATE_BUSY_TX)
 80031d4:	3b01      	subs	r3, #1
 80031d6:	7819      	ldrb	r1, [r3, #0]
{
 80031d8:	0004      	movs	r4, r0
 80031da:	3640      	adds	r6, #64	@ 0x40
    hi2c->State         = HAL_I2C_STATE_READY;
 80031dc:	701a      	strb	r2, [r3, #0]
  if (hi2c->State == HAL_I2C_STATE_BUSY_TX)
 80031de:	2921      	cmp	r1, #33	@ 0x21
 80031e0:	d10a      	bne.n	80031f8 <I2C_ITMasterSeqCplt+0x32>
    hi2c->PreviousState = I2C_STATE_MASTER_BUSY_TX;
 80031e2:	2311      	movs	r3, #17
    hi2c->XferISR       = NULL;
 80031e4:	6345      	str	r5, [r0, #52]	@ 0x34
    hi2c->PreviousState = I2C_STATE_MASTER_BUSY_TX;
 80031e6:	6303      	str	r3, [r0, #48]	@ 0x30
    I2C_Disable_IRQ(hi2c, I2C_XFER_TX_IT);
 80031e8:	3920      	subs	r1, #32
 80031ea:	f7ff fd15 	bl	8002c18 <I2C_Disable_IRQ>
    HAL_I2C_MasterTxCpltCallback(hi2c);
 80031ee:	0020      	movs	r0, r4
    __HAL_UNLOCK(hi2c);
 80031f0:	7035      	strb	r5, [r6, #0]
    HAL_I2C_MasterTxCpltCallback(hi2c);
 80031f2:	f7ff ffe6 	bl	80031c2 <HAL_I2C_MasterTxCpltCallback>
}
 80031f6:	bd70      	pop	{r4, r5, r6, pc}
    hi2c->PreviousState = I2C_STATE_MASTER_BUSY_RX;
 80031f8:	2312      	movs	r3, #18
    hi2c->XferISR       = NULL;
 80031fa:	6345      	str	r5, [r0, #52]	@ 0x34
    hi2c->PreviousState = I2C_STATE_MASTER_BUSY_RX;
 80031fc:	6303      	str	r3, [r0, #48]	@ 0x30
    I2C_Disable_IRQ(hi2c, I2C_XFER_RX_IT);
 80031fe:	2102      	movs	r1, #2
 8003200:	f7ff fd0a 	bl	8002c18 <I2C_Disable_IRQ>
    HAL_I2C_MasterRxCpltCallback(hi2c);
 8003204:	0020      	movs	r0, r4
    __HAL_UNLOCK(hi2c);
 8003206:	7035      	strb	r5, [r6, #0]
    HAL_I2C_MasterRxCpltCallback(hi2c);
 8003208:	f7ff ffdc 	bl	80031c4 <HAL_I2C_MasterRxCpltCallback>
}
 800320c:	e7f3      	b.n	80031f6 <I2C_ITMasterSeqCplt+0x30>

0800320e <HAL_I2C_SlaveTxCpltCallback>:
__weak void HAL_I2C_SlaveTxCpltCallback(I2C_HandleTypeDef *hi2c)
 800320e:	4770      	bx	lr

08003210 <HAL_I2C_SlaveRxCpltCallback>:
__weak void HAL_I2C_SlaveRxCpltCallback(I2C_HandleTypeDef *hi2c)
 8003210:	4770      	bx	lr
	...

08003214 <I2C_ITSlaveSeqCplt>:
  hi2c->Mode = HAL_I2C_MODE_NONE;
 8003214:	0001      	movs	r1, r0
  uint32_t tmpcr1value = READ_REG(hi2c->Instance->CR1);
 8003216:	6803      	ldr	r3, [r0, #0]
{
 8003218:	b510      	push	{r4, lr}
 800321a:	0004      	movs	r4, r0
  hi2c->Mode = HAL_I2C_MODE_NONE;
 800321c:	2000      	movs	r0, #0
  uint32_t tmpcr1value = READ_REG(hi2c->Instance->CR1);
 800321e:	681a      	ldr	r2, [r3, #0]
  hi2c->Mode = HAL_I2C_MODE_NONE;
 8003220:	3142      	adds	r1, #66	@ 0x42
 8003222:	7008      	strb	r0, [r1, #0]
  if (I2C_CHECK_IT_SOURCE(tmpcr1value, I2C_CR1_TXDMAEN) != RESET)
 8003224:	0451      	lsls	r1, r2, #17
 8003226:	d518      	bpl.n	800325a <I2C_ITSlaveSeqCplt+0x46>
    hi2c->Instance->CR1 &= ~I2C_CR1_TXDMAEN;
 8003228:	681a      	ldr	r2, [r3, #0]
 800322a:	4918      	ldr	r1, [pc, #96]	@ (800328c <I2C_ITSlaveSeqCplt+0x78>)
    hi2c->Instance->CR1 &= ~I2C_CR1_RXDMAEN;
 800322c:	400a      	ands	r2, r1
 800322e:	601a      	str	r2, [r3, #0]
  if (hi2c->State == HAL_I2C_STATE_BUSY_TX_LISTEN)
 8003230:	0023      	movs	r3, r4
 8003232:	3341      	adds	r3, #65	@ 0x41
 8003234:	781a      	ldrb	r2, [r3, #0]
 8003236:	2a29      	cmp	r2, #41	@ 0x29
 8003238:	d114      	bne.n	8003264 <I2C_ITSlaveSeqCplt+0x50>
    hi2c->State         = HAL_I2C_STATE_LISTEN;
 800323a:	3a01      	subs	r2, #1
 800323c:	701a      	strb	r2, [r3, #0]
    hi2c->PreviousState = I2C_STATE_SLAVE_BUSY_TX;
 800323e:	2321      	movs	r3, #33	@ 0x21
    I2C_Disable_IRQ(hi2c, I2C_XFER_TX_IT);
 8003240:	0020      	movs	r0, r4
    hi2c->PreviousState = I2C_STATE_SLAVE_BUSY_TX;
 8003242:	6323      	str	r3, [r4, #48]	@ 0x30
    I2C_Disable_IRQ(hi2c, I2C_XFER_TX_IT);
 8003244:	2101      	movs	r1, #1
 8003246:	f7ff fce7 	bl	8002c18 <I2C_Disable_IRQ>
    __HAL_UNLOCK(hi2c);
 800324a:	0023      	movs	r3, r4
 800324c:	2200      	movs	r2, #0
 800324e:	3340      	adds	r3, #64	@ 0x40
    HAL_I2C_SlaveTxCpltCallback(hi2c);
 8003250:	0020      	movs	r0, r4
    __HAL_UNLOCK(hi2c);
 8003252:	701a      	strb	r2, [r3, #0]
    HAL_I2C_SlaveTxCpltCallback(hi2c);
 8003254:	f7ff ffdb 	bl	800320e <HAL_I2C_SlaveTxCpltCallback>
}
 8003258:	bd10      	pop	{r4, pc}
  else if (I2C_CHECK_IT_SOURCE(tmpcr1value, I2C_CR1_RXDMAEN) != RESET)
 800325a:	0412      	lsls	r2, r2, #16
 800325c:	d5e8      	bpl.n	8003230 <I2C_ITSlaveSeqCplt+0x1c>
    hi2c->Instance->CR1 &= ~I2C_CR1_RXDMAEN;
 800325e:	681a      	ldr	r2, [r3, #0]
 8003260:	490b      	ldr	r1, [pc, #44]	@ (8003290 <I2C_ITSlaveSeqCplt+0x7c>)
 8003262:	e7e3      	b.n	800322c <I2C_ITSlaveSeqCplt+0x18>
  else if (hi2c->State == HAL_I2C_STATE_BUSY_RX_LISTEN)
 8003264:	781a      	ldrb	r2, [r3, #0]
 8003266:	2a2a      	cmp	r2, #42	@ 0x2a
 8003268:	d1f6      	bne.n	8003258 <I2C_ITSlaveSeqCplt+0x44>
    hi2c->State         = HAL_I2C_STATE_LISTEN;
 800326a:	3a02      	subs	r2, #2
 800326c:	701a      	strb	r2, [r3, #0]
    hi2c->PreviousState = I2C_STATE_SLAVE_BUSY_RX;
 800326e:	2322      	movs	r3, #34	@ 0x22
    I2C_Disable_IRQ(hi2c, I2C_XFER_RX_IT);
 8003270:	0020      	movs	r0, r4
    hi2c->PreviousState = I2C_STATE_SLAVE_BUSY_RX;
 8003272:	6323      	str	r3, [r4, #48]	@ 0x30
    I2C_Disable_IRQ(hi2c, I2C_XFER_RX_IT);
 8003274:	2102      	movs	r1, #2
 8003276:	f7ff fccf 	bl	8002c18 <I2C_Disable_IRQ>
    __HAL_UNLOCK(hi2c);
 800327a:	0023      	movs	r3, r4
 800327c:	2200      	movs	r2, #0
 800327e:	3340      	adds	r3, #64	@ 0x40
    HAL_I2C_SlaveRxCpltCallback(hi2c);
 8003280:	0020      	movs	r0, r4
    __HAL_UNLOCK(hi2c);
 8003282:	701a      	strb	r2, [r3, #0]
    HAL_I2C_SlaveRxCpltCallback(hi2c);
 8003284:	f7ff ffc4 	bl	8003210 <HAL_I2C_SlaveRxCpltCallback>
}
 8003288:	e7e6      	b.n	8003258 <I2C_ITSlaveSeqCplt+0x44>
 800328a:	46c0      	nop			@ (mov r8, r8)
 800328c:	ffffbfff 	.word	0xffffbfff
 8003290:	ffff7fff 	.word	0xffff7fff

08003294 <HAL_I2C_AddrCallback>:
}
 8003294:	4770      	bx	lr

08003296 <I2C_ITAddrCplt.constprop.0>:
  if (((uint32_t)hi2c->State & (uint32_t)HAL_I2C_STATE_LISTEN) == (uint32_t)HAL_I2C_STATE_LISTEN)
 8003296:	0003      	movs	r3, r0
static void I2C_ITAddrCplt(I2C_HandleTypeDef *hi2c, uint32_t ITFlags)
 8003298:	b5f7      	push	{r0, r1, r2, r4, r5, r6, r7, lr}
  if (((uint32_t)hi2c->State & (uint32_t)HAL_I2C_STATE_LISTEN) == (uint32_t)HAL_I2C_STATE_LISTEN)
 800329a:	2228      	movs	r2, #40	@ 0x28
 800329c:	3341      	adds	r3, #65	@ 0x41
 800329e:	781b      	ldrb	r3, [r3, #0]
static void I2C_ITAddrCplt(I2C_HandleTypeDef *hi2c, uint32_t ITFlags)
 80032a0:	0004      	movs	r4, r0
    transferdirection = I2C_GET_DIR(hi2c);
 80032a2:	6801      	ldr	r1, [r0, #0]
  if (((uint32_t)hi2c->State & (uint32_t)HAL_I2C_STATE_LISTEN) == (uint32_t)HAL_I2C_STATE_LISTEN)
 80032a4:	4013      	ands	r3, r2
 80032a6:	4293      	cmp	r3, r2
 80032a8:	d13c      	bne.n	8003324 <I2C_ITAddrCplt.constprop.0+0x8e>
    slaveaddrcode     = I2C_GET_ADDR_MATCH(hi2c);
 80032aa:	27fe      	movs	r7, #254	@ 0xfe
    transferdirection = I2C_GET_DIR(hi2c);
 80032ac:	698d      	ldr	r5, [r1, #24]
    slaveaddrcode     = I2C_GET_ADDR_MATCH(hi2c);
 80032ae:	698e      	ldr	r6, [r1, #24]
    ownadd1code       = I2C_GET_OWN_ADDRESS1(hi2c);
 80032b0:	688b      	ldr	r3, [r1, #8]
    ownadd2code       = I2C_GET_OWN_ADDRESS2(hi2c);
 80032b2:	68ca      	ldr	r2, [r1, #12]
    transferdirection = I2C_GET_DIR(hi2c);
 80032b4:	03ed      	lsls	r5, r5, #15
    ownadd2code       = I2C_GET_OWN_ADDRESS2(hi2c);
 80032b6:	9201      	str	r2, [sp, #4]
    if (hi2c->Init.AddressingMode == I2C_ADDRESSINGMODE_10BIT)
 80032b8:	68c2      	ldr	r2, [r0, #12]
    slaveaddrcode     = I2C_GET_ADDR_MATCH(hi2c);
 80032ba:	0c36      	lsrs	r6, r6, #16
    transferdirection = I2C_GET_DIR(hi2c);
 80032bc:	0fed      	lsrs	r5, r5, #31
    slaveaddrcode     = I2C_GET_ADDR_MATCH(hi2c);
 80032be:	403e      	ands	r6, r7
    if (hi2c->Init.AddressingMode == I2C_ADDRESSINGMODE_10BIT)
 80032c0:	2a02      	cmp	r2, #2
 80032c2:	d125      	bne.n	8003310 <I2C_ITAddrCplt.constprop.0+0x7a>
    ownadd1code       = I2C_GET_OWN_ADDRESS1(hi2c);
 80032c4:	059b      	lsls	r3, r3, #22
 80032c6:	0d9a      	lsrs	r2, r3, #22
      if ((slaveaddrcode & SLAVE_ADDR_MSK) == ((ownadd1code >> SLAVE_ADDR_SHIFT) & SLAVE_ADDR_MSK))
 80032c8:	0f5b      	lsrs	r3, r3, #29
 80032ca:	4073      	eors	r3, r6
 80032cc:	0018      	movs	r0, r3
 80032ce:	2606      	movs	r6, #6
 80032d0:	4030      	ands	r0, r6
 80032d2:	4233      	tst	r3, r6
 80032d4:	d110      	bne.n	80032f8 <I2C_ITAddrCplt.constprop.0+0x62>
        hi2c->AddrEventCount++;
 80032d6:	6ca3      	ldr	r3, [r4, #72]	@ 0x48
 80032d8:	3301      	adds	r3, #1
 80032da:	64a3      	str	r3, [r4, #72]	@ 0x48
        if (hi2c->AddrEventCount == 2U)
 80032dc:	6ca3      	ldr	r3, [r4, #72]	@ 0x48
 80032de:	2b02      	cmp	r3, #2
 80032e0:	d109      	bne.n	80032f6 <I2C_ITAddrCplt.constprop.0+0x60>
          __HAL_I2C_CLEAR_FLAG(hi2c, I2C_FLAG_ADDR);
 80032e2:	199b      	adds	r3, r3, r6
          hi2c->AddrEventCount = 0U;
 80032e4:	64a0      	str	r0, [r4, #72]	@ 0x48
          __HAL_I2C_CLEAR_FLAG(hi2c, I2C_FLAG_ADDR);
 80032e6:	61cb      	str	r3, [r1, #28]
          __HAL_UNLOCK(hi2c);
 80032e8:	0023      	movs	r3, r4
 80032ea:	3340      	adds	r3, #64	@ 0x40
 80032ec:	7018      	strb	r0, [r3, #0]
      HAL_I2C_AddrCallback(hi2c, transferdirection, slaveaddrcode);
 80032ee:	0029      	movs	r1, r5
 80032f0:	0020      	movs	r0, r4
 80032f2:	f7ff ffcf 	bl	8003294 <HAL_I2C_AddrCallback>
}
 80032f6:	bdf7      	pop	{r0, r1, r2, r4, r5, r6, r7, pc}
        I2C_Disable_IRQ(hi2c, I2C_XFER_LISTEN_IT);
 80032f8:	2180      	movs	r1, #128	@ 0x80
 80032fa:	0020      	movs	r0, r4
 80032fc:	0209      	lsls	r1, r1, #8
 80032fe:	f7ff fc8b 	bl	8002c18 <I2C_Disable_IRQ>
        __HAL_UNLOCK(hi2c);
 8003302:	0023      	movs	r3, r4
 8003304:	2200      	movs	r2, #0
 8003306:	3340      	adds	r3, #64	@ 0x40
 8003308:	701a      	strb	r2, [r3, #0]
        HAL_I2C_AddrCallback(hi2c, transferdirection, slaveaddrcode);
 800330a:	9a01      	ldr	r2, [sp, #4]
 800330c:	403a      	ands	r2, r7
 800330e:	e7ee      	b.n	80032ee <I2C_ITAddrCplt.constprop.0+0x58>
      I2C_Disable_IRQ(hi2c, I2C_XFER_LISTEN_IT);
 8003310:	2180      	movs	r1, #128	@ 0x80
 8003312:	0209      	lsls	r1, r1, #8
 8003314:	f7ff fc80 	bl	8002c18 <I2C_Disable_IRQ>
      __HAL_UNLOCK(hi2c);
 8003318:	0023      	movs	r3, r4
 800331a:	2200      	movs	r2, #0
 800331c:	3340      	adds	r3, #64	@ 0x40
 800331e:	701a      	strb	r2, [r3, #0]
      HAL_I2C_AddrCallback(hi2c, transferdirection, slaveaddrcode);
 8003320:	0032      	movs	r2, r6
 8003322:	e7e4      	b.n	80032ee <I2C_ITAddrCplt.constprop.0+0x58>
    __HAL_I2C_CLEAR_FLAG(hi2c, I2C_FLAG_ADDR);
 8003324:	2308      	movs	r3, #8
 8003326:	61cb      	str	r3, [r1, #28]
    __HAL_UNLOCK(hi2c);
 8003328:	2300      	movs	r3, #0
 800332a:	3440      	adds	r4, #64	@ 0x40
 800332c:	7023      	strb	r3, [r4, #0]
}
 800332e:	e7e2      	b.n	80032f6 <I2C_ITAddrCplt.constprop.0+0x60>

08003330 <HAL_I2C_ListenCpltCallback>:
__weak void HAL_I2C_ListenCpltCallback(I2C_HandleTypeDef *hi2c)
 8003330:	4770      	bx	lr
	...

08003334 <I2C_ITListenCplt>:
  hi2c->XferOptions = I2C_NO_OPTION_FRAME;
 8003334:	4b18      	ldr	r3, [pc, #96]	@ (8003398 <I2C_ITListenCplt+0x64>)
{
 8003336:	b510      	push	{r4, lr}
  hi2c->XferOptions = I2C_NO_OPTION_FRAME;
 8003338:	62c3      	str	r3, [r0, #44]	@ 0x2c
  hi2c->PreviousState = I2C_STATE_NONE;
 800333a:	2300      	movs	r3, #0
  hi2c->State = HAL_I2C_STATE_READY;
 800333c:	0002      	movs	r2, r0
  hi2c->PreviousState = I2C_STATE_NONE;
 800333e:	6303      	str	r3, [r0, #48]	@ 0x30
{
 8003340:	0004      	movs	r4, r0
  hi2c->State = HAL_I2C_STATE_READY;
 8003342:	2020      	movs	r0, #32
 8003344:	3241      	adds	r2, #65	@ 0x41
 8003346:	7010      	strb	r0, [r2, #0]
  hi2c->Mode = HAL_I2C_MODE_NONE;
 8003348:	7053      	strb	r3, [r2, #1]
  if (I2C_CHECK_FLAG(ITFlags, I2C_FLAG_RXNE) != RESET)
 800334a:	2204      	movs	r2, #4
  hi2c->XferISR = NULL;
 800334c:	6363      	str	r3, [r4, #52]	@ 0x34
  if (I2C_CHECK_FLAG(ITFlags, I2C_FLAG_RXNE) != RESET)
 800334e:	4211      	tst	r1, r2
 8003350:	d012      	beq.n	8003378 <I2C_ITListenCplt+0x44>
    *hi2c->pBuffPtr = (uint8_t)hi2c->Instance->RXDR;
 8003352:	6823      	ldr	r3, [r4, #0]
 8003354:	6a59      	ldr	r1, [r3, #36]	@ 0x24
 8003356:	6a63      	ldr	r3, [r4, #36]	@ 0x24
 8003358:	7019      	strb	r1, [r3, #0]
    hi2c->pBuffPtr++;
 800335a:	6a63      	ldr	r3, [r4, #36]	@ 0x24
 800335c:	3301      	adds	r3, #1
 800335e:	6263      	str	r3, [r4, #36]	@ 0x24
    if (hi2c->XferSize > 0U)
 8003360:	8d23      	ldrh	r3, [r4, #40]	@ 0x28
 8003362:	2b00      	cmp	r3, #0
 8003364:	d008      	beq.n	8003378 <I2C_ITListenCplt+0x44>
      hi2c->XferSize--;
 8003366:	3b01      	subs	r3, #1
 8003368:	8523      	strh	r3, [r4, #40]	@ 0x28
      hi2c->XferCount--;
 800336a:	8d63      	ldrh	r3, [r4, #42]	@ 0x2a
 800336c:	3b01      	subs	r3, #1
 800336e:	b29b      	uxth	r3, r3
 8003370:	8563      	strh	r3, [r4, #42]	@ 0x2a
      hi2c->ErrorCode |= HAL_I2C_ERROR_AF;
 8003372:	6c63      	ldr	r3, [r4, #68]	@ 0x44
 8003374:	431a      	orrs	r2, r3
 8003376:	6462      	str	r2, [r4, #68]	@ 0x44
  I2C_Disable_IRQ(hi2c, I2C_XFER_LISTEN_IT | I2C_XFER_RX_IT | I2C_XFER_TX_IT);
 8003378:	0020      	movs	r0, r4
 800337a:	4908      	ldr	r1, [pc, #32]	@ (800339c <I2C_ITListenCplt+0x68>)
 800337c:	f7ff fc4c 	bl	8002c18 <I2C_Disable_IRQ>
  __HAL_I2C_CLEAR_FLAG(hi2c, I2C_FLAG_AF);
 8003380:	2210      	movs	r2, #16
 8003382:	6823      	ldr	r3, [r4, #0]
  HAL_I2C_ListenCpltCallback(hi2c);
 8003384:	0020      	movs	r0, r4
  __HAL_I2C_CLEAR_FLAG(hi2c, I2C_FLAG_AF);
 8003386:	61da      	str	r2, [r3, #28]
  __HAL_UNLOCK(hi2c);
 8003388:	0023      	movs	r3, r4
 800338a:	2200      	movs	r2, #0
 800338c:	3340      	adds	r3, #64	@ 0x40
 800338e:	701a      	strb	r2, [r3, #0]
  HAL_I2C_ListenCpltCallback(hi2c);
 8003390:	f7ff ffce 	bl	8003330 <HAL_I2C_ListenCpltCallback>
}
 8003394:	bd10      	pop	{r4, pc}
 8003396:	46c0      	nop			@ (mov r8, r8)
 8003398:	ffff0000 	.word	0xffff0000
 800339c:	00008003 	.word	0x00008003

080033a0 <HAL_I2C_MemTxCpltCallback>:
__weak void HAL_I2C_MemTxCpltCallback(I2C_HandleTypeDef *hi2c)
 80033a0:	4770      	bx	lr

080033a2 <HAL_I2C_ErrorCallback>:
__weak void HAL_I2C_ErrorCallback(I2C_HandleTypeDef *hi2c)
 80033a2:	4770      	bx	lr

080033a4 <HAL_I2C_AbortCpltCallback>:
__weak void HAL_I2C_AbortCpltCallback(I2C_HandleTypeDef *hi2c)
 80033a4:	4770      	bx	lr

080033a6 <I2C_TreatErrorCallback>:
  if (hi2c->State == HAL_I2C_STATE_ABORT)
 80033a6:	0001      	movs	r1, r0
 80033a8:	0002      	movs	r2, r0
{
 80033aa:	b510      	push	{r4, lr}
  if (hi2c->State == HAL_I2C_STATE_ABORT)
 80033ac:	3141      	adds	r1, #65	@ 0x41
 80033ae:	780c      	ldrb	r4, [r1, #0]
 80033b0:	2300      	movs	r3, #0
 80033b2:	3240      	adds	r2, #64	@ 0x40
 80033b4:	2c60      	cmp	r4, #96	@ 0x60
 80033b6:	d106      	bne.n	80033c6 <I2C_TreatErrorCallback+0x20>
    hi2c->State = HAL_I2C_STATE_READY;
 80033b8:	3c40      	subs	r4, #64	@ 0x40
 80033ba:	700c      	strb	r4, [r1, #0]
    hi2c->PreviousState = I2C_STATE_NONE;
 80033bc:	6303      	str	r3, [r0, #48]	@ 0x30
    __HAL_UNLOCK(hi2c);
 80033be:	7013      	strb	r3, [r2, #0]
    HAL_I2C_AbortCpltCallback(hi2c);
 80033c0:	f7ff fff0 	bl	80033a4 <HAL_I2C_AbortCpltCallback>
}
 80033c4:	bd10      	pop	{r4, pc}
    hi2c->PreviousState = I2C_STATE_NONE;
 80033c6:	6303      	str	r3, [r0, #48]	@ 0x30
    __HAL_UNLOCK(hi2c);
 80033c8:	7013      	strb	r3, [r2, #0]
    HAL_I2C_ErrorCallback(hi2c);
 80033ca:	f7ff ffea 	bl	80033a2 <HAL_I2C_ErrorCallback>
}
 80033ce:	e7f9      	b.n	80033c4 <I2C_TreatErrorCallback+0x1e>

080033d0 <I2C_ITError>:
{
 80033d0:	b570      	push	{r4, r5, r6, lr}
  HAL_I2C_StateTypeDef tmpstate = hi2c->State;
 80033d2:	0005      	movs	r5, r0
  hi2c->Mode          = HAL_I2C_MODE_NONE;
 80033d4:	2200      	movs	r2, #0
{
 80033d6:	0004      	movs	r4, r0
  HAL_I2C_StateTypeDef tmpstate = hi2c->State;
 80033d8:	3541      	adds	r5, #65	@ 0x41
  hi2c->Mode          = HAL_I2C_MODE_NONE;
 80033da:	3042      	adds	r0, #66	@ 0x42
  HAL_I2C_StateTypeDef tmpstate = hi2c->State;
 80033dc:	782b      	ldrb	r3, [r5, #0]
  hi2c->Mode          = HAL_I2C_MODE_NONE;
 80033de:	7002      	strb	r2, [r0, #0]
  hi2c->XferOptions   = I2C_NO_OPTION_FRAME;
 80033e0:	483a      	ldr	r0, [pc, #232]	@ (80034cc <I2C_ITError+0xfc>)
  if ((tmpstate == HAL_I2C_STATE_LISTEN)         ||
 80033e2:	3b28      	subs	r3, #40	@ 0x28
  hi2c->XferOptions   = I2C_NO_OPTION_FRAME;
 80033e4:	62e0      	str	r0, [r4, #44]	@ 0x2c
  hi2c->XferCount     = 0U;
 80033e6:	8562      	strh	r2, [r4, #42]	@ 0x2a
  hi2c->ErrorCode |= ErrorCode;
 80033e8:	6c62      	ldr	r2, [r4, #68]	@ 0x44
 80033ea:	430a      	orrs	r2, r1
 80033ec:	6462      	str	r2, [r4, #68]	@ 0x44
  if ((tmpstate == HAL_I2C_STATE_LISTEN)         ||
 80033ee:	2b02      	cmp	r3, #2
 80033f0:	d82b      	bhi.n	800344a <I2C_ITError+0x7a>
    I2C_Disable_IRQ(hi2c, I2C_XFER_RX_IT | I2C_XFER_TX_IT);
 80033f2:	2103      	movs	r1, #3
 80033f4:	0020      	movs	r0, r4
 80033f6:	f7ff fc0f 	bl	8002c18 <I2C_Disable_IRQ>
    hi2c->State         = HAL_I2C_STATE_LISTEN;
 80033fa:	2328      	movs	r3, #40	@ 0x28
 80033fc:	702b      	strb	r3, [r5, #0]
    hi2c->XferISR       = I2C_Slave_ISR_IT;
 80033fe:	4b34      	ldr	r3, [pc, #208]	@ (80034d0 <I2C_ITError+0x100>)
  if ((hi2c->hdmatx != NULL) && ((tmppreviousstate == I2C_STATE_MASTER_BUSY_TX) || \
 8003400:	6ba0      	ldr	r0, [r4, #56]	@ 0x38
    hi2c->XferISR       = I2C_Slave_ISR_IT;
 8003402:	6363      	str	r3, [r4, #52]	@ 0x34
  tmppreviousstate = hi2c->PreviousState;
 8003404:	6b23      	ldr	r3, [r4, #48]	@ 0x30
  if ((hi2c->hdmatx != NULL) && ((tmppreviousstate == I2C_STATE_MASTER_BUSY_TX) || \
 8003406:	2800      	cmp	r0, #0
 8003408:	d040      	beq.n	800348c <I2C_ITError+0xbc>
 800340a:	001a      	movs	r2, r3
 800340c:	2110      	movs	r1, #16
 800340e:	3a11      	subs	r2, #17
 8003410:	438a      	bics	r2, r1
 8003412:	d13b      	bne.n	800348c <I2C_ITError+0xbc>
    if ((hi2c->Instance->CR1 & I2C_CR1_TXDMAEN) == I2C_CR1_TXDMAEN)
 8003414:	6823      	ldr	r3, [r4, #0]
 8003416:	681a      	ldr	r2, [r3, #0]
 8003418:	0452      	lsls	r2, r2, #17
 800341a:	d503      	bpl.n	8003424 <I2C_ITError+0x54>
      hi2c->Instance->CR1 &= ~I2C_CR1_TXDMAEN;
 800341c:	681a      	ldr	r2, [r3, #0]
 800341e:	492d      	ldr	r1, [pc, #180]	@ (80034d4 <I2C_ITError+0x104>)
 8003420:	400a      	ands	r2, r1
 8003422:	601a      	str	r2, [r3, #0]
    if (HAL_DMA_GetState(hi2c->hdmatx) != HAL_DMA_STATE_READY)
 8003424:	f7ff fad2 	bl	80029cc <HAL_DMA_GetState>
 8003428:	2801      	cmp	r0, #1
 800342a:	d02b      	beq.n	8003484 <I2C_ITError+0xb4>
      hi2c->hdmatx->XferAbortCallback = I2C_DMAAbort;
 800342c:	6ba0      	ldr	r0, [r4, #56]	@ 0x38
 800342e:	4b2a      	ldr	r3, [pc, #168]	@ (80034d8 <I2C_ITError+0x108>)
      __HAL_UNLOCK(hi2c);
 8003430:	2200      	movs	r2, #0
      hi2c->hdmatx->XferAbortCallback = I2C_DMAAbort;
 8003432:	6383      	str	r3, [r0, #56]	@ 0x38
      __HAL_UNLOCK(hi2c);
 8003434:	0023      	movs	r3, r4
 8003436:	3340      	adds	r3, #64	@ 0x40
 8003438:	701a      	strb	r2, [r3, #0]
      if (HAL_DMA_Abort_IT(hi2c->hdmatx) != HAL_OK)
 800343a:	f7ff fa39 	bl	80028b0 <HAL_DMA_Abort_IT>
 800343e:	2800      	cmp	r0, #0
 8003440:	d023      	beq.n	800348a <I2C_ITError+0xba>
        hi2c->hdmatx->XferAbortCallback(hi2c->hdmatx);
 8003442:	6ba0      	ldr	r0, [r4, #56]	@ 0x38
        hi2c->hdmarx->XferAbortCallback(hi2c->hdmarx);
 8003444:	6b83      	ldr	r3, [r0, #56]	@ 0x38
 8003446:	4798      	blx	r3
}
 8003448:	e01f      	b.n	800348a <I2C_ITError+0xba>
    I2C_Disable_IRQ(hi2c, I2C_XFER_LISTEN_IT | I2C_XFER_RX_IT | I2C_XFER_TX_IT);
 800344a:	0020      	movs	r0, r4
 800344c:	4923      	ldr	r1, [pc, #140]	@ (80034dc <I2C_ITError+0x10c>)
 800344e:	f7ff fbe3 	bl	8002c18 <I2C_Disable_IRQ>
    I2C_Flush_TXDR(hi2c);
 8003452:	0020      	movs	r0, r4
 8003454:	f7ff fb7c 	bl	8002b50 <I2C_Flush_TXDR>
    if (hi2c->State != HAL_I2C_STATE_ABORT)
 8003458:	782b      	ldrb	r3, [r5, #0]
 800345a:	2b60      	cmp	r3, #96	@ 0x60
 800345c:	d010      	beq.n	8003480 <I2C_ITError+0xb0>
      hi2c->State         = HAL_I2C_STATE_READY;
 800345e:	2220      	movs	r2, #32
 8003460:	702a      	strb	r2, [r5, #0]
      if (__HAL_I2C_GET_FLAG(hi2c, I2C_FLAG_STOPF) == SET)
 8003462:	6823      	ldr	r3, [r4, #0]
 8003464:	6999      	ldr	r1, [r3, #24]
 8003466:	4211      	tst	r1, r2
 8003468:	d00a      	beq.n	8003480 <I2C_ITError+0xb0>
        if (__HAL_I2C_GET_FLAG(hi2c, I2C_FLAG_AF) == SET)
 800346a:	6999      	ldr	r1, [r3, #24]
 800346c:	3a10      	subs	r2, #16
 800346e:	4211      	tst	r1, r2
 8003470:	d004      	beq.n	800347c <I2C_ITError+0xac>
          __HAL_I2C_CLEAR_FLAG(hi2c, I2C_FLAG_AF);
 8003472:	61da      	str	r2, [r3, #28]
          hi2c->ErrorCode |= HAL_I2C_ERROR_AF;
 8003474:	6c61      	ldr	r1, [r4, #68]	@ 0x44
 8003476:	3a0c      	subs	r2, #12
 8003478:	430a      	orrs	r2, r1
 800347a:	6462      	str	r2, [r4, #68]	@ 0x44
        __HAL_I2C_CLEAR_FLAG(hi2c, I2C_FLAG_STOPF);
 800347c:	2220      	movs	r2, #32
 800347e:	61da      	str	r2, [r3, #28]
    hi2c->XferISR       = NULL;
 8003480:	2300      	movs	r3, #0
 8003482:	e7bd      	b.n	8003400 <I2C_ITError+0x30>
      I2C_TreatErrorCallback(hi2c);
 8003484:	0020      	movs	r0, r4
 8003486:	f7ff ff8e 	bl	80033a6 <I2C_TreatErrorCallback>
}
 800348a:	bd70      	pop	{r4, r5, r6, pc}
  else if ((hi2c->hdmarx != NULL) && ((tmppreviousstate == I2C_STATE_MASTER_BUSY_RX) || \
 800348c:	6be0      	ldr	r0, [r4, #60]	@ 0x3c
 800348e:	2800      	cmp	r0, #0
 8003490:	d0f8      	beq.n	8003484 <I2C_ITError+0xb4>
 8003492:	2210      	movs	r2, #16
 8003494:	3b12      	subs	r3, #18
 8003496:	4393      	bics	r3, r2
 8003498:	d1f4      	bne.n	8003484 <I2C_ITError+0xb4>
    if ((hi2c->Instance->CR1 & I2C_CR1_RXDMAEN) == I2C_CR1_RXDMAEN)
 800349a:	6823      	ldr	r3, [r4, #0]
 800349c:	681a      	ldr	r2, [r3, #0]
 800349e:	0412      	lsls	r2, r2, #16
 80034a0:	d503      	bpl.n	80034aa <I2C_ITError+0xda>
      hi2c->Instance->CR1 &= ~I2C_CR1_RXDMAEN;
 80034a2:	681a      	ldr	r2, [r3, #0]
 80034a4:	490e      	ldr	r1, [pc, #56]	@ (80034e0 <I2C_ITError+0x110>)
 80034a6:	400a      	ands	r2, r1
 80034a8:	601a      	str	r2, [r3, #0]
    if (HAL_DMA_GetState(hi2c->hdmarx) != HAL_DMA_STATE_READY)
 80034aa:	f7ff fa8f 	bl	80029cc <HAL_DMA_GetState>
 80034ae:	2801      	cmp	r0, #1
 80034b0:	d0e8      	beq.n	8003484 <I2C_ITError+0xb4>
      hi2c->hdmarx->XferAbortCallback = I2C_DMAAbort;
 80034b2:	6be0      	ldr	r0, [r4, #60]	@ 0x3c
 80034b4:	4b08      	ldr	r3, [pc, #32]	@ (80034d8 <I2C_ITError+0x108>)
      __HAL_UNLOCK(hi2c);
 80034b6:	2200      	movs	r2, #0
      hi2c->hdmarx->XferAbortCallback = I2C_DMAAbort;
 80034b8:	6383      	str	r3, [r0, #56]	@ 0x38
      __HAL_UNLOCK(hi2c);
 80034ba:	0023      	movs	r3, r4
 80034bc:	3340      	adds	r3, #64	@ 0x40
 80034be:	701a      	strb	r2, [r3, #0]
      if (HAL_DMA_Abort_IT(hi2c->hdmarx) != HAL_OK)
 80034c0:	f7ff f9f6 	bl	80028b0 <HAL_DMA_Abort_IT>
 80034c4:	2800      	cmp	r0, #0
 80034c6:	d0e0      	beq.n	800348a <I2C_ITError+0xba>
        hi2c->hdmarx->XferAbortCallback(hi2c->hdmarx);
 80034c8:	6be0      	ldr	r0, [r4, #60]	@ 0x3c
 80034ca:	e7bb      	b.n	8003444 <I2C_ITError+0x74>
 80034cc:	ffff0000 	.word	0xffff0000
 80034d0:	08003c75 	.word	0x08003c75
 80034d4:	ffffbfff 	.word	0xffffbfff
 80034d8:	08003d91 	.word	0x08003d91
 80034dc:	00008003 	.word	0x00008003
 80034e0:	ffff7fff 	.word	0xffff7fff

080034e4 <I2C_ITMasterCplt>:
{
 80034e4:	b5f7      	push	{r0, r1, r2, r4, r5, r6, r7, lr}
  __HAL_I2C_CLEAR_FLAG(hi2c, I2C_FLAG_STOPF);
 80034e6:	2320      	movs	r3, #32
  if (hi2c->State == HAL_I2C_STATE_BUSY_TX)
 80034e8:	0005      	movs	r5, r0
  __HAL_I2C_CLEAR_FLAG(hi2c, I2C_FLAG_STOPF);
 80034ea:	6806      	ldr	r6, [r0, #0]
  if (hi2c->State == HAL_I2C_STATE_BUSY_TX)
 80034ec:	3541      	adds	r5, #65	@ 0x41
  __HAL_I2C_CLEAR_FLAG(hi2c, I2C_FLAG_STOPF);
 80034ee:	61f3      	str	r3, [r6, #28]
  if (hi2c->State == HAL_I2C_STATE_BUSY_TX)
 80034f0:	782b      	ldrb	r3, [r5, #0]
{
 80034f2:	0004      	movs	r4, r0
 80034f4:	000f      	movs	r7, r1
  if (hi2c->State == HAL_I2C_STATE_BUSY_TX)
 80034f6:	2b21      	cmp	r3, #33	@ 0x21
 80034f8:	d12b      	bne.n	8003552 <I2C_ITMasterCplt+0x6e>
    I2C_Disable_IRQ(hi2c, I2C_XFER_TX_IT);
 80034fa:	2101      	movs	r1, #1
 80034fc:	f7ff fb8c 	bl	8002c18 <I2C_Disable_IRQ>
    hi2c->PreviousState = I2C_STATE_MASTER_BUSY_TX;
 8003500:	2311      	movs	r3, #17
    hi2c->PreviousState = I2C_STATE_MASTER_BUSY_RX;
 8003502:	6323      	str	r3, [r4, #48]	@ 0x30
  I2C_RESET_CR2(hi2c);
 8003504:	6873      	ldr	r3, [r6, #4]
 8003506:	4a2e      	ldr	r2, [pc, #184]	@ (80035c0 <I2C_ITMasterCplt+0xdc>)
 8003508:	4013      	ands	r3, r2
 800350a:	6073      	str	r3, [r6, #4]
  hi2c->XferISR       = NULL;
 800350c:	2300      	movs	r3, #0
 800350e:	6363      	str	r3, [r4, #52]	@ 0x34
  hi2c->XferOptions   = I2C_NO_OPTION_FRAME;
 8003510:	4b2c      	ldr	r3, [pc, #176]	@ (80035c4 <I2C_ITMasterCplt+0xe0>)
 8003512:	62e3      	str	r3, [r4, #44]	@ 0x2c
  if (I2C_CHECK_FLAG(tmpITFlags, I2C_FLAG_AF) != RESET)
 8003514:	2310      	movs	r3, #16
 8003516:	421f      	tst	r7, r3
 8003518:	d004      	beq.n	8003524 <I2C_ITMasterCplt+0x40>
    __HAL_I2C_CLEAR_FLAG(hi2c, I2C_FLAG_AF);
 800351a:	61f3      	str	r3, [r6, #28]
    hi2c->ErrorCode |= HAL_I2C_ERROR_AF;
 800351c:	6c62      	ldr	r2, [r4, #68]	@ 0x44
 800351e:	3b0c      	subs	r3, #12
 8003520:	4313      	orrs	r3, r2
 8003522:	6463      	str	r3, [r4, #68]	@ 0x44
  if ((hi2c->State == HAL_I2C_STATE_ABORT) && (I2C_CHECK_FLAG(tmpITFlags, I2C_FLAG_RXNE) != RESET))
 8003524:	782b      	ldrb	r3, [r5, #0]
 8003526:	2b60      	cmp	r3, #96	@ 0x60
 8003528:	d105      	bne.n	8003536 <I2C_ITMasterCplt+0x52>
 800352a:	077f      	lsls	r7, r7, #29
 800352c:	d503      	bpl.n	8003536 <I2C_ITMasterCplt+0x52>
    tmpreg = (uint8_t)hi2c->Instance->RXDR;
 800352e:	6a73      	ldr	r3, [r6, #36]	@ 0x24
 8003530:	b2db      	uxtb	r3, r3
 8003532:	9301      	str	r3, [sp, #4]
    UNUSED(tmpreg);
 8003534:	9b01      	ldr	r3, [sp, #4]
  I2C_Flush_TXDR(hi2c);
 8003536:	0020      	movs	r0, r4
 8003538:	f7ff fb0a 	bl	8002b50 <I2C_Flush_TXDR>
  tmperror = hi2c->ErrorCode;
 800353c:	6c63      	ldr	r3, [r4, #68]	@ 0x44
  if ((hi2c->State == HAL_I2C_STATE_ABORT) || (tmperror != HAL_I2C_ERROR_NONE))
 800353e:	782a      	ldrb	r2, [r5, #0]
 8003540:	2a60      	cmp	r2, #96	@ 0x60
 8003542:	d001      	beq.n	8003548 <I2C_ITMasterCplt+0x64>
 8003544:	2b00      	cmp	r3, #0
 8003546:	d00c      	beq.n	8003562 <I2C_ITMasterCplt+0x7e>
    I2C_ITError(hi2c, hi2c->ErrorCode);
 8003548:	0020      	movs	r0, r4
 800354a:	6c61      	ldr	r1, [r4, #68]	@ 0x44
 800354c:	f7ff ff40 	bl	80033d0 <I2C_ITError>
}
 8003550:	bdf7      	pop	{r0, r1, r2, r4, r5, r6, r7, pc}
  else if (hi2c->State == HAL_I2C_STATE_BUSY_RX)
 8003552:	782b      	ldrb	r3, [r5, #0]
 8003554:	2b22      	cmp	r3, #34	@ 0x22
 8003556:	d1d5      	bne.n	8003504 <I2C_ITMasterCplt+0x20>
    I2C_Disable_IRQ(hi2c, I2C_XFER_RX_IT);
 8003558:	2102      	movs	r1, #2
 800355a:	f7ff fb5d 	bl	8002c18 <I2C_Disable_IRQ>
    hi2c->PreviousState = I2C_STATE_MASTER_BUSY_RX;
 800355e:	2312      	movs	r3, #18
 8003560:	e7cf      	b.n	8003502 <I2C_ITMasterCplt+0x1e>
  else if (hi2c->State == HAL_I2C_STATE_BUSY_TX)
 8003562:	782a      	ldrb	r2, [r5, #0]
 8003564:	2a21      	cmp	r2, #33	@ 0x21
 8003566:	d113      	bne.n	8003590 <I2C_ITMasterCplt+0xac>
    hi2c->State = HAL_I2C_STATE_READY;
 8003568:	3a01      	subs	r2, #1
 800356a:	702a      	strb	r2, [r5, #0]
    if (hi2c->Mode == HAL_I2C_MODE_MEM)
 800356c:	0022      	movs	r2, r4
 800356e:	0021      	movs	r1, r4
    hi2c->PreviousState = I2C_STATE_NONE;
 8003570:	6323      	str	r3, [r4, #48]	@ 0x30
    if (hi2c->Mode == HAL_I2C_MODE_MEM)
 8003572:	3242      	adds	r2, #66	@ 0x42
 8003574:	7810      	ldrb	r0, [r2, #0]
 8003576:	3140      	adds	r1, #64	@ 0x40
      hi2c->Mode = HAL_I2C_MODE_NONE;
 8003578:	7013      	strb	r3, [r2, #0]
      __HAL_UNLOCK(hi2c);
 800357a:	700b      	strb	r3, [r1, #0]
    if (hi2c->Mode == HAL_I2C_MODE_MEM)
 800357c:	2840      	cmp	r0, #64	@ 0x40
 800357e:	d103      	bne.n	8003588 <I2C_ITMasterCplt+0xa4>
      HAL_I2C_MemTxCpltCallback(hi2c);
 8003580:	0020      	movs	r0, r4
 8003582:	f7ff ff0d 	bl	80033a0 <HAL_I2C_MemTxCpltCallback>
 8003586:	e7e3      	b.n	8003550 <I2C_ITMasterCplt+0x6c>
      HAL_I2C_MasterTxCpltCallback(hi2c);
 8003588:	0020      	movs	r0, r4
 800358a:	f7ff fe1a 	bl	80031c2 <HAL_I2C_MasterTxCpltCallback>
 800358e:	e7df      	b.n	8003550 <I2C_ITMasterCplt+0x6c>
  else if (hi2c->State == HAL_I2C_STATE_BUSY_RX)
 8003590:	782a      	ldrb	r2, [r5, #0]
 8003592:	2a22      	cmp	r2, #34	@ 0x22
 8003594:	d1dc      	bne.n	8003550 <I2C_ITMasterCplt+0x6c>
    hi2c->State = HAL_I2C_STATE_READY;
 8003596:	3a02      	subs	r2, #2
 8003598:	702a      	strb	r2, [r5, #0]
    if (hi2c->Mode == HAL_I2C_MODE_MEM)
 800359a:	0022      	movs	r2, r4
 800359c:	0021      	movs	r1, r4
    hi2c->PreviousState = I2C_STATE_NONE;
 800359e:	6323      	str	r3, [r4, #48]	@ 0x30
    if (hi2c->Mode == HAL_I2C_MODE_MEM)
 80035a0:	3242      	adds	r2, #66	@ 0x42
 80035a2:	7810      	ldrb	r0, [r2, #0]
 80035a4:	3140      	adds	r1, #64	@ 0x40
      hi2c->Mode = HAL_I2C_MODE_NONE;
 80035a6:	7013      	strb	r3, [r2, #0]
      __HAL_UNLOCK(hi2c);
 80035a8:	700b      	strb	r3, [r1, #0]
    if (hi2c->Mode == HAL_I2C_MODE_MEM)
 80035aa:	2840      	cmp	r0, #64	@ 0x40
 80035ac:	d103      	bne.n	80035b6 <I2C_ITMasterCplt+0xd2>
      HAL_I2C_MemRxCpltCallback(hi2c);
 80035ae:	0020      	movs	r0, r4
 80035b0:	f7fe f9f0 	bl	8001994 <HAL_I2C_MemRxCpltCallback>
 80035b4:	e7cc      	b.n	8003550 <I2C_ITMasterCplt+0x6c>
      HAL_I2C_MasterRxCpltCallback(hi2c);
 80035b6:	0020      	movs	r0, r4
 80035b8:	f7ff fe04 	bl	80031c4 <HAL_I2C_MasterRxCpltCallback>
}
 80035bc:	e7c8      	b.n	8003550 <I2C_ITMasterCplt+0x6c>
 80035be:	46c0      	nop			@ (mov r8, r8)
 80035c0:	fe00e800 	.word	0xfe00e800
 80035c4:	ffff0000 	.word	0xffff0000

080035c8 <I2C_Mem_ISR_DMA>:
{
 80035c8:	b573      	push	{r0, r1, r4, r5, r6, lr}
  __HAL_LOCK(hi2c);
 80035ca:	0005      	movs	r5, r0
 80035cc:	3540      	adds	r5, #64	@ 0x40
 80035ce:	782b      	ldrb	r3, [r5, #0]
{
 80035d0:	0004      	movs	r4, r0
  __HAL_LOCK(hi2c);
 80035d2:	2002      	movs	r0, #2
 80035d4:	2b01      	cmp	r3, #1
 80035d6:	d015      	beq.n	8003604 <I2C_Mem_ISR_DMA+0x3c>
 80035d8:	2301      	movs	r3, #1
 80035da:	702b      	strb	r3, [r5, #0]
  if ((I2C_CHECK_FLAG(ITFlags, I2C_FLAG_AF) != RESET) && \
 80035dc:	330f      	adds	r3, #15
 80035de:	4219      	tst	r1, r3
 80035e0:	d011      	beq.n	8003606 <I2C_Mem_ISR_DMA+0x3e>
 80035e2:	421a      	tst	r2, r3
 80035e4:	d00f      	beq.n	8003606 <I2C_Mem_ISR_DMA+0x3e>
    __HAL_I2C_CLEAR_FLAG(hi2c, I2C_FLAG_AF);
 80035e6:	6822      	ldr	r2, [r4, #0]
    I2C_Enable_IRQ(hi2c, I2C_XFER_CPLT_IT);
 80035e8:	0020      	movs	r0, r4
    __HAL_I2C_CLEAR_FLAG(hi2c, I2C_FLAG_AF);
 80035ea:	61d3      	str	r3, [r2, #28]
    hi2c->ErrorCode |= HAL_I2C_ERROR_AF;
 80035ec:	6c62      	ldr	r2, [r4, #68]	@ 0x44
 80035ee:	3b0c      	subs	r3, #12
 80035f0:	4313      	orrs	r3, r2
    I2C_Enable_IRQ(hi2c, I2C_XFER_CPLT_IT);
 80035f2:	2120      	movs	r1, #32
    hi2c->ErrorCode |= HAL_I2C_ERROR_AF;
 80035f4:	6463      	str	r3, [r4, #68]	@ 0x44
    I2C_Enable_IRQ(hi2c, I2C_XFER_CPLT_IT);
 80035f6:	f7ff facf 	bl	8002b98 <I2C_Enable_IRQ>
    I2C_Flush_TXDR(hi2c);
 80035fa:	0020      	movs	r0, r4
 80035fc:	f7ff faa8 	bl	8002b50 <I2C_Flush_TXDR>
  __HAL_UNLOCK(hi2c);
 8003600:	2000      	movs	r0, #0
 8003602:	7028      	strb	r0, [r5, #0]
}
 8003604:	bd76      	pop	{r1, r2, r4, r5, r6, pc}
  else if ((I2C_CHECK_FLAG(ITFlags, I2C_FLAG_TXIS) != RESET) && \
 8003606:	2302      	movs	r3, #2
 8003608:	4219      	tst	r1, r3
 800360a:	d008      	beq.n	800361e <I2C_Mem_ISR_DMA+0x56>
 800360c:	421a      	tst	r2, r3
 800360e:	d006      	beq.n	800361e <I2C_Mem_ISR_DMA+0x56>
    hi2c->Instance->TXDR = hi2c->Memaddress;
 8003610:	6823      	ldr	r3, [r4, #0]
 8003612:	6d22      	ldr	r2, [r4, #80]	@ 0x50
 8003614:	629a      	str	r2, [r3, #40]	@ 0x28
    hi2c->Memaddress = 0xFFFFFFFFU;
 8003616:	2301      	movs	r3, #1
 8003618:	425b      	negs	r3, r3
 800361a:	6523      	str	r3, [r4, #80]	@ 0x50
 800361c:	e7f0      	b.n	8003600 <I2C_Mem_ISR_DMA+0x38>
  else if ((I2C_CHECK_FLAG(ITFlags, I2C_FLAG_TCR) != RESET) && \
 800361e:	2640      	movs	r6, #64	@ 0x40
 8003620:	060b      	lsls	r3, r1, #24
 8003622:	d53b      	bpl.n	800369c <I2C_Mem_ISR_DMA+0xd4>
 8003624:	4232      	tst	r2, r6
 8003626:	d039      	beq.n	800369c <I2C_Mem_ISR_DMA+0xd4>
    I2C_Disable_IRQ(hi2c, I2C_XFER_TX_IT);
 8003628:	2101      	movs	r1, #1
 800362a:	0020      	movs	r0, r4
 800362c:	f7ff faf4 	bl	8002c18 <I2C_Disable_IRQ>
    I2C_Enable_IRQ(hi2c, I2C_XFER_ERROR_IT);
 8003630:	2110      	movs	r1, #16
 8003632:	0020      	movs	r0, r4
 8003634:	f7ff fab0 	bl	8002b98 <I2C_Enable_IRQ>
    if (hi2c->XferCount != 0U)
 8003638:	8d63      	ldrh	r3, [r4, #42]	@ 0x2a
 800363a:	2b00      	cmp	r3, #0
 800363c:	d029      	beq.n	8003692 <I2C_Mem_ISR_DMA+0xca>
      if (hi2c->XferCount > MAX_NBYTE_SIZE)
 800363e:	8d63      	ldrh	r3, [r4, #42]	@ 0x2a
 8003640:	2bff      	cmp	r3, #255	@ 0xff
 8003642:	d91b      	bls.n	800367c <I2C_Mem_ISR_DMA+0xb4>
        I2C_TransferConfig(hi2c, (uint16_t)hi2c->Devaddress, (uint8_t)hi2c->XferSize,
 8003644:	2300      	movs	r3, #0
        hi2c->XferSize = MAX_NBYTE_SIZE;
 8003646:	22ff      	movs	r2, #255	@ 0xff
        I2C_TransferConfig(hi2c, (uint16_t)hi2c->Devaddress, (uint8_t)hi2c->XferSize,
 8003648:	6ce1      	ldr	r1, [r4, #76]	@ 0x4c
        hi2c->XferSize = MAX_NBYTE_SIZE;
 800364a:	8522      	strh	r2, [r4, #40]	@ 0x28
        I2C_TransferConfig(hi2c, (uint16_t)hi2c->Devaddress, (uint8_t)hi2c->XferSize,
 800364c:	9300      	str	r3, [sp, #0]
 800364e:	2380      	movs	r3, #128	@ 0x80
 8003650:	b289      	uxth	r1, r1
 8003652:	045b      	lsls	r3, r3, #17
        I2C_TransferConfig(hi2c, (uint16_t)hi2c->Devaddress, (uint8_t)hi2c->XferSize,
 8003654:	0020      	movs	r0, r4
 8003656:	f7ff fa89 	bl	8002b6c <I2C_TransferConfig>
      hi2c->XferCount -= hi2c->XferSize;
 800365a:	8d63      	ldrh	r3, [r4, #42]	@ 0x2a
 800365c:	8d22      	ldrh	r2, [r4, #40]	@ 0x28
 800365e:	1a9b      	subs	r3, r3, r2
 8003660:	b29b      	uxth	r3, r3
 8003662:	8563      	strh	r3, [r4, #42]	@ 0x2a
      if (hi2c->State == HAL_I2C_STATE_BUSY_RX)
 8003664:	0023      	movs	r3, r4
 8003666:	3341      	adds	r3, #65	@ 0x41
 8003668:	781a      	ldrb	r2, [r3, #0]
      hi2c->Instance->CR1 |= I2C_CR1_RXDMAEN;
 800366a:	6823      	ldr	r3, [r4, #0]
 800366c:	6819      	ldr	r1, [r3, #0]
    if (hi2c->State == HAL_I2C_STATE_BUSY_RX)
 800366e:	2a22      	cmp	r2, #34	@ 0x22
 8003670:	d147      	bne.n	8003702 <I2C_Mem_ISR_DMA+0x13a>
      hi2c->Instance->CR1 |= I2C_CR1_RXDMAEN;
 8003672:	2280      	movs	r2, #128	@ 0x80
 8003674:	0212      	lsls	r2, r2, #8
 8003676:	430a      	orrs	r2, r1
 8003678:	601a      	str	r2, [r3, #0]
 800367a:	e7c1      	b.n	8003600 <I2C_Mem_ISR_DMA+0x38>
        I2C_TransferConfig(hi2c, (uint16_t)hi2c->Devaddress, (uint8_t)hi2c->XferSize,
 800367c:	2300      	movs	r3, #0
        hi2c->XferSize = hi2c->XferCount;
 800367e:	8d62      	ldrh	r2, [r4, #42]	@ 0x2a
        I2C_TransferConfig(hi2c, (uint16_t)hi2c->Devaddress, (uint8_t)hi2c->XferSize,
 8003680:	6ce1      	ldr	r1, [r4, #76]	@ 0x4c
        hi2c->XferSize = hi2c->XferCount;
 8003682:	b292      	uxth	r2, r2
 8003684:	8522      	strh	r2, [r4, #40]	@ 0x28
        I2C_TransferConfig(hi2c, (uint16_t)hi2c->Devaddress, (uint8_t)hi2c->XferSize,
 8003686:	9300      	str	r3, [sp, #0]
 8003688:	2380      	movs	r3, #128	@ 0x80
 800368a:	b2d2      	uxtb	r2, r2
 800368c:	b289      	uxth	r1, r1
 800368e:	049b      	lsls	r3, r3, #18
 8003690:	e7e0      	b.n	8003654 <I2C_Mem_ISR_DMA+0x8c>
      I2C_ITError(hi2c, HAL_I2C_ERROR_SIZE);
 8003692:	0031      	movs	r1, r6
 8003694:	0020      	movs	r0, r4
 8003696:	f7ff fe9b 	bl	80033d0 <I2C_ITError>
 800369a:	e7b1      	b.n	8003600 <I2C_Mem_ISR_DMA+0x38>
  else if ((I2C_CHECK_FLAG(ITFlags, I2C_FLAG_TC) != RESET) && \
 800369c:	4231      	tst	r1, r6
 800369e:	d033      	beq.n	8003708 <I2C_Mem_ISR_DMA+0x140>
 80036a0:	4232      	tst	r2, r6
 80036a2:	d031      	beq.n	8003708 <I2C_Mem_ISR_DMA+0x140>
    if (hi2c->State == HAL_I2C_STATE_BUSY_RX)
 80036a4:	0026      	movs	r6, r4
    I2C_Disable_IRQ(hi2c, I2C_XFER_TX_IT);
 80036a6:	2101      	movs	r1, #1
 80036a8:	0020      	movs	r0, r4
 80036aa:	f7ff fab5 	bl	8002c18 <I2C_Disable_IRQ>
    if (hi2c->State == HAL_I2C_STATE_BUSY_RX)
 80036ae:	3641      	adds	r6, #65	@ 0x41
    I2C_Enable_IRQ(hi2c, I2C_XFER_ERROR_IT);
 80036b0:	2110      	movs	r1, #16
 80036b2:	0020      	movs	r0, r4
 80036b4:	f7ff fa70 	bl	8002b98 <I2C_Enable_IRQ>
    if (hi2c->State == HAL_I2C_STATE_BUSY_RX)
 80036b8:	7833      	ldrb	r3, [r6, #0]
  uint32_t direction = I2C_GENERATE_START_WRITE;
 80036ba:	3b22      	subs	r3, #34	@ 0x22
 80036bc:	425a      	negs	r2, r3
 80036be:	4153      	adcs	r3, r2
 80036c0:	4a17      	ldr	r2, [pc, #92]	@ (8003720 <I2C_Mem_ISR_DMA+0x158>)
 80036c2:	029b      	lsls	r3, r3, #10
 80036c4:	189b      	adds	r3, r3, r2
    if (hi2c->XferCount > MAX_NBYTE_SIZE)
 80036c6:	8d62      	ldrh	r2, [r4, #42]	@ 0x2a
 80036c8:	2aff      	cmp	r2, #255	@ 0xff
 80036ca:	d910      	bls.n	80036ee <I2C_Mem_ISR_DMA+0x126>
      hi2c->XferSize = MAX_NBYTE_SIZE;
 80036cc:	22ff      	movs	r2, #255	@ 0xff
      I2C_TransferConfig(hi2c, (uint16_t)hi2c->Devaddress, (uint8_t)hi2c->XferSize,
 80036ce:	6ce1      	ldr	r1, [r4, #76]	@ 0x4c
      hi2c->XferSize = MAX_NBYTE_SIZE;
 80036d0:	8522      	strh	r2, [r4, #40]	@ 0x28
      I2C_TransferConfig(hi2c, (uint16_t)hi2c->Devaddress, (uint8_t)hi2c->XferSize,
 80036d2:	9300      	str	r3, [sp, #0]
 80036d4:	2380      	movs	r3, #128	@ 0x80
 80036d6:	b289      	uxth	r1, r1
 80036d8:	045b      	lsls	r3, r3, #17
      I2C_TransferConfig(hi2c, (uint16_t)hi2c->Devaddress, (uint8_t)hi2c->XferSize,
 80036da:	0020      	movs	r0, r4
 80036dc:	f7ff fa46 	bl	8002b6c <I2C_TransferConfig>
    hi2c->XferCount -= hi2c->XferSize;
 80036e0:	8d63      	ldrh	r3, [r4, #42]	@ 0x2a
 80036e2:	8d22      	ldrh	r2, [r4, #40]	@ 0x28
 80036e4:	1a9b      	subs	r3, r3, r2
 80036e6:	b29b      	uxth	r3, r3
 80036e8:	8563      	strh	r3, [r4, #42]	@ 0x2a
    if (hi2c->State == HAL_I2C_STATE_BUSY_RX)
 80036ea:	7832      	ldrb	r2, [r6, #0]
 80036ec:	e7bd      	b.n	800366a <I2C_Mem_ISR_DMA+0xa2>
      hi2c->XferSize = hi2c->XferCount;
 80036ee:	8d62      	ldrh	r2, [r4, #42]	@ 0x2a
      I2C_TransferConfig(hi2c, (uint16_t)hi2c->Devaddress, (uint8_t)hi2c->XferSize,
 80036f0:	6ce1      	ldr	r1, [r4, #76]	@ 0x4c
      hi2c->XferSize = hi2c->XferCount;
 80036f2:	b292      	uxth	r2, r2
 80036f4:	8522      	strh	r2, [r4, #40]	@ 0x28
      I2C_TransferConfig(hi2c, (uint16_t)hi2c->Devaddress, (uint8_t)hi2c->XferSize,
 80036f6:	9300      	str	r3, [sp, #0]
 80036f8:	2380      	movs	r3, #128	@ 0x80
 80036fa:	b2d2      	uxtb	r2, r2
 80036fc:	b289      	uxth	r1, r1
 80036fe:	049b      	lsls	r3, r3, #18
 8003700:	e7eb      	b.n	80036da <I2C_Mem_ISR_DMA+0x112>
      hi2c->Instance->CR1 |= I2C_CR1_TXDMAEN;
 8003702:	2280      	movs	r2, #128	@ 0x80
 8003704:	01d2      	lsls	r2, r2, #7
 8003706:	e7b6      	b.n	8003676 <I2C_Mem_ISR_DMA+0xae>
  else if ((I2C_CHECK_FLAG(ITFlags, I2C_FLAG_STOPF) != RESET) && \
 8003708:	2320      	movs	r3, #32
 800370a:	4219      	tst	r1, r3
 800370c:	d100      	bne.n	8003710 <I2C_Mem_ISR_DMA+0x148>
 800370e:	e777      	b.n	8003600 <I2C_Mem_ISR_DMA+0x38>
 8003710:	421a      	tst	r2, r3
 8003712:	d100      	bne.n	8003716 <I2C_Mem_ISR_DMA+0x14e>
 8003714:	e774      	b.n	8003600 <I2C_Mem_ISR_DMA+0x38>
    I2C_ITMasterCplt(hi2c, ITFlags);
 8003716:	0020      	movs	r0, r4
 8003718:	f7ff fee4 	bl	80034e4 <I2C_ITMasterCplt>
 800371c:	e770      	b.n	8003600 <I2C_Mem_ISR_DMA+0x38>
 800371e:	46c0      	nop			@ (mov r8, r8)
 8003720:	80002000 	.word	0x80002000

08003724 <I2C_Master_ISR_DMA>:
{
 8003724:	b5f7      	push	{r0, r1, r2, r4, r5, r6, r7, lr}
  __HAL_LOCK(hi2c);
 8003726:	0006      	movs	r6, r0
 8003728:	3640      	adds	r6, #64	@ 0x40
 800372a:	7833      	ldrb	r3, [r6, #0]
{
 800372c:	0004      	movs	r4, r0
  __HAL_LOCK(hi2c);
 800372e:	2002      	movs	r0, #2
 8003730:	2b01      	cmp	r3, #1
 8003732:	d015      	beq.n	8003760 <I2C_Master_ISR_DMA+0x3c>
 8003734:	2301      	movs	r3, #1
 8003736:	7033      	strb	r3, [r6, #0]
  if ((I2C_CHECK_FLAG(ITFlags, I2C_FLAG_AF) != RESET) && \
 8003738:	330f      	adds	r3, #15
 800373a:	4219      	tst	r1, r3
 800373c:	d011      	beq.n	8003762 <I2C_Master_ISR_DMA+0x3e>
 800373e:	421a      	tst	r2, r3
 8003740:	d00f      	beq.n	8003762 <I2C_Master_ISR_DMA+0x3e>
    __HAL_I2C_CLEAR_FLAG(hi2c, I2C_FLAG_AF);
 8003742:	6822      	ldr	r2, [r4, #0]
    I2C_Enable_IRQ(hi2c, I2C_XFER_CPLT_IT);
 8003744:	0020      	movs	r0, r4
    __HAL_I2C_CLEAR_FLAG(hi2c, I2C_FLAG_AF);
 8003746:	61d3      	str	r3, [r2, #28]
    hi2c->ErrorCode |= HAL_I2C_ERROR_AF;
 8003748:	6c62      	ldr	r2, [r4, #68]	@ 0x44
 800374a:	3b0c      	subs	r3, #12
 800374c:	4313      	orrs	r3, r2
    I2C_Enable_IRQ(hi2c, I2C_XFER_CPLT_IT);
 800374e:	2120      	movs	r1, #32
    hi2c->ErrorCode |= HAL_I2C_ERROR_AF;
 8003750:	6463      	str	r3, [r4, #68]	@ 0x44
    I2C_Enable_IRQ(hi2c, I2C_XFER_CPLT_IT);
 8003752:	f7ff fa21 	bl	8002b98 <I2C_Enable_IRQ>
    I2C_Flush_TXDR(hi2c);
 8003756:	0020      	movs	r0, r4
 8003758:	f7ff f9fa 	bl	8002b50 <I2C_Flush_TXDR>
  __HAL_UNLOCK(hi2c);
 800375c:	2000      	movs	r0, #0
 800375e:	7030      	strb	r0, [r6, #0]
}
 8003760:	bdfe      	pop	{r1, r2, r3, r4, r5, r6, r7, pc}
  else if ((I2C_CHECK_FLAG(ITFlags, I2C_FLAG_TCR) != RESET) && \
 8003762:	2340      	movs	r3, #64	@ 0x40
 8003764:	0608      	lsls	r0, r1, #24
 8003766:	d541      	bpl.n	80037ec <I2C_Master_ISR_DMA+0xc8>
 8003768:	421a      	tst	r2, r3
 800376a:	d03f      	beq.n	80037ec <I2C_Master_ISR_DMA+0xc8>
    __HAL_I2C_DISABLE_IT(hi2c, I2C_IT_TCI);
 800376c:	6825      	ldr	r5, [r4, #0]
 800376e:	682a      	ldr	r2, [r5, #0]
 8003770:	439a      	bics	r2, r3
 8003772:	602a      	str	r2, [r5, #0]
    if (hi2c->XferCount != 0U)
 8003774:	8d63      	ldrh	r3, [r4, #42]	@ 0x2a
 8003776:	2b00      	cmp	r3, #0
 8003778:	d02c      	beq.n	80037d4 <I2C_Master_ISR_DMA+0xb0>
      devaddress = (uint16_t)(hi2c->Instance->CR2 & I2C_CR2_SADD);
 800377a:	6869      	ldr	r1, [r5, #4]
      if (hi2c->XferCount > MAX_NBYTE_SIZE)
 800377c:	8d63      	ldrh	r3, [r4, #42]	@ 0x2a
      devaddress = (uint16_t)(hi2c->Instance->CR2 & I2C_CR2_SADD);
 800377e:	0589      	lsls	r1, r1, #22
 8003780:	0d89      	lsrs	r1, r1, #22
      if (hi2c->XferCount > MAX_NBYTE_SIZE)
 8003782:	2bff      	cmp	r3, #255	@ 0xff
 8003784:	d918      	bls.n	80037b8 <I2C_Master_ISR_DMA+0x94>
        hi2c->XferSize = MAX_NBYTE_SIZE;
 8003786:	23ff      	movs	r3, #255	@ 0xff
 8003788:	8523      	strh	r3, [r4, #40]	@ 0x28
        xfermode = I2C_RELOAD_MODE;
 800378a:	2380      	movs	r3, #128	@ 0x80
 800378c:	045b      	lsls	r3, r3, #17
      I2C_TransferConfig(hi2c, devaddress, (uint8_t)hi2c->XferSize, xfermode, I2C_NO_STARTSTOP);
 800378e:	2000      	movs	r0, #0
 8003790:	8d27      	ldrh	r7, [r4, #40]	@ 0x28
 8003792:	9000      	str	r0, [sp, #0]
 8003794:	b2fa      	uxtb	r2, r7
 8003796:	0020      	movs	r0, r4
 8003798:	f7ff f9e8 	bl	8002b6c <I2C_TransferConfig>
      hi2c->XferCount -= hi2c->XferSize;
 800379c:	8d63      	ldrh	r3, [r4, #42]	@ 0x2a
 800379e:	1bdb      	subs	r3, r3, r7
 80037a0:	b29b      	uxth	r3, r3
 80037a2:	8563      	strh	r3, [r4, #42]	@ 0x2a
      if (hi2c->State == HAL_I2C_STATE_BUSY_RX)
 80037a4:	3441      	adds	r4, #65	@ 0x41
 80037a6:	7823      	ldrb	r3, [r4, #0]
        hi2c->Instance->CR1 |= I2C_CR1_RXDMAEN;
 80037a8:	682a      	ldr	r2, [r5, #0]
      if (hi2c->State == HAL_I2C_STATE_BUSY_RX)
 80037aa:	2b22      	cmp	r3, #34	@ 0x22
 80037ac:	d10f      	bne.n	80037ce <I2C_Master_ISR_DMA+0xaa>
        hi2c->Instance->CR1 |= I2C_CR1_RXDMAEN;
 80037ae:	2380      	movs	r3, #128	@ 0x80
 80037b0:	021b      	lsls	r3, r3, #8
        hi2c->Instance->CR1 |= I2C_CR1_TXDMAEN;
 80037b2:	4313      	orrs	r3, r2
 80037b4:	602b      	str	r3, [r5, #0]
 80037b6:	e7d1      	b.n	800375c <I2C_Master_ISR_DMA+0x38>
        hi2c->XferSize = hi2c->XferCount;
 80037b8:	8d63      	ldrh	r3, [r4, #42]	@ 0x2a
        if (hi2c->XferOptions != I2C_NO_OPTION_FRAME)
 80037ba:	6ae2      	ldr	r2, [r4, #44]	@ 0x2c
        hi2c->XferSize = hi2c->XferCount;
 80037bc:	8523      	strh	r3, [r4, #40]	@ 0x28
        if (hi2c->XferOptions != I2C_NO_OPTION_FRAME)
 80037be:	4b1a      	ldr	r3, [pc, #104]	@ (8003828 <I2C_Master_ISR_DMA+0x104>)
 80037c0:	429a      	cmp	r2, r3
 80037c2:	d001      	beq.n	80037c8 <I2C_Master_ISR_DMA+0xa4>
          xfermode = hi2c->XferOptions;
 80037c4:	6ae3      	ldr	r3, [r4, #44]	@ 0x2c
 80037c6:	e7e2      	b.n	800378e <I2C_Master_ISR_DMA+0x6a>
          xfermode = I2C_AUTOEND_MODE;
 80037c8:	2380      	movs	r3, #128	@ 0x80
 80037ca:	049b      	lsls	r3, r3, #18
 80037cc:	e7df      	b.n	800378e <I2C_Master_ISR_DMA+0x6a>
        hi2c->Instance->CR1 |= I2C_CR1_TXDMAEN;
 80037ce:	2380      	movs	r3, #128	@ 0x80
 80037d0:	01db      	lsls	r3, r3, #7
 80037d2:	e7ee      	b.n	80037b2 <I2C_Master_ISR_DMA+0x8e>
      if (I2C_GET_STOP_MODE(hi2c) != I2C_AUTOEND_MODE)
 80037d4:	686b      	ldr	r3, [r5, #4]
 80037d6:	019b      	lsls	r3, r3, #6
 80037d8:	d403      	bmi.n	80037e2 <I2C_Master_ISR_DMA+0xbe>
        I2C_ITMasterSeqCplt(hi2c);
 80037da:	0020      	movs	r0, r4
 80037dc:	f7ff fcf3 	bl	80031c6 <I2C_ITMasterSeqCplt>
 80037e0:	e7bc      	b.n	800375c <I2C_Master_ISR_DMA+0x38>
        I2C_ITError(hi2c, HAL_I2C_ERROR_SIZE);
 80037e2:	2140      	movs	r1, #64	@ 0x40
 80037e4:	0020      	movs	r0, r4
 80037e6:	f7ff fdf3 	bl	80033d0 <I2C_ITError>
 80037ea:	e7b7      	b.n	800375c <I2C_Master_ISR_DMA+0x38>
  else if ((I2C_CHECK_FLAG(ITFlags, I2C_FLAG_TC) != RESET) && \
 80037ec:	4219      	tst	r1, r3
 80037ee:	d012      	beq.n	8003816 <I2C_Master_ISR_DMA+0xf2>
 80037f0:	421a      	tst	r2, r3
 80037f2:	d010      	beq.n	8003816 <I2C_Master_ISR_DMA+0xf2>
    if (hi2c->XferCount == 0U)
 80037f4:	8d63      	ldrh	r3, [r4, #42]	@ 0x2a
 80037f6:	2b00      	cmp	r3, #0
 80037f8:	d1f3      	bne.n	80037e2 <I2C_Master_ISR_DMA+0xbe>
      if (I2C_GET_STOP_MODE(hi2c) != I2C_AUTOEND_MODE)
 80037fa:	6822      	ldr	r2, [r4, #0]
 80037fc:	6853      	ldr	r3, [r2, #4]
 80037fe:	019b      	lsls	r3, r3, #6
 8003800:	d4ac      	bmi.n	800375c <I2C_Master_ISR_DMA+0x38>
        if (hi2c->XferOptions == I2C_NO_OPTION_FRAME)
 8003802:	6ae1      	ldr	r1, [r4, #44]	@ 0x2c
 8003804:	4b08      	ldr	r3, [pc, #32]	@ (8003828 <I2C_Master_ISR_DMA+0x104>)
 8003806:	4299      	cmp	r1, r3
 8003808:	d1e7      	bne.n	80037da <I2C_Master_ISR_DMA+0xb6>
          hi2c->Instance->CR2 |= I2C_CR2_STOP;
 800380a:	2380      	movs	r3, #128	@ 0x80
 800380c:	6851      	ldr	r1, [r2, #4]
 800380e:	01db      	lsls	r3, r3, #7
 8003810:	430b      	orrs	r3, r1
 8003812:	6053      	str	r3, [r2, #4]
 8003814:	e7a2      	b.n	800375c <I2C_Master_ISR_DMA+0x38>
  else if ((I2C_CHECK_FLAG(ITFlags, I2C_FLAG_STOPF) != RESET) && \
 8003816:	2320      	movs	r3, #32
 8003818:	4219      	tst	r1, r3
 800381a:	d09f      	beq.n	800375c <I2C_Master_ISR_DMA+0x38>
 800381c:	421a      	tst	r2, r3
 800381e:	d09d      	beq.n	800375c <I2C_Master_ISR_DMA+0x38>
    I2C_ITMasterCplt(hi2c, ITFlags);
 8003820:	0020      	movs	r0, r4
 8003822:	f7ff fe5f 	bl	80034e4 <I2C_ITMasterCplt>
 8003826:	e799      	b.n	800375c <I2C_Master_ISR_DMA+0x38>
 8003828:	ffff0000 	.word	0xffff0000

0800382c <I2C_Mem_ISR_IT>:
{
 800382c:	b5f7      	push	{r0, r1, r2, r4, r5, r6, r7, lr}
  __HAL_LOCK(hi2c);
 800382e:	0007      	movs	r7, r0
 8003830:	3740      	adds	r7, #64	@ 0x40
 8003832:	783b      	ldrb	r3, [r7, #0]
{
 8003834:	0004      	movs	r4, r0
 8003836:	000d      	movs	r5, r1
 8003838:	0016      	movs	r6, r2
  __HAL_LOCK(hi2c);
 800383a:	2002      	movs	r0, #2
 800383c:	2b01      	cmp	r3, #1
 800383e:	d01a      	beq.n	8003876 <I2C_Mem_ISR_IT+0x4a>
 8003840:	2301      	movs	r3, #1
 8003842:	703b      	strb	r3, [r7, #0]
  if ((I2C_CHECK_FLAG(tmpITFlags, I2C_FLAG_AF) != RESET) && \
 8003844:	330f      	adds	r3, #15
 8003846:	4219      	tst	r1, r3
 8003848:	d016      	beq.n	8003878 <I2C_Mem_ISR_IT+0x4c>
 800384a:	421a      	tst	r2, r3
 800384c:	d014      	beq.n	8003878 <I2C_Mem_ISR_IT+0x4c>
    __HAL_I2C_CLEAR_FLAG(hi2c, I2C_FLAG_AF);
 800384e:	6822      	ldr	r2, [r4, #0]
    I2C_Flush_TXDR(hi2c);
 8003850:	0020      	movs	r0, r4
    __HAL_I2C_CLEAR_FLAG(hi2c, I2C_FLAG_AF);
 8003852:	61d3      	str	r3, [r2, #28]
    hi2c->ErrorCode |= HAL_I2C_ERROR_AF;
 8003854:	6c62      	ldr	r2, [r4, #68]	@ 0x44
 8003856:	3b0c      	subs	r3, #12
 8003858:	4313      	orrs	r3, r2
 800385a:	6463      	str	r3, [r4, #68]	@ 0x44
    I2C_Flush_TXDR(hi2c);
 800385c:	f7ff f978 	bl	8002b50 <I2C_Flush_TXDR>
  if ((I2C_CHECK_FLAG(tmpITFlags, I2C_FLAG_STOPF) != RESET) && \
 8003860:	2320      	movs	r3, #32
 8003862:	421d      	tst	r5, r3
 8003864:	d005      	beq.n	8003872 <I2C_Mem_ISR_IT+0x46>
 8003866:	421e      	tst	r6, r3
 8003868:	d003      	beq.n	8003872 <I2C_Mem_ISR_IT+0x46>
    I2C_ITMasterCplt(hi2c, tmpITFlags);
 800386a:	0029      	movs	r1, r5
 800386c:	0020      	movs	r0, r4
 800386e:	f7ff fe39 	bl	80034e4 <I2C_ITMasterCplt>
  __HAL_UNLOCK(hi2c);
 8003872:	2000      	movs	r0, #0
 8003874:	7038      	strb	r0, [r7, #0]
}
 8003876:	bdfe      	pop	{r1, r2, r3, r4, r5, r6, r7, pc}
  else if ((I2C_CHECK_FLAG(tmpITFlags, I2C_FLAG_RXNE) != RESET) && \
 8003878:	2304      	movs	r3, #4
 800387a:	421d      	tst	r5, r3
 800387c:	d011      	beq.n	80038a2 <I2C_Mem_ISR_IT+0x76>
 800387e:	421e      	tst	r6, r3
 8003880:	d00f      	beq.n	80038a2 <I2C_Mem_ISR_IT+0x76>
    tmpITFlags &= ~I2C_FLAG_RXNE;
 8003882:	439d      	bics	r5, r3
    *hi2c->pBuffPtr = (uint8_t)hi2c->Instance->RXDR;
 8003884:	6823      	ldr	r3, [r4, #0]
 8003886:	6a5a      	ldr	r2, [r3, #36]	@ 0x24
 8003888:	6a63      	ldr	r3, [r4, #36]	@ 0x24
 800388a:	701a      	strb	r2, [r3, #0]
    hi2c->pBuffPtr++;
 800388c:	6a63      	ldr	r3, [r4, #36]	@ 0x24
      hi2c->pBuffPtr++;
 800388e:	3301      	adds	r3, #1
 8003890:	6263      	str	r3, [r4, #36]	@ 0x24
      hi2c->XferSize--;
 8003892:	8d23      	ldrh	r3, [r4, #40]	@ 0x28
 8003894:	3b01      	subs	r3, #1
 8003896:	8523      	strh	r3, [r4, #40]	@ 0x28
      hi2c->XferCount--;
 8003898:	8d63      	ldrh	r3, [r4, #42]	@ 0x2a
 800389a:	3b01      	subs	r3, #1
 800389c:	b29b      	uxth	r3, r3
 800389e:	8563      	strh	r3, [r4, #42]	@ 0x2a
 80038a0:	e7de      	b.n	8003860 <I2C_Mem_ISR_IT+0x34>
  else if ((I2C_CHECK_FLAG(tmpITFlags, I2C_FLAG_TXIS) != RESET) && \
 80038a2:	2302      	movs	r3, #2
 80038a4:	421d      	tst	r5, r3
 80038a6:	d00f      	beq.n	80038c8 <I2C_Mem_ISR_IT+0x9c>
 80038a8:	421e      	tst	r6, r3
 80038aa:	d00d      	beq.n	80038c8 <I2C_Mem_ISR_IT+0x9c>
    if (hi2c->Memaddress == 0xFFFFFFFFU)
 80038ac:	6d23      	ldr	r3, [r4, #80]	@ 0x50
    __HAL_I2C_CLEAR_FLAG(hi2c, I2C_FLAG_AF);
 80038ae:	6822      	ldr	r2, [r4, #0]
    if (hi2c->Memaddress == 0xFFFFFFFFU)
 80038b0:	3301      	adds	r3, #1
 80038b2:	d103      	bne.n	80038bc <I2C_Mem_ISR_IT+0x90>
      hi2c->Instance->TXDR = *hi2c->pBuffPtr;
 80038b4:	6a63      	ldr	r3, [r4, #36]	@ 0x24
 80038b6:	7819      	ldrb	r1, [r3, #0]
 80038b8:	6291      	str	r1, [r2, #40]	@ 0x28
 80038ba:	e7e8      	b.n	800388e <I2C_Mem_ISR_IT+0x62>
      hi2c->Instance->TXDR = hi2c->Memaddress;
 80038bc:	6d23      	ldr	r3, [r4, #80]	@ 0x50
 80038be:	6293      	str	r3, [r2, #40]	@ 0x28
      hi2c->Memaddress = 0xFFFFFFFFU;
 80038c0:	2301      	movs	r3, #1
 80038c2:	425b      	negs	r3, r3
 80038c4:	6523      	str	r3, [r4, #80]	@ 0x50
 80038c6:	e7cb      	b.n	8003860 <I2C_Mem_ISR_IT+0x34>
  else if ((I2C_CHECK_FLAG(tmpITFlags, I2C_FLAG_TCR) != RESET) && \
 80038c8:	2340      	movs	r3, #64	@ 0x40
 80038ca:	062a      	lsls	r2, r5, #24
 80038cc:	d51a      	bpl.n	8003904 <I2C_Mem_ISR_IT+0xd8>
 80038ce:	421e      	tst	r6, r3
 80038d0:	d018      	beq.n	8003904 <I2C_Mem_ISR_IT+0xd8>
    if ((hi2c->XferCount != 0U) && (hi2c->XferSize == 0U))
 80038d2:	8d63      	ldrh	r3, [r4, #42]	@ 0x2a
 80038d4:	2b00      	cmp	r3, #0
 80038d6:	d010      	beq.n	80038fa <I2C_Mem_ISR_IT+0xce>
 80038d8:	8d23      	ldrh	r3, [r4, #40]	@ 0x28
 80038da:	2b00      	cmp	r3, #0
 80038dc:	d10d      	bne.n	80038fa <I2C_Mem_ISR_IT+0xce>
    if (hi2c->XferCount > MAX_NBYTE_SIZE)
 80038de:	8d62      	ldrh	r2, [r4, #42]	@ 0x2a
 80038e0:	2aff      	cmp	r2, #255	@ 0xff
 80038e2:	d925      	bls.n	8003930 <I2C_Mem_ISR_IT+0x104>
      hi2c->XferSize = MAX_NBYTE_SIZE;
 80038e4:	22ff      	movs	r2, #255	@ 0xff
      I2C_TransferConfig(hi2c, (uint16_t)hi2c->Devaddress, (uint8_t)hi2c->XferSize,
 80038e6:	6ce1      	ldr	r1, [r4, #76]	@ 0x4c
      hi2c->XferSize = MAX_NBYTE_SIZE;
 80038e8:	8522      	strh	r2, [r4, #40]	@ 0x28
      I2C_TransferConfig(hi2c, (uint16_t)hi2c->Devaddress, (uint8_t)hi2c->XferSize,
 80038ea:	9300      	str	r3, [sp, #0]
 80038ec:	2380      	movs	r3, #128	@ 0x80
 80038ee:	b289      	uxth	r1, r1
 80038f0:	045b      	lsls	r3, r3, #17
      I2C_TransferConfig(hi2c, (uint16_t)hi2c->Devaddress, (uint8_t)hi2c->XferSize,
 80038f2:	0020      	movs	r0, r4
 80038f4:	f7ff f93a 	bl	8002b6c <I2C_TransferConfig>
 80038f8:	e7b2      	b.n	8003860 <I2C_Mem_ISR_IT+0x34>
      I2C_ITError(hi2c, HAL_I2C_ERROR_SIZE);
 80038fa:	2140      	movs	r1, #64	@ 0x40
 80038fc:	0020      	movs	r0, r4
 80038fe:	f7ff fd67 	bl	80033d0 <I2C_ITError>
 8003902:	e7ad      	b.n	8003860 <I2C_Mem_ISR_IT+0x34>
  else if ((I2C_CHECK_FLAG(tmpITFlags, I2C_FLAG_TC) != RESET) && \
 8003904:	421d      	tst	r5, r3
 8003906:	d0ab      	beq.n	8003860 <I2C_Mem_ISR_IT+0x34>
 8003908:	421e      	tst	r6, r3
 800390a:	d0a9      	beq.n	8003860 <I2C_Mem_ISR_IT+0x34>
    I2C_Disable_IRQ(hi2c, I2C_XFER_TX_IT);
 800390c:	2101      	movs	r1, #1
 800390e:	0020      	movs	r0, r4
 8003910:	f7ff f982 	bl	8002c18 <I2C_Disable_IRQ>
    I2C_Enable_IRQ(hi2c, I2C_XFER_RX_IT);
 8003914:	2102      	movs	r1, #2
 8003916:	0020      	movs	r0, r4
 8003918:	f7ff f93e 	bl	8002b98 <I2C_Enable_IRQ>
    if (hi2c->State == HAL_I2C_STATE_BUSY_RX)
 800391c:	0023      	movs	r3, r4
 800391e:	3341      	adds	r3, #65	@ 0x41
 8003920:	781b      	ldrb	r3, [r3, #0]
  uint32_t direction = I2C_GENERATE_START_WRITE;
 8003922:	3b22      	subs	r3, #34	@ 0x22
 8003924:	425a      	negs	r2, r3
 8003926:	4153      	adcs	r3, r2
 8003928:	4a06      	ldr	r2, [pc, #24]	@ (8003944 <I2C_Mem_ISR_IT+0x118>)
 800392a:	029b      	lsls	r3, r3, #10
 800392c:	189b      	adds	r3, r3, r2
 800392e:	e7d6      	b.n	80038de <I2C_Mem_ISR_IT+0xb2>
      hi2c->XferSize = hi2c->XferCount;
 8003930:	8d62      	ldrh	r2, [r4, #42]	@ 0x2a
      I2C_TransferConfig(hi2c, (uint16_t)hi2c->Devaddress, (uint8_t)hi2c->XferSize,
 8003932:	6ce1      	ldr	r1, [r4, #76]	@ 0x4c
      hi2c->XferSize = hi2c->XferCount;
 8003934:	b292      	uxth	r2, r2
 8003936:	8522      	strh	r2, [r4, #40]	@ 0x28
      I2C_TransferConfig(hi2c, (uint16_t)hi2c->Devaddress, (uint8_t)hi2c->XferSize,
 8003938:	9300      	str	r3, [sp, #0]
 800393a:	2380      	movs	r3, #128	@ 0x80
 800393c:	b2d2      	uxtb	r2, r2
 800393e:	b289      	uxth	r1, r1
 8003940:	049b      	lsls	r3, r3, #18
 8003942:	e7d6      	b.n	80038f2 <I2C_Mem_ISR_IT+0xc6>
 8003944:	80002000 	.word	0x80002000

08003948 <HAL_I2C_ER_IRQHandler>:
{
 8003948:	b570      	push	{r4, r5, r6, lr}
  if ((I2C_CHECK_FLAG(itflags, I2C_FLAG_BERR) != RESET) && \
 800394a:	2580      	movs	r5, #128	@ 0x80
  uint32_t itflags   = READ_REG(hi2c->Instance->ISR);
 800394c:	6803      	ldr	r3, [r0, #0]
  if ((I2C_CHECK_FLAG(itflags, I2C_FLAG_BERR) != RESET) && \
 800394e:	006d      	lsls	r5, r5, #1
  uint32_t itflags   = READ_REG(hi2c->Instance->ISR);
 8003950:	6999      	ldr	r1, [r3, #24]
  uint32_t itsources = READ_REG(hi2c->Instance->CR1);
 8003952:	681a      	ldr	r2, [r3, #0]
  if ((I2C_CHECK_FLAG(itflags, I2C_FLAG_BERR) != RESET) && \
 8003954:	4229      	tst	r1, r5
 8003956:	d006      	beq.n	8003966 <HAL_I2C_ER_IRQHandler+0x1e>
 8003958:	0614      	lsls	r4, r2, #24
 800395a:	d504      	bpl.n	8003966 <HAL_I2C_ER_IRQHandler+0x1e>
    hi2c->ErrorCode |= HAL_I2C_ERROR_BERR;
 800395c:	2401      	movs	r4, #1
 800395e:	6c46      	ldr	r6, [r0, #68]	@ 0x44
 8003960:	4334      	orrs	r4, r6
 8003962:	6444      	str	r4, [r0, #68]	@ 0x44
    __HAL_I2C_CLEAR_FLAG(hi2c, I2C_FLAG_BERR);
 8003964:	61dd      	str	r5, [r3, #28]
  if ((I2C_CHECK_FLAG(itflags, I2C_FLAG_OVR) != RESET) && \
 8003966:	2580      	movs	r5, #128	@ 0x80
 8003968:	00ed      	lsls	r5, r5, #3
 800396a:	4229      	tst	r1, r5
 800396c:	d006      	beq.n	800397c <HAL_I2C_ER_IRQHandler+0x34>
 800396e:	0614      	lsls	r4, r2, #24
 8003970:	d504      	bpl.n	800397c <HAL_I2C_ER_IRQHandler+0x34>
    hi2c->ErrorCode |= HAL_I2C_ERROR_OVR;
 8003972:	2408      	movs	r4, #8
 8003974:	6c46      	ldr	r6, [r0, #68]	@ 0x44
 8003976:	4334      	orrs	r4, r6
 8003978:	6444      	str	r4, [r0, #68]	@ 0x44
    __HAL_I2C_CLEAR_FLAG(hi2c, I2C_FLAG_OVR);
 800397a:	61dd      	str	r5, [r3, #28]
  if ((I2C_CHECK_FLAG(itflags, I2C_FLAG_ARLO) != RESET) && \
 800397c:	2480      	movs	r4, #128	@ 0x80
 800397e:	00a4      	lsls	r4, r4, #2
 8003980:	4221      	tst	r1, r4
 8003982:	d006      	beq.n	8003992 <HAL_I2C_ER_IRQHandler+0x4a>
 8003984:	0612      	lsls	r2, r2, #24
 8003986:	d504      	bpl.n	8003992 <HAL_I2C_ER_IRQHandler+0x4a>
    hi2c->ErrorCode |= HAL_I2C_ERROR_ARLO;
 8003988:	2202      	movs	r2, #2
 800398a:	6c41      	ldr	r1, [r0, #68]	@ 0x44
 800398c:	430a      	orrs	r2, r1
 800398e:	6442      	str	r2, [r0, #68]	@ 0x44
    __HAL_I2C_CLEAR_FLAG(hi2c, I2C_FLAG_ARLO);
 8003990:	61dc      	str	r4, [r3, #28]
  if ((tmperror & (HAL_I2C_ERROR_BERR | HAL_I2C_ERROR_OVR | HAL_I2C_ERROR_ARLO)) !=  HAL_I2C_ERROR_NONE)
 8003992:	230b      	movs	r3, #11
  tmperror = hi2c->ErrorCode;
 8003994:	6c41      	ldr	r1, [r0, #68]	@ 0x44
  if ((tmperror & (HAL_I2C_ERROR_BERR | HAL_I2C_ERROR_OVR | HAL_I2C_ERROR_ARLO)) !=  HAL_I2C_ERROR_NONE)
 8003996:	4219      	tst	r1, r3
 8003998:	d001      	beq.n	800399e <HAL_I2C_ER_IRQHandler+0x56>
    I2C_ITError(hi2c, tmperror);
 800399a:	f7ff fd19 	bl	80033d0 <I2C_ITError>
}
 800399e:	bd70      	pop	{r4, r5, r6, pc}

080039a0 <I2C_ITSlaveCplt.constprop.0>:
static void I2C_ITSlaveCplt(I2C_HandleTypeDef *hi2c, uint32_t ITFlags)
 80039a0:	b5f7      	push	{r0, r1, r2, r4, r5, r6, r7, lr}
  uint32_t tmpcr1value = READ_REG(hi2c->Instance->CR1);
 80039a2:	6805      	ldr	r5, [r0, #0]
  HAL_I2C_StateTypeDef tmpstate = hi2c->State;
 80039a4:	0006      	movs	r6, r0
  uint32_t tmpcr1value = READ_REG(hi2c->Instance->CR1);
 80039a6:	682b      	ldr	r3, [r5, #0]
  HAL_I2C_StateTypeDef tmpstate = hi2c->State;
 80039a8:	3641      	adds	r6, #65	@ 0x41
  uint32_t tmpcr1value = READ_REG(hi2c->Instance->CR1);
 80039aa:	9300      	str	r3, [sp, #0]
  uint32_t tmpoptions = hi2c->XferOptions;
 80039ac:	6ac3      	ldr	r3, [r0, #44]	@ 0x2c
static void I2C_ITSlaveCplt(I2C_HandleTypeDef *hi2c, uint32_t ITFlags)
 80039ae:	0004      	movs	r4, r0
  uint32_t tmpoptions = hi2c->XferOptions;
 80039b0:	9301      	str	r3, [sp, #4]
  __HAL_I2C_CLEAR_FLAG(hi2c, I2C_FLAG_STOPF);
 80039b2:	2320      	movs	r3, #32
  HAL_I2C_StateTypeDef tmpstate = hi2c->State;
 80039b4:	7830      	ldrb	r0, [r6, #0]
static void I2C_ITSlaveCplt(I2C_HandleTypeDef *hi2c, uint32_t ITFlags)
 80039b6:	000f      	movs	r7, r1
  __HAL_I2C_CLEAR_FLAG(hi2c, I2C_FLAG_STOPF);
 80039b8:	3821      	subs	r0, #33	@ 0x21
 80039ba:	61eb      	str	r3, [r5, #28]
  if ((tmpstate == HAL_I2C_STATE_BUSY_TX) || (tmpstate == HAL_I2C_STATE_BUSY_TX_LISTEN))
 80039bc:	2809      	cmp	r0, #9
 80039be:	d80c      	bhi.n	80039da <I2C_ITSlaveCplt.constprop.0+0x3a>
 80039c0:	f7fc fb9e 	bl	8000100 <__gnu_thumb1_case_uqi>
 80039c4:	0b0b6805 	.word	0x0b0b6805
 80039c8:	6e0b0b0b 	.word	0x6e0b0b0b
 80039cc:	6805      	.short	0x6805
    I2C_Disable_IRQ(hi2c, I2C_XFER_LISTEN_IT | I2C_XFER_TX_IT);
 80039ce:	0020      	movs	r0, r4
 80039d0:	495d      	ldr	r1, [pc, #372]	@ (8003b48 <I2C_ITSlaveCplt.constprop.0+0x1a8>)
 80039d2:	f7ff f921 	bl	8002c18 <I2C_Disable_IRQ>
    hi2c->PreviousState = I2C_STATE_SLAVE_BUSY_TX;
 80039d6:	2321      	movs	r3, #33	@ 0x21
    hi2c->PreviousState = I2C_STATE_NONE;
 80039d8:	6323      	str	r3, [r4, #48]	@ 0x30
  hi2c->Instance->CR2 |= I2C_CR2_NACK;
 80039da:	2280      	movs	r2, #128	@ 0x80
 80039dc:	686b      	ldr	r3, [r5, #4]
 80039de:	0212      	lsls	r2, r2, #8
 80039e0:	4313      	orrs	r3, r2
 80039e2:	606b      	str	r3, [r5, #4]
  I2C_RESET_CR2(hi2c);
 80039e4:	686b      	ldr	r3, [r5, #4]
 80039e6:	4a59      	ldr	r2, [pc, #356]	@ (8003b4c <I2C_ITSlaveCplt.constprop.0+0x1ac>)
  I2C_Flush_TXDR(hi2c);
 80039e8:	0020      	movs	r0, r4
  I2C_RESET_CR2(hi2c);
 80039ea:	4013      	ands	r3, r2
 80039ec:	606b      	str	r3, [r5, #4]
  I2C_Flush_TXDR(hi2c);
 80039ee:	f7ff f8af 	bl	8002b50 <I2C_Flush_TXDR>
  if (I2C_CHECK_IT_SOURCE(tmpcr1value, I2C_CR1_TXDMAEN) != RESET)
 80039f2:	9b00      	ldr	r3, [sp, #0]
 80039f4:	045b      	lsls	r3, r3, #17
 80039f6:	d559      	bpl.n	8003aac <I2C_ITSlaveCplt.constprop.0+0x10c>
    hi2c->Instance->CR1 &= ~I2C_CR1_TXDMAEN;
 80039f8:	682b      	ldr	r3, [r5, #0]
 80039fa:	4a55      	ldr	r2, [pc, #340]	@ (8003b50 <I2C_ITSlaveCplt.constprop.0+0x1b0>)
 80039fc:	4013      	ands	r3, r2
 80039fe:	602b      	str	r3, [r5, #0]
    if (hi2c->hdmatx != NULL)
 8003a00:	6ba3      	ldr	r3, [r4, #56]	@ 0x38
    if (hi2c->hdmarx != NULL)
 8003a02:	2b00      	cmp	r3, #0
 8003a04:	d003      	beq.n	8003a0e <I2C_ITSlaveCplt.constprop.0+0x6e>
      hi2c->XferCount = (uint16_t)I2C_GET_DMA_REMAIN_DATA(hi2c->hdmarx);
 8003a06:	681b      	ldr	r3, [r3, #0]
 8003a08:	685b      	ldr	r3, [r3, #4]
 8003a0a:	b29b      	uxth	r3, r3
 8003a0c:	8563      	strh	r3, [r4, #42]	@ 0x2a
  if (I2C_CHECK_FLAG(tmpITFlags, I2C_FLAG_RXNE) != RESET)
 8003a0e:	2304      	movs	r3, #4
 8003a10:	421f      	tst	r7, r3
 8003a12:	d00f      	beq.n	8003a34 <I2C_ITSlaveCplt.constprop.0+0x94>
    *hi2c->pBuffPtr = (uint8_t)hi2c->Instance->RXDR;
 8003a14:	6a6a      	ldr	r2, [r5, #36]	@ 0x24
    tmpITFlags &= ~I2C_FLAG_RXNE;
 8003a16:	439f      	bics	r7, r3
    *hi2c->pBuffPtr = (uint8_t)hi2c->Instance->RXDR;
 8003a18:	6a63      	ldr	r3, [r4, #36]	@ 0x24
 8003a1a:	701a      	strb	r2, [r3, #0]
    hi2c->pBuffPtr++;
 8003a1c:	6a63      	ldr	r3, [r4, #36]	@ 0x24
 8003a1e:	3301      	adds	r3, #1
 8003a20:	6263      	str	r3, [r4, #36]	@ 0x24
    if (hi2c->XferSize > 0U)
 8003a22:	8d23      	ldrh	r3, [r4, #40]	@ 0x28
 8003a24:	2b00      	cmp	r3, #0
 8003a26:	d005      	beq.n	8003a34 <I2C_ITSlaveCplt.constprop.0+0x94>
      hi2c->XferSize--;
 8003a28:	3b01      	subs	r3, #1
 8003a2a:	8523      	strh	r3, [r4, #40]	@ 0x28
      hi2c->XferCount--;
 8003a2c:	8d63      	ldrh	r3, [r4, #42]	@ 0x2a
 8003a2e:	3b01      	subs	r3, #1
 8003a30:	b29b      	uxth	r3, r3
 8003a32:	8563      	strh	r3, [r4, #42]	@ 0x2a
  if (hi2c->XferCount != 0U)
 8003a34:	8d63      	ldrh	r3, [r4, #42]	@ 0x2a
 8003a36:	2b00      	cmp	r3, #0
 8003a38:	d003      	beq.n	8003a42 <I2C_ITSlaveCplt.constprop.0+0xa2>
    hi2c->ErrorCode |= HAL_I2C_ERROR_AF;
 8003a3a:	2304      	movs	r3, #4
 8003a3c:	6c62      	ldr	r2, [r4, #68]	@ 0x44
 8003a3e:	4313      	orrs	r3, r2
 8003a40:	6463      	str	r3, [r4, #68]	@ 0x44
  if ((I2C_CHECK_FLAG(tmpITFlags, I2C_FLAG_AF) != RESET) && \
 8003a42:	2310      	movs	r3, #16
 8003a44:	421f      	tst	r7, r3
 8003a46:	d011      	beq.n	8003a6c <I2C_ITSlaveCplt.constprop.0+0xcc>
 8003a48:	9a00      	ldr	r2, [sp, #0]
 8003a4a:	421a      	tst	r2, r3
 8003a4c:	d00e      	beq.n	8003a6c <I2C_ITSlaveCplt.constprop.0+0xcc>
    if (hi2c->XferCount == 0U)
 8003a4e:	8d62      	ldrh	r2, [r4, #42]	@ 0x2a
 8003a50:	2a00      	cmp	r2, #0
 8003a52:	d149      	bne.n	8003ae8 <I2C_ITSlaveCplt.constprop.0+0x148>
      if ((hi2c->State == HAL_I2C_STATE_LISTEN) && (tmpoptions == I2C_FIRST_AND_LAST_FRAME))
 8003a54:	7833      	ldrb	r3, [r6, #0]
 8003a56:	2b28      	cmp	r3, #40	@ 0x28
 8003a58:	d133      	bne.n	8003ac2 <I2C_ITSlaveCplt.constprop.0+0x122>
 8003a5a:	2380      	movs	r3, #128	@ 0x80
 8003a5c:	9a01      	ldr	r2, [sp, #4]
 8003a5e:	049b      	lsls	r3, r3, #18
 8003a60:	429a      	cmp	r2, r3
 8003a62:	d12e      	bne.n	8003ac2 <I2C_ITSlaveCplt.constprop.0+0x122>
        I2C_ITListenCplt(hi2c, tmpITFlags);
 8003a64:	0039      	movs	r1, r7
 8003a66:	0020      	movs	r0, r4
 8003a68:	f7ff fc64 	bl	8003334 <I2C_ITListenCplt>
  hi2c->Mode = HAL_I2C_MODE_NONE;
 8003a6c:	0023      	movs	r3, r4
 8003a6e:	2200      	movs	r2, #0
 8003a70:	3342      	adds	r3, #66	@ 0x42
 8003a72:	701a      	strb	r2, [r3, #0]
  if (hi2c->ErrorCode != HAL_I2C_ERROR_NONE)
 8003a74:	6c65      	ldr	r5, [r4, #68]	@ 0x44
  hi2c->XferISR = NULL;
 8003a76:	6362      	str	r2, [r4, #52]	@ 0x34
  if (hi2c->ErrorCode != HAL_I2C_ERROR_NONE)
 8003a78:	4295      	cmp	r5, r2
 8003a7a:	d044      	beq.n	8003b06 <I2C_ITSlaveCplt.constprop.0+0x166>
    I2C_ITError(hi2c, hi2c->ErrorCode);
 8003a7c:	0020      	movs	r0, r4
 8003a7e:	6c61      	ldr	r1, [r4, #68]	@ 0x44
 8003a80:	f7ff fca6 	bl	80033d0 <I2C_ITError>
    if (hi2c->State == HAL_I2C_STATE_LISTEN)
 8003a84:	7833      	ldrb	r3, [r6, #0]
 8003a86:	2b28      	cmp	r3, #40	@ 0x28
 8003a88:	d103      	bne.n	8003a92 <I2C_ITSlaveCplt.constprop.0+0xf2>
      I2C_ITListenCplt(hi2c, tmpITFlags);
 8003a8a:	0039      	movs	r1, r7
 8003a8c:	0020      	movs	r0, r4
 8003a8e:	f7ff fc51 	bl	8003334 <I2C_ITListenCplt>
}
 8003a92:	bdf7      	pop	{r0, r1, r2, r4, r5, r6, r7, pc}
    I2C_Disable_IRQ(hi2c, I2C_XFER_LISTEN_IT | I2C_XFER_RX_IT);
 8003a94:	0020      	movs	r0, r4
 8003a96:	492f      	ldr	r1, [pc, #188]	@ (8003b54 <I2C_ITSlaveCplt.constprop.0+0x1b4>)
 8003a98:	f7ff f8be 	bl	8002c18 <I2C_Disable_IRQ>
    hi2c->PreviousState = I2C_STATE_SLAVE_BUSY_RX;
 8003a9c:	2322      	movs	r3, #34	@ 0x22
 8003a9e:	e79b      	b.n	80039d8 <I2C_ITSlaveCplt.constprop.0+0x38>
    I2C_Disable_IRQ(hi2c, I2C_XFER_LISTEN_IT | I2C_XFER_TX_IT | I2C_XFER_RX_IT);
 8003aa0:	0020      	movs	r0, r4
 8003aa2:	492d      	ldr	r1, [pc, #180]	@ (8003b58 <I2C_ITSlaveCplt.constprop.0+0x1b8>)
 8003aa4:	f7ff f8b8 	bl	8002c18 <I2C_Disable_IRQ>
    hi2c->PreviousState = I2C_STATE_NONE;
 8003aa8:	2300      	movs	r3, #0
 8003aaa:	e795      	b.n	80039d8 <I2C_ITSlaveCplt.constprop.0+0x38>
  else if (I2C_CHECK_IT_SOURCE(tmpcr1value, I2C_CR1_RXDMAEN) != RESET)
 8003aac:	2280      	movs	r2, #128	@ 0x80
 8003aae:	9b00      	ldr	r3, [sp, #0]
 8003ab0:	0212      	lsls	r2, r2, #8
 8003ab2:	4213      	tst	r3, r2
 8003ab4:	d0ab      	beq.n	8003a0e <I2C_ITSlaveCplt.constprop.0+0x6e>
    hi2c->Instance->CR1 &= ~I2C_CR1_RXDMAEN;
 8003ab6:	682b      	ldr	r3, [r5, #0]
 8003ab8:	4a28      	ldr	r2, [pc, #160]	@ (8003b5c <I2C_ITSlaveCplt.constprop.0+0x1bc>)
 8003aba:	4013      	ands	r3, r2
 8003abc:	602b      	str	r3, [r5, #0]
    if (hi2c->hdmarx != NULL)
 8003abe:	6be3      	ldr	r3, [r4, #60]	@ 0x3c
 8003ac0:	e79f      	b.n	8003a02 <I2C_ITSlaveCplt.constprop.0+0x62>
      else if ((hi2c->State == HAL_I2C_STATE_BUSY_TX_LISTEN) && (tmpoptions != I2C_NO_OPTION_FRAME))
 8003ac2:	7831      	ldrb	r1, [r6, #0]
 8003ac4:	2210      	movs	r2, #16
        __HAL_I2C_CLEAR_FLAG(hi2c, I2C_FLAG_AF);
 8003ac6:	6823      	ldr	r3, [r4, #0]
      else if ((hi2c->State == HAL_I2C_STATE_BUSY_TX_LISTEN) && (tmpoptions != I2C_NO_OPTION_FRAME))
 8003ac8:	2929      	cmp	r1, #41	@ 0x29
 8003aca:	d10b      	bne.n	8003ae4 <I2C_ITSlaveCplt.constprop.0+0x144>
 8003acc:	4924      	ldr	r1, [pc, #144]	@ (8003b60 <I2C_ITSlaveCplt.constprop.0+0x1c0>)
 8003ace:	9801      	ldr	r0, [sp, #4]
 8003ad0:	4288      	cmp	r0, r1
 8003ad2:	d007      	beq.n	8003ae4 <I2C_ITSlaveCplt.constprop.0+0x144>
        I2C_Flush_TXDR(hi2c);
 8003ad4:	0020      	movs	r0, r4
        __HAL_I2C_CLEAR_FLAG(hi2c, I2C_FLAG_AF);
 8003ad6:	61da      	str	r2, [r3, #28]
        I2C_Flush_TXDR(hi2c);
 8003ad8:	f7ff f83a 	bl	8002b50 <I2C_Flush_TXDR>
        I2C_ITSlaveSeqCplt(hi2c);
 8003adc:	0020      	movs	r0, r4
 8003ade:	f7ff fb99 	bl	8003214 <I2C_ITSlaveSeqCplt>
 8003ae2:	e7c3      	b.n	8003a6c <I2C_ITSlaveCplt.constprop.0+0xcc>
        __HAL_I2C_CLEAR_FLAG(hi2c, I2C_FLAG_AF);
 8003ae4:	61da      	str	r2, [r3, #28]
 8003ae6:	e7c1      	b.n	8003a6c <I2C_ITSlaveCplt.constprop.0+0xcc>
      __HAL_I2C_CLEAR_FLAG(hi2c, I2C_FLAG_AF);
 8003ae8:	6822      	ldr	r2, [r4, #0]
 8003aea:	61d3      	str	r3, [r2, #28]
      hi2c->ErrorCode |= HAL_I2C_ERROR_AF;
 8003aec:	2304      	movs	r3, #4
 8003aee:	6c62      	ldr	r2, [r4, #68]	@ 0x44
 8003af0:	4313      	orrs	r3, r2
 8003af2:	6463      	str	r3, [r4, #68]	@ 0x44
      if ((tmpoptions == I2C_FIRST_FRAME) || (tmpoptions == I2C_NEXT_FRAME))
 8003af4:	9a01      	ldr	r2, [sp, #4]
 8003af6:	4b1b      	ldr	r3, [pc, #108]	@ (8003b64 <I2C_ITSlaveCplt.constprop.0+0x1c4>)
 8003af8:	421a      	tst	r2, r3
 8003afa:	d1b7      	bne.n	8003a6c <I2C_ITSlaveCplt.constprop.0+0xcc>
        I2C_ITError(hi2c, hi2c->ErrorCode);
 8003afc:	0020      	movs	r0, r4
 8003afe:	6c61      	ldr	r1, [r4, #68]	@ 0x44
 8003b00:	f7ff fc66 	bl	80033d0 <I2C_ITError>
 8003b04:	e7b2      	b.n	8003a6c <I2C_ITSlaveCplt.constprop.0+0xcc>
  else if (hi2c->XferOptions != I2C_NO_OPTION_FRAME)
 8003b06:	0027      	movs	r7, r4
 8003b08:	6ae3      	ldr	r3, [r4, #44]	@ 0x2c
 8003b0a:	4a15      	ldr	r2, [pc, #84]	@ (8003b60 <I2C_ITSlaveCplt.constprop.0+0x1c0>)
 8003b0c:	3740      	adds	r7, #64	@ 0x40
 8003b0e:	4293      	cmp	r3, r2
 8003b10:	d00c      	beq.n	8003b2c <I2C_ITSlaveCplt.constprop.0+0x18c>
    I2C_ITSlaveSeqCplt(hi2c);
 8003b12:	0020      	movs	r0, r4
 8003b14:	f7ff fb7e 	bl	8003214 <I2C_ITSlaveSeqCplt>
    hi2c->State = HAL_I2C_STATE_READY;
 8003b18:	2320      	movs	r3, #32
    hi2c->XferOptions = I2C_NO_OPTION_FRAME;
 8003b1a:	4a11      	ldr	r2, [pc, #68]	@ (8003b60 <I2C_ITSlaveCplt.constprop.0+0x1c0>)
    HAL_I2C_ListenCpltCallback(hi2c);
 8003b1c:	0020      	movs	r0, r4
    hi2c->XferOptions = I2C_NO_OPTION_FRAME;
 8003b1e:	62e2      	str	r2, [r4, #44]	@ 0x2c
    hi2c->State = HAL_I2C_STATE_READY;
 8003b20:	7033      	strb	r3, [r6, #0]
    hi2c->PreviousState = I2C_STATE_NONE;
 8003b22:	6325      	str	r5, [r4, #48]	@ 0x30
    __HAL_UNLOCK(hi2c);
 8003b24:	703d      	strb	r5, [r7, #0]
    HAL_I2C_ListenCpltCallback(hi2c);
 8003b26:	f7ff fc03 	bl	8003330 <HAL_I2C_ListenCpltCallback>
 8003b2a:	e7b2      	b.n	8003a92 <I2C_ITSlaveCplt.constprop.0+0xf2>
  else if (hi2c->State == HAL_I2C_STATE_BUSY_RX)
 8003b2c:	2320      	movs	r3, #32
 8003b2e:	7832      	ldrb	r2, [r6, #0]
    HAL_I2C_SlaveRxCpltCallback(hi2c);
 8003b30:	0020      	movs	r0, r4
    hi2c->State = HAL_I2C_STATE_READY;
 8003b32:	7033      	strb	r3, [r6, #0]
    hi2c->PreviousState = I2C_STATE_NONE;
 8003b34:	6325      	str	r5, [r4, #48]	@ 0x30
    __HAL_UNLOCK(hi2c);
 8003b36:	703d      	strb	r5, [r7, #0]
  else if (hi2c->State == HAL_I2C_STATE_BUSY_RX)
 8003b38:	2a22      	cmp	r2, #34	@ 0x22
 8003b3a:	d102      	bne.n	8003b42 <I2C_ITSlaveCplt.constprop.0+0x1a2>
    HAL_I2C_SlaveRxCpltCallback(hi2c);
 8003b3c:	f7ff fb68 	bl	8003210 <HAL_I2C_SlaveRxCpltCallback>
 8003b40:	e7a7      	b.n	8003a92 <I2C_ITSlaveCplt.constprop.0+0xf2>
    HAL_I2C_SlaveTxCpltCallback(hi2c);
 8003b42:	f7ff fb64 	bl	800320e <HAL_I2C_SlaveTxCpltCallback>
}
 8003b46:	e7a4      	b.n	8003a92 <I2C_ITSlaveCplt.constprop.0+0xf2>
 8003b48:	00008001 	.word	0x00008001
 8003b4c:	fe00e800 	.word	0xfe00e800
 8003b50:	ffffbfff 	.word	0xffffbfff
 8003b54:	00008002 	.word	0x00008002
 8003b58:	00008003 	.word	0x00008003
 8003b5c:	ffff7fff 	.word	0xffff7fff
 8003b60:	ffff0000 	.word	0xffff0000
 8003b64:	feffffff 	.word	0xfeffffff

08003b68 <I2C_Slave_ISR_DMA>:
{
 8003b68:	b5f8      	push	{r3, r4, r5, r6, r7, lr}
  __HAL_LOCK(hi2c);
 8003b6a:	0005      	movs	r5, r0
 8003b6c:	3540      	adds	r5, #64	@ 0x40
 8003b6e:	782e      	ldrb	r6, [r5, #0]
{
 8003b70:	0004      	movs	r4, r0
  uint32_t tmpoptions = hi2c->XferOptions;
 8003b72:	6ac3      	ldr	r3, [r0, #44]	@ 0x2c
  __HAL_LOCK(hi2c);
 8003b74:	2002      	movs	r0, #2
 8003b76:	2e01      	cmp	r6, #1
 8003b78:	d00b      	beq.n	8003b92 <I2C_Slave_ISR_DMA+0x2a>
 8003b7a:	3801      	subs	r0, #1
 8003b7c:	7028      	strb	r0, [r5, #0]
  if ((I2C_CHECK_FLAG(ITFlags, I2C_FLAG_STOPF) != RESET) && \
 8003b7e:	301f      	adds	r0, #31
 8003b80:	4201      	tst	r1, r0
 8003b82:	d007      	beq.n	8003b94 <I2C_Slave_ISR_DMA+0x2c>
 8003b84:	4202      	tst	r2, r0
 8003b86:	d005      	beq.n	8003b94 <I2C_Slave_ISR_DMA+0x2c>
    I2C_ITSlaveCplt(hi2c, ITFlags);
 8003b88:	0020      	movs	r0, r4
 8003b8a:	f7ff ff09 	bl	80039a0 <I2C_ITSlaveCplt.constprop.0>
  __HAL_UNLOCK(hi2c);
 8003b8e:	2000      	movs	r0, #0
 8003b90:	7028      	strb	r0, [r5, #0]
}
 8003b92:	bdf8      	pop	{r3, r4, r5, r6, r7, pc}
  else if ((I2C_CHECK_FLAG(ITFlags, I2C_FLAG_AF) != RESET) && \
 8003b94:	2610      	movs	r6, #16
 8003b96:	4231      	tst	r1, r6
 8003b98:	d05e      	beq.n	8003c58 <I2C_Slave_ISR_DMA+0xf0>
 8003b9a:	4232      	tst	r2, r6
 8003b9c:	d05c      	beq.n	8003c58 <I2C_Slave_ISR_DMA+0xf0>
    if ((I2C_CHECK_IT_SOURCE(ITSources, I2C_CR1_TXDMAEN) != RESET) ||
 8003b9e:	2780      	movs	r7, #128	@ 0x80
 8003ba0:	0450      	lsls	r0, r2, #17
 8003ba2:	023f      	lsls	r7, r7, #8
 8003ba4:	0fc0      	lsrs	r0, r0, #31
 8003ba6:	403a      	ands	r2, r7
 8003ba8:	0007      	movs	r7, r0
 8003baa:	4317      	orrs	r7, r2
 8003bac:	d051      	beq.n	8003c52 <I2C_Slave_ISR_DMA+0xea>
      if (hi2c->hdmarx != NULL)
 8003bae:	6be6      	ldr	r6, [r4, #60]	@ 0x3c
 8003bb0:	2e00      	cmp	r6, #0
 8003bb2:	d01d      	beq.n	8003bf0 <I2C_Slave_ISR_DMA+0x88>
        if (I2C_CHECK_IT_SOURCE(ITSources, I2C_CR1_RXDMAEN) != RESET)
 8003bb4:	2a00      	cmp	r2, #0
 8003bb6:	d003      	beq.n	8003bc0 <I2C_Slave_ISR_DMA+0x58>
          if (I2C_GET_DMA_REMAIN_DATA(hi2c->hdmarx) == 0U)
 8003bb8:	6832      	ldr	r2, [r6, #0]
 8003bba:	6852      	ldr	r2, [r2, #4]
 8003bbc:	4256      	negs	r6, r2
 8003bbe:	4172      	adcs	r2, r6
      if (hi2c->hdmatx != NULL)
 8003bc0:	0026      	movs	r6, r4
 8003bc2:	6ba7      	ldr	r7, [r4, #56]	@ 0x38
 8003bc4:	3641      	adds	r6, #65	@ 0x41
 8003bc6:	2f00      	cmp	r7, #0
 8003bc8:	d005      	beq.n	8003bd6 <I2C_Slave_ISR_DMA+0x6e>
        if (I2C_CHECK_IT_SOURCE(ITSources, I2C_CR1_TXDMAEN) != RESET)
 8003bca:	2800      	cmp	r0, #0
 8003bcc:	d003      	beq.n	8003bd6 <I2C_Slave_ISR_DMA+0x6e>
          if (I2C_GET_DMA_REMAIN_DATA(hi2c->hdmatx) == 0U)
 8003bce:	6838      	ldr	r0, [r7, #0]
 8003bd0:	6840      	ldr	r0, [r0, #4]
 8003bd2:	2800      	cmp	r0, #0
 8003bd4:	d001      	beq.n	8003bda <I2C_Slave_ISR_DMA+0x72>
      if (treatdmanack == 1U)
 8003bd6:	2a01      	cmp	r2, #1
 8003bd8:	d11c      	bne.n	8003c14 <I2C_Slave_ISR_DMA+0xac>
        if ((hi2c->State == HAL_I2C_STATE_LISTEN) && (tmpoptions == I2C_FIRST_AND_LAST_FRAME))
 8003bda:	7832      	ldrb	r2, [r6, #0]
 8003bdc:	2a28      	cmp	r2, #40	@ 0x28
 8003bde:	d109      	bne.n	8003bf4 <I2C_Slave_ISR_DMA+0x8c>
 8003be0:	2280      	movs	r2, #128	@ 0x80
 8003be2:	0492      	lsls	r2, r2, #18
 8003be4:	4293      	cmp	r3, r2
 8003be6:	d105      	bne.n	8003bf4 <I2C_Slave_ISR_DMA+0x8c>
          I2C_ITListenCplt(hi2c, ITFlags);
 8003be8:	0020      	movs	r0, r4
 8003bea:	f7ff fba3 	bl	8003334 <I2C_ITListenCplt>
 8003bee:	e7ce      	b.n	8003b8e <I2C_Slave_ISR_DMA+0x26>
  uint32_t treatdmanack = 0U;
 8003bf0:	0032      	movs	r2, r6
 8003bf2:	e7e5      	b.n	8003bc0 <I2C_Slave_ISR_DMA+0x58>
        else if ((hi2c->State == HAL_I2C_STATE_BUSY_TX_LISTEN) && (tmpoptions != I2C_NO_OPTION_FRAME))
 8003bf4:	2110      	movs	r1, #16
 8003bf6:	7830      	ldrb	r0, [r6, #0]
        __HAL_I2C_CLEAR_FLAG(hi2c, I2C_FLAG_AF);
 8003bf8:	6822      	ldr	r2, [r4, #0]
          __HAL_I2C_CLEAR_FLAG(hi2c, I2C_FLAG_AF);
 8003bfa:	61d1      	str	r1, [r2, #28]
        else if ((hi2c->State == HAL_I2C_STATE_BUSY_TX_LISTEN) && (tmpoptions != I2C_NO_OPTION_FRAME))
 8003bfc:	2829      	cmp	r0, #41	@ 0x29
 8003bfe:	d1c6      	bne.n	8003b8e <I2C_Slave_ISR_DMA+0x26>
 8003c00:	481a      	ldr	r0, [pc, #104]	@ (8003c6c <I2C_Slave_ISR_DMA+0x104>)
 8003c02:	4283      	cmp	r3, r0
 8003c04:	d0c3      	beq.n	8003b8e <I2C_Slave_ISR_DMA+0x26>
          I2C_Flush_TXDR(hi2c);
 8003c06:	0020      	movs	r0, r4
 8003c08:	f7fe ffa2 	bl	8002b50 <I2C_Flush_TXDR>
          I2C_ITSlaveSeqCplt(hi2c);
 8003c0c:	0020      	movs	r0, r4
 8003c0e:	f7ff fb01 	bl	8003214 <I2C_ITSlaveSeqCplt>
 8003c12:	e7bc      	b.n	8003b8e <I2C_Slave_ISR_DMA+0x26>
        __HAL_I2C_CLEAR_FLAG(hi2c, I2C_FLAG_AF);
 8003c14:	2110      	movs	r1, #16
 8003c16:	6822      	ldr	r2, [r4, #0]
 8003c18:	61d1      	str	r1, [r2, #28]
        hi2c->ErrorCode |= HAL_I2C_ERROR_AF;
 8003c1a:	2204      	movs	r2, #4
 8003c1c:	6c61      	ldr	r1, [r4, #68]	@ 0x44
 8003c1e:	430a      	orrs	r2, r1
 8003c20:	6462      	str	r2, [r4, #68]	@ 0x44
        tmpstate = hi2c->State;
 8003c22:	7830      	ldrb	r0, [r6, #0]
        if ((tmpoptions == I2C_FIRST_FRAME) || (tmpoptions == I2C_NEXT_FRAME))
 8003c24:	4a12      	ldr	r2, [pc, #72]	@ (8003c70 <I2C_Slave_ISR_DMA+0x108>)
        tmpstate = hi2c->State;
 8003c26:	b2c0      	uxtb	r0, r0
        if ((tmpoptions == I2C_FIRST_FRAME) || (tmpoptions == I2C_NEXT_FRAME))
 8003c28:	4213      	tst	r3, r2
 8003c2a:	d1b0      	bne.n	8003b8e <I2C_Slave_ISR_DMA+0x26>
          if ((tmpstate == HAL_I2C_STATE_BUSY_TX) || (tmpstate == HAL_I2C_STATE_BUSY_TX_LISTEN))
 8003c2c:	3821      	subs	r0, #33	@ 0x21
 8003c2e:	2809      	cmp	r0, #9
 8003c30:	d808      	bhi.n	8003c44 <I2C_Slave_ISR_DMA+0xdc>
 8003c32:	f7fc fa65 	bl	8000100 <__gnu_thumb1_case_uqi>
 8003c36:	0c05      	.short	0x0c05
 8003c38:	07070707 	.word	0x07070707
 8003c3c:	0c050707 	.word	0x0c050707
            hi2c->PreviousState = I2C_STATE_SLAVE_BUSY_TX;
 8003c40:	2321      	movs	r3, #33	@ 0x21
            hi2c->PreviousState = I2C_STATE_SLAVE_BUSY_RX;
 8003c42:	6323      	str	r3, [r4, #48]	@ 0x30
          I2C_ITError(hi2c, hi2c->ErrorCode);
 8003c44:	0020      	movs	r0, r4
 8003c46:	6c61      	ldr	r1, [r4, #68]	@ 0x44
 8003c48:	f7ff fbc2 	bl	80033d0 <I2C_ITError>
 8003c4c:	e79f      	b.n	8003b8e <I2C_Slave_ISR_DMA+0x26>
            hi2c->PreviousState = I2C_STATE_SLAVE_BUSY_RX;
 8003c4e:	2322      	movs	r3, #34	@ 0x22
 8003c50:	e7f7      	b.n	8003c42 <I2C_Slave_ISR_DMA+0xda>
      __HAL_I2C_CLEAR_FLAG(hi2c, I2C_FLAG_AF);
 8003c52:	6823      	ldr	r3, [r4, #0]
 8003c54:	61de      	str	r6, [r3, #28]
 8003c56:	e79a      	b.n	8003b8e <I2C_Slave_ISR_DMA+0x26>
  else if ((I2C_CHECK_FLAG(ITFlags, I2C_FLAG_ADDR) != RESET) && \
 8003c58:	2308      	movs	r3, #8
 8003c5a:	4219      	tst	r1, r3
 8003c5c:	d097      	beq.n	8003b8e <I2C_Slave_ISR_DMA+0x26>
 8003c5e:	421a      	tst	r2, r3
 8003c60:	d100      	bne.n	8003c64 <I2C_Slave_ISR_DMA+0xfc>
 8003c62:	e794      	b.n	8003b8e <I2C_Slave_ISR_DMA+0x26>
    I2C_ITAddrCplt(hi2c, ITFlags);
 8003c64:	0020      	movs	r0, r4
 8003c66:	f7ff fb16 	bl	8003296 <I2C_ITAddrCplt.constprop.0>
 8003c6a:	e790      	b.n	8003b8e <I2C_Slave_ISR_DMA+0x26>
 8003c6c:	ffff0000 	.word	0xffff0000
 8003c70:	feffffff 	.word	0xfeffffff

08003c74 <I2C_Slave_ISR_IT>:
{
 8003c74:	b570      	push	{r4, r5, r6, lr}
  __HAL_LOCK(hi2c);
 8003c76:	0005      	movs	r5, r0
 8003c78:	3540      	adds	r5, #64	@ 0x40
 8003c7a:	782e      	ldrb	r6, [r5, #0]
{
 8003c7c:	0004      	movs	r4, r0
  uint32_t tmpoptions = hi2c->XferOptions;
 8003c7e:	6ac3      	ldr	r3, [r0, #44]	@ 0x2c
  __HAL_LOCK(hi2c);
 8003c80:	2002      	movs	r0, #2
 8003c82:	2e01      	cmp	r6, #1
 8003c84:	d00b      	beq.n	8003c9e <I2C_Slave_ISR_IT+0x2a>
 8003c86:	3801      	subs	r0, #1
 8003c88:	7028      	strb	r0, [r5, #0]
  if ((I2C_CHECK_FLAG(tmpITFlags, I2C_FLAG_STOPF) != RESET) && \
 8003c8a:	301f      	adds	r0, #31
 8003c8c:	4201      	tst	r1, r0
 8003c8e:	d007      	beq.n	8003ca0 <I2C_Slave_ISR_IT+0x2c>
 8003c90:	4202      	tst	r2, r0
 8003c92:	d005      	beq.n	8003ca0 <I2C_Slave_ISR_IT+0x2c>
    I2C_ITSlaveCplt(hi2c, tmpITFlags);
 8003c94:	0020      	movs	r0, r4
 8003c96:	f7ff fe83 	bl	80039a0 <I2C_ITSlaveCplt.constprop.0>
  __HAL_UNLOCK(hi2c);
 8003c9a:	2000      	movs	r0, #0
 8003c9c:	7028      	strb	r0, [r5, #0]
}
 8003c9e:	bd70      	pop	{r4, r5, r6, pc}
  else if ((I2C_CHECK_FLAG(tmpITFlags, I2C_FLAG_AF) != RESET) && \
 8003ca0:	2010      	movs	r0, #16
 8003ca2:	4201      	tst	r1, r0
 8003ca4:	d02f      	beq.n	8003d06 <I2C_Slave_ISR_IT+0x92>
 8003ca6:	4202      	tst	r2, r0
 8003ca8:	d02d      	beq.n	8003d06 <I2C_Slave_ISR_IT+0x92>
    if (hi2c->XferCount == 0U)
 8003caa:	8d62      	ldrh	r2, [r4, #42]	@ 0x2a
 8003cac:	2a00      	cmp	r2, #0
 8003cae:	d11c      	bne.n	8003cea <I2C_Slave_ISR_IT+0x76>
      if ((hi2c->State == HAL_I2C_STATE_LISTEN) && (tmpoptions == I2C_FIRST_AND_LAST_FRAME))
 8003cb0:	0022      	movs	r2, r4
 8003cb2:	3241      	adds	r2, #65	@ 0x41
 8003cb4:	7810      	ldrb	r0, [r2, #0]
 8003cb6:	2828      	cmp	r0, #40	@ 0x28
 8003cb8:	d107      	bne.n	8003cca <I2C_Slave_ISR_IT+0x56>
 8003cba:	2080      	movs	r0, #128	@ 0x80
 8003cbc:	0480      	lsls	r0, r0, #18
 8003cbe:	4283      	cmp	r3, r0
 8003cc0:	d103      	bne.n	8003cca <I2C_Slave_ISR_IT+0x56>
        I2C_ITListenCplt(hi2c, tmpITFlags);
 8003cc2:	0020      	movs	r0, r4
 8003cc4:	f7ff fb36 	bl	8003334 <I2C_ITListenCplt>
 8003cc8:	e7e7      	b.n	8003c9a <I2C_Slave_ISR_IT+0x26>
      else if ((hi2c->State == HAL_I2C_STATE_BUSY_TX_LISTEN) && (tmpoptions != I2C_NO_OPTION_FRAME))
 8003cca:	2110      	movs	r1, #16
 8003ccc:	7810      	ldrb	r0, [r2, #0]
        __HAL_I2C_CLEAR_FLAG(hi2c, I2C_FLAG_AF);
 8003cce:	6822      	ldr	r2, [r4, #0]
 8003cd0:	61d1      	str	r1, [r2, #28]
      else if ((hi2c->State == HAL_I2C_STATE_BUSY_TX_LISTEN) && (tmpoptions != I2C_NO_OPTION_FRAME))
 8003cd2:	2829      	cmp	r0, #41	@ 0x29
 8003cd4:	d1e1      	bne.n	8003c9a <I2C_Slave_ISR_IT+0x26>
 8003cd6:	482c      	ldr	r0, [pc, #176]	@ (8003d88 <I2C_Slave_ISR_IT+0x114>)
 8003cd8:	4283      	cmp	r3, r0
 8003cda:	d0de      	beq.n	8003c9a <I2C_Slave_ISR_IT+0x26>
        I2C_Flush_TXDR(hi2c);
 8003cdc:	0020      	movs	r0, r4
 8003cde:	f7fe ff37 	bl	8002b50 <I2C_Flush_TXDR>
      I2C_ITSlaveSeqCplt(hi2c);
 8003ce2:	0020      	movs	r0, r4
 8003ce4:	f7ff fa96 	bl	8003214 <I2C_ITSlaveSeqCplt>
 8003ce8:	e7d7      	b.n	8003c9a <I2C_Slave_ISR_IT+0x26>
      __HAL_I2C_CLEAR_FLAG(hi2c, I2C_FLAG_AF);
 8003cea:	6822      	ldr	r2, [r4, #0]
 8003cec:	61d0      	str	r0, [r2, #28]
      hi2c->ErrorCode |= HAL_I2C_ERROR_AF;
 8003cee:	2204      	movs	r2, #4
 8003cf0:	6c61      	ldr	r1, [r4, #68]	@ 0x44
 8003cf2:	430a      	orrs	r2, r1
 8003cf4:	6462      	str	r2, [r4, #68]	@ 0x44
      if ((tmpoptions == I2C_FIRST_FRAME) || (tmpoptions == I2C_NEXT_FRAME))
 8003cf6:	4a25      	ldr	r2, [pc, #148]	@ (8003d8c <I2C_Slave_ISR_IT+0x118>)
 8003cf8:	4213      	tst	r3, r2
 8003cfa:	d1ce      	bne.n	8003c9a <I2C_Slave_ISR_IT+0x26>
        I2C_ITError(hi2c, hi2c->ErrorCode);
 8003cfc:	0020      	movs	r0, r4
 8003cfe:	6c61      	ldr	r1, [r4, #68]	@ 0x44
 8003d00:	f7ff fb66 	bl	80033d0 <I2C_ITError>
 8003d04:	e7c9      	b.n	8003c9a <I2C_Slave_ISR_IT+0x26>
  else if ((I2C_CHECK_FLAG(tmpITFlags, I2C_FLAG_RXNE) != RESET) && \
 8003d06:	2004      	movs	r0, #4
 8003d08:	4201      	tst	r1, r0
 8003d0a:	d019      	beq.n	8003d40 <I2C_Slave_ISR_IT+0xcc>
 8003d0c:	4202      	tst	r2, r0
 8003d0e:	d017      	beq.n	8003d40 <I2C_Slave_ISR_IT+0xcc>
    if (hi2c->XferCount > 0U)
 8003d10:	8d62      	ldrh	r2, [r4, #42]	@ 0x2a
 8003d12:	2a00      	cmp	r2, #0
 8003d14:	d00d      	beq.n	8003d32 <I2C_Slave_ISR_IT+0xbe>
      *hi2c->pBuffPtr = (uint8_t)hi2c->Instance->RXDR;
 8003d16:	6822      	ldr	r2, [r4, #0]
 8003d18:	6a51      	ldr	r1, [r2, #36]	@ 0x24
 8003d1a:	6a62      	ldr	r2, [r4, #36]	@ 0x24
 8003d1c:	7011      	strb	r1, [r2, #0]
      hi2c->pBuffPtr++;
 8003d1e:	6a62      	ldr	r2, [r4, #36]	@ 0x24
 8003d20:	3201      	adds	r2, #1
 8003d22:	6262      	str	r2, [r4, #36]	@ 0x24
      hi2c->XferSize--;
 8003d24:	8d22      	ldrh	r2, [r4, #40]	@ 0x28
 8003d26:	3a01      	subs	r2, #1
 8003d28:	8522      	strh	r2, [r4, #40]	@ 0x28
      hi2c->XferCount--;
 8003d2a:	8d62      	ldrh	r2, [r4, #42]	@ 0x2a
 8003d2c:	3a01      	subs	r2, #1
 8003d2e:	b292      	uxth	r2, r2
 8003d30:	8562      	strh	r2, [r4, #42]	@ 0x2a
    if ((hi2c->XferCount == 0U) && \
 8003d32:	8d62      	ldrh	r2, [r4, #42]	@ 0x2a
 8003d34:	2a00      	cmp	r2, #0
 8003d36:	d1b0      	bne.n	8003c9a <I2C_Slave_ISR_IT+0x26>
 8003d38:	4a13      	ldr	r2, [pc, #76]	@ (8003d88 <I2C_Slave_ISR_IT+0x114>)
 8003d3a:	4293      	cmp	r3, r2
 8003d3c:	d0ad      	beq.n	8003c9a <I2C_Slave_ISR_IT+0x26>
 8003d3e:	e7d0      	b.n	8003ce2 <I2C_Slave_ISR_IT+0x6e>
  else if ((I2C_CHECK_FLAG(tmpITFlags, I2C_FLAG_ADDR) != RESET) && \
 8003d40:	2008      	movs	r0, #8
 8003d42:	4201      	tst	r1, r0
 8003d44:	d005      	beq.n	8003d52 <I2C_Slave_ISR_IT+0xde>
 8003d46:	4202      	tst	r2, r0
 8003d48:	d003      	beq.n	8003d52 <I2C_Slave_ISR_IT+0xde>
    I2C_ITAddrCplt(hi2c, tmpITFlags);
 8003d4a:	0020      	movs	r0, r4
 8003d4c:	f7ff faa3 	bl	8003296 <I2C_ITAddrCplt.constprop.0>
 8003d50:	e7a3      	b.n	8003c9a <I2C_Slave_ISR_IT+0x26>
  else if ((I2C_CHECK_FLAG(tmpITFlags, I2C_FLAG_TXIS) != RESET) && \
 8003d52:	2002      	movs	r0, #2
 8003d54:	4201      	tst	r1, r0
 8003d56:	d0a0      	beq.n	8003c9a <I2C_Slave_ISR_IT+0x26>
 8003d58:	4202      	tst	r2, r0
 8003d5a:	d09e      	beq.n	8003c9a <I2C_Slave_ISR_IT+0x26>
    if (hi2c->XferCount > 0U)
 8003d5c:	8d62      	ldrh	r2, [r4, #42]	@ 0x2a
 8003d5e:	2a00      	cmp	r2, #0
 8003d60:	d00d      	beq.n	8003d7e <I2C_Slave_ISR_IT+0x10a>
      hi2c->Instance->TXDR = *hi2c->pBuffPtr;
 8003d62:	6a63      	ldr	r3, [r4, #36]	@ 0x24
 8003d64:	6822      	ldr	r2, [r4, #0]
 8003d66:	7819      	ldrb	r1, [r3, #0]
      hi2c->pBuffPtr++;
 8003d68:	3301      	adds	r3, #1
      hi2c->Instance->TXDR = *hi2c->pBuffPtr;
 8003d6a:	6291      	str	r1, [r2, #40]	@ 0x28
      hi2c->pBuffPtr++;
 8003d6c:	6263      	str	r3, [r4, #36]	@ 0x24
      hi2c->XferCount--;
 8003d6e:	8d63      	ldrh	r3, [r4, #42]	@ 0x2a
 8003d70:	3b01      	subs	r3, #1
 8003d72:	b29b      	uxth	r3, r3
 8003d74:	8563      	strh	r3, [r4, #42]	@ 0x2a
      hi2c->XferSize--;
 8003d76:	8d23      	ldrh	r3, [r4, #40]	@ 0x28
 8003d78:	3b01      	subs	r3, #1
 8003d7a:	8523      	strh	r3, [r4, #40]	@ 0x28
 8003d7c:	e78d      	b.n	8003c9a <I2C_Slave_ISR_IT+0x26>
      if ((tmpoptions == I2C_NEXT_FRAME) || (tmpoptions == I2C_FIRST_FRAME))
 8003d7e:	4a03      	ldr	r2, [pc, #12]	@ (8003d8c <I2C_Slave_ISR_IT+0x118>)
 8003d80:	4213      	tst	r3, r2
 8003d82:	d000      	beq.n	8003d86 <I2C_Slave_ISR_IT+0x112>
 8003d84:	e789      	b.n	8003c9a <I2C_Slave_ISR_IT+0x26>
 8003d86:	e7ac      	b.n	8003ce2 <I2C_Slave_ISR_IT+0x6e>
 8003d88:	ffff0000 	.word	0xffff0000
 8003d8c:	feffffff 	.word	0xfeffffff

08003d90 <I2C_DMAAbort>:
  I2C_HandleTypeDef *hi2c = (I2C_HandleTypeDef *)(((DMA_HandleTypeDef *)hdma)->Parent);
 8003d90:	6a80      	ldr	r0, [r0, #40]	@ 0x28
{
 8003d92:	b510      	push	{r4, lr}
  if (hi2c->hdmatx != NULL)
 8003d94:	6b83      	ldr	r3, [r0, #56]	@ 0x38
 8003d96:	2b00      	cmp	r3, #0
 8003d98:	d001      	beq.n	8003d9e <I2C_DMAAbort+0xe>
    hi2c->hdmatx->XferAbortCallback = NULL;
 8003d9a:	2200      	movs	r2, #0
 8003d9c:	639a      	str	r2, [r3, #56]	@ 0x38
  if (hi2c->hdmarx != NULL)
 8003d9e:	6bc3      	ldr	r3, [r0, #60]	@ 0x3c
 8003da0:	2b00      	cmp	r3, #0
 8003da2:	d001      	beq.n	8003da8 <I2C_DMAAbort+0x18>
    hi2c->hdmarx->XferAbortCallback = NULL;
 8003da4:	2200      	movs	r2, #0
 8003da6:	639a      	str	r2, [r3, #56]	@ 0x38
  I2C_TreatErrorCallback(hi2c);
 8003da8:	f7ff fafd 	bl	80033a6 <I2C_TreatErrorCallback>
}
 8003dac:	bd10      	pop	{r4, pc}
	...

08003db0 <HAL_I2CEx_ConfigAnalogFilter>:
  *                the configuration information for the specified I2Cx peripheral.
  * @param  AnalogFilter New state of the Analog filter.
  * @retval HAL status
  */
HAL_StatusTypeDef HAL_I2CEx_ConfigAnalogFilter(I2C_HandleTypeDef *hi2c, uint32_t AnalogFilter)
{
 8003db0:	b5f0      	push	{r4, r5, r6, r7, lr}
  /* Check the parameters */
  assert_param(IS_I2C_ALL_INSTANCE(hi2c->Instance));
  assert_param(IS_I2C_ANALOG_FILTER(AnalogFilter));

  if (hi2c->State == HAL_I2C_STATE_READY)
 8003db2:	0004      	movs	r4, r0
 8003db4:	3441      	adds	r4, #65	@ 0x41
 8003db6:	7822      	ldrb	r2, [r4, #0]
{
 8003db8:	0003      	movs	r3, r0
 8003dba:	000f      	movs	r7, r1
  {
    /* Process Locked */
    __HAL_LOCK(hi2c);
 8003dbc:	2002      	movs	r0, #2
  if (hi2c->State == HAL_I2C_STATE_READY)
 8003dbe:	b2d6      	uxtb	r6, r2
 8003dc0:	2a20      	cmp	r2, #32
 8003dc2:	d118      	bne.n	8003df6 <HAL_I2CEx_ConfigAnalogFilter+0x46>
    __HAL_LOCK(hi2c);
 8003dc4:	001d      	movs	r5, r3
 8003dc6:	3540      	adds	r5, #64	@ 0x40
 8003dc8:	782a      	ldrb	r2, [r5, #0]
 8003dca:	2a01      	cmp	r2, #1
 8003dcc:	d013      	beq.n	8003df6 <HAL_I2CEx_ConfigAnalogFilter+0x46>

    hi2c->State = HAL_I2C_STATE_BUSY;
 8003dce:	2224      	movs	r2, #36	@ 0x24
 8003dd0:	7022      	strb	r2, [r4, #0]

    /* Disable the selected I2C peripheral */
    __HAL_I2C_DISABLE(hi2c);
 8003dd2:	681b      	ldr	r3, [r3, #0]
 8003dd4:	3a23      	subs	r2, #35	@ 0x23
 8003dd6:	6819      	ldr	r1, [r3, #0]

    /* Reset I2Cx ANOFF bit */
    hi2c->Instance->CR1 &= ~(I2C_CR1_ANFOFF);
 8003dd8:	4807      	ldr	r0, [pc, #28]	@ (8003df8 <HAL_I2CEx_ConfigAnalogFilter+0x48>)
    __HAL_I2C_DISABLE(hi2c);
 8003dda:	4391      	bics	r1, r2
 8003ddc:	6019      	str	r1, [r3, #0]
    hi2c->Instance->CR1 &= ~(I2C_CR1_ANFOFF);
 8003dde:	6819      	ldr	r1, [r3, #0]
 8003de0:	4001      	ands	r1, r0
    __HAL_I2C_ENABLE(hi2c);

    hi2c->State = HAL_I2C_STATE_READY;

    /* Process Unlocked */
    __HAL_UNLOCK(hi2c);
 8003de2:	2000      	movs	r0, #0
    hi2c->Instance->CR1 &= ~(I2C_CR1_ANFOFF);
 8003de4:	6019      	str	r1, [r3, #0]
    hi2c->Instance->CR1 |= AnalogFilter;
 8003de6:	6819      	ldr	r1, [r3, #0]
 8003de8:	4339      	orrs	r1, r7
 8003dea:	6019      	str	r1, [r3, #0]
    __HAL_I2C_ENABLE(hi2c);
 8003dec:	6819      	ldr	r1, [r3, #0]
 8003dee:	430a      	orrs	r2, r1
 8003df0:	601a      	str	r2, [r3, #0]
    hi2c->State = HAL_I2C_STATE_READY;
 8003df2:	7026      	strb	r6, [r4, #0]
    __HAL_UNLOCK(hi2c);
 8003df4:	7028      	strb	r0, [r5, #0]
  }
  else
  {
    return HAL_BUSY;
  }
}
 8003df6:	bdf0      	pop	{r4, r5, r6, r7, pc}
 8003df8:	ffffefff 	.word	0xffffefff

08003dfc <HAL_I2CEx_ConfigDigitalFilter>:

  /* Check the parameters */
  assert_param(IS_I2C_ALL_INSTANCE(hi2c->Instance));
  assert_param(IS_I2C_DIGITAL_FILTER(DigitalFilter));

  if (hi2c->State == HAL_I2C_STATE_READY)
 8003dfc:	0002      	movs	r2, r0
{
 8003dfe:	b5f0      	push	{r4, r5, r6, r7, lr}
  if (hi2c->State == HAL_I2C_STATE_READY)
 8003e00:	3241      	adds	r2, #65	@ 0x41
 8003e02:	7814      	ldrb	r4, [r2, #0]
{
 8003e04:	0003      	movs	r3, r0
  if (hi2c->State == HAL_I2C_STATE_READY)
 8003e06:	b2e5      	uxtb	r5, r4
  {
    /* Process Locked */
    __HAL_LOCK(hi2c);
 8003e08:	2002      	movs	r0, #2
  if (hi2c->State == HAL_I2C_STATE_READY)
 8003e0a:	2c20      	cmp	r4, #32
 8003e0c:	d117      	bne.n	8003e3e <HAL_I2CEx_ConfigDigitalFilter+0x42>
    __HAL_LOCK(hi2c);
 8003e0e:	001c      	movs	r4, r3
 8003e10:	3440      	adds	r4, #64	@ 0x40
 8003e12:	7826      	ldrb	r6, [r4, #0]
 8003e14:	2e01      	cmp	r6, #1
 8003e16:	d012      	beq.n	8003e3e <HAL_I2CEx_ConfigDigitalFilter+0x42>

    hi2c->State = HAL_I2C_STATE_BUSY;
 8003e18:	3022      	adds	r0, #34	@ 0x22
 8003e1a:	7010      	strb	r0, [r2, #0]

    /* Disable the selected I2C peripheral */
    __HAL_I2C_DISABLE(hi2c);
 8003e1c:	681b      	ldr	r3, [r3, #0]
 8003e1e:	3823      	subs	r0, #35	@ 0x23
 8003e20:	681e      	ldr	r6, [r3, #0]

    /* Get the old register value */
    tmpreg = hi2c->Instance->CR1;

    /* Reset I2Cx DNF bits [11:8] */
    tmpreg &= ~(I2C_CR1_DNF);
 8003e22:	4f07      	ldr	r7, [pc, #28]	@ (8003e40 <HAL_I2CEx_ConfigDigitalFilter+0x44>)
    __HAL_I2C_DISABLE(hi2c);
 8003e24:	4386      	bics	r6, r0
 8003e26:	601e      	str	r6, [r3, #0]
    tmpreg = hi2c->Instance->CR1;
 8003e28:	681e      	ldr	r6, [r3, #0]

    /* Set I2Cx DNF coefficient */
    tmpreg |= DigitalFilter << 8U;
 8003e2a:	0209      	lsls	r1, r1, #8
    tmpreg &= ~(I2C_CR1_DNF);
 8003e2c:	403e      	ands	r6, r7
    tmpreg |= DigitalFilter << 8U;
 8003e2e:	4331      	orrs	r1, r6

    /* Store the new register value */
    hi2c->Instance->CR1 = tmpreg;
 8003e30:	6019      	str	r1, [r3, #0]

    __HAL_I2C_ENABLE(hi2c);
 8003e32:	6819      	ldr	r1, [r3, #0]
 8003e34:	4308      	orrs	r0, r1
 8003e36:	6018      	str	r0, [r3, #0]

    hi2c->State = HAL_I2C_STATE_READY;

    /* Process Unlocked */
    __HAL_UNLOCK(hi2c);
 8003e38:	2000      	movs	r0, #0
    hi2c->State = HAL_I2C_STATE_READY;
 8003e3a:	7015      	strb	r5, [r2, #0]
    __HAL_UNLOCK(hi2c);
 8003e3c:	7020      	strb	r0, [r4, #0]
  }
  else
  {
    return HAL_BUSY;
  }
}
 8003e3e:	bdf0      	pop	{r4, r5, r6, r7, pc}
 8003e40:	fffff0ff 	.word	0xfffff0ff

08003e44 <HAL_PWREx_ControlVoltageScaling>:
  *        cleared before returning the status. If the flag is not cleared within
  *        6 microseconds, HAL_TIMEOUT status is reported.
  * @retval HAL Status
  */
HAL_StatusTypeDef HAL_PWREx_ControlVoltageScaling(uint32_t VoltageScaling)
{
 8003e44:	b510      	push	{r4, lr}
  uint32_t wait_loop_index;

  assert_param(IS_PWR_VOLTAGE_SCALING_RANGE(VoltageScaling));

  /* Modify voltage scaling range */
  MODIFY_REG(PWR->CR1, PWR_CR1_VOS, VoltageScaling);
 8003e46:	4c11      	ldr	r4, [pc, #68]	@ (8003e8c <HAL_PWREx_ControlVoltageScaling+0x48>)
 8003e48:	4911      	ldr	r1, [pc, #68]	@ (8003e90 <HAL_PWREx_ControlVoltageScaling+0x4c>)
 8003e4a:	6823      	ldr	r3, [r4, #0]
{
 8003e4c:	0002      	movs	r2, r0
  MODIFY_REG(PWR->CR1, PWR_CR1_VOS, VoltageScaling);
 8003e4e:	400b      	ands	r3, r1
 8003e50:	4303      	orrs	r3, r0
 8003e52:	6023      	str	r3, [r4, #0]

  /* In case of Range 1 selected, we need to ensure that main regulator reaches new value */
  if (VoltageScaling == PWR_REGULATOR_VOLTAGE_SCALE1)
 8003e54:	2380      	movs	r3, #128	@ 0x80
        return HAL_TIMEOUT;
      }
    }
  }

  return HAL_OK;
 8003e56:	2000      	movs	r0, #0
  if (VoltageScaling == PWR_REGULATOR_VOLTAGE_SCALE1)
 8003e58:	009b      	lsls	r3, r3, #2
 8003e5a:	429a      	cmp	r2, r3
 8003e5c:	d10e      	bne.n	8003e7c <HAL_PWREx_ControlVoltageScaling+0x38>
    wait_loop_index = ((PWR_VOSF_SETTING_DELAY_6_US * SystemCoreClock) / 1000000U) + 1U;
 8003e5e:	4b0d      	ldr	r3, [pc, #52]	@ (8003e94 <HAL_PWREx_ControlVoltageScaling+0x50>)
 8003e60:	490d      	ldr	r1, [pc, #52]	@ (8003e98 <HAL_PWREx_ControlVoltageScaling+0x54>)
 8003e62:	6818      	ldr	r0, [r3, #0]
 8003e64:	2306      	movs	r3, #6
 8003e66:	4358      	muls	r0, r3
 8003e68:	f7fc f954 	bl	8000114 <__udivsi3>
    while (HAL_IS_BIT_SET(PWR->SR2, PWR_SR2_VOSF))
 8003e6c:	2280      	movs	r2, #128	@ 0x80
    wait_loop_index = ((PWR_VOSF_SETTING_DELAY_6_US * SystemCoreClock) / 1000000U) + 1U;
 8003e6e:	1c43      	adds	r3, r0, #1
    while (HAL_IS_BIT_SET(PWR->SR2, PWR_SR2_VOSF))
 8003e70:	00d2      	lsls	r2, r2, #3
 8003e72:	6961      	ldr	r1, [r4, #20]
 8003e74:	0008      	movs	r0, r1
 8003e76:	4010      	ands	r0, r2
 8003e78:	4211      	tst	r1, r2
 8003e7a:	d100      	bne.n	8003e7e <HAL_PWREx_ControlVoltageScaling+0x3a>
}
 8003e7c:	bd10      	pop	{r4, pc}
      if (wait_loop_index != 0U)
 8003e7e:	2b00      	cmp	r3, #0
 8003e80:	d001      	beq.n	8003e86 <HAL_PWREx_ControlVoltageScaling+0x42>
        wait_loop_index--;
 8003e82:	3b01      	subs	r3, #1
 8003e84:	e7f5      	b.n	8003e72 <HAL_PWREx_ControlVoltageScaling+0x2e>
        return HAL_TIMEOUT;
 8003e86:	2003      	movs	r0, #3
 8003e88:	e7f8      	b.n	8003e7c <HAL_PWREx_ControlVoltageScaling+0x38>
 8003e8a:	46c0      	nop			@ (mov r8, r8)
 8003e8c:	40007000 	.word	0x40007000
 8003e90:	fffff9ff 	.word	0xfffff9ff
 8003e94:	2000000c 	.word	0x2000000c
 8003e98:	000f4240 	.word	0x000f4240

08003e9c <HAL_RCC_OscConfig>:
  *         supported by this function. User should request a transition to LSE Off
  *         first and then to LSE On or LSE Bypass.
  * @retval HAL status
  */
HAL_StatusTypeDef HAL_RCC_OscConfig(const RCC_OscInitTypeDef  *RCC_OscInitStruct)
{
 8003e9c:	b5f0      	push	{r4, r5, r6, r7, lr}
 8003e9e:	0004      	movs	r4, r0
 8003ea0:	b085      	sub	sp, #20
  uint32_t tickstart;
  uint32_t temp_sysclksrc;
  uint32_t temp_pllckcfg;

  /* Check Null pointer */
  if (RCC_OscInitStruct == NULL)
 8003ea2:	2800      	cmp	r0, #0
 8003ea4:	d102      	bne.n	8003eac <HAL_RCC_OscConfig+0x10>
  {
    return HAL_ERROR;
 8003ea6:	2001      	movs	r0, #1
        }
      }
    }
  }
  return HAL_OK;
}
 8003ea8:	b005      	add	sp, #20
 8003eaa:	bdf0      	pop	{r4, r5, r6, r7, pc}
  if (((RCC_OscInitStruct->OscillatorType) & RCC_OSCILLATORTYPE_HSE) == RCC_OSCILLATORTYPE_HSE)
 8003eac:	6803      	ldr	r3, [r0, #0]
 8003eae:	07db      	lsls	r3, r3, #31
 8003eb0:	d410      	bmi.n	8003ed4 <HAL_RCC_OscConfig+0x38>
  if (((RCC_OscInitStruct->OscillatorType) & RCC_OSCILLATORTYPE_HSI) == RCC_OSCILLATORTYPE_HSI)
 8003eb2:	6823      	ldr	r3, [r4, #0]
 8003eb4:	079b      	lsls	r3, r3, #30
 8003eb6:	d45c      	bmi.n	8003f72 <HAL_RCC_OscConfig+0xd6>
  if (((RCC_OscInitStruct->OscillatorType) & RCC_OSCILLATORTYPE_LSI) == RCC_OSCILLATORTYPE_LSI)
 8003eb8:	6823      	ldr	r3, [r4, #0]
 8003eba:	071b      	lsls	r3, r3, #28
 8003ebc:	d500      	bpl.n	8003ec0 <HAL_RCC_OscConfig+0x24>
 8003ebe:	e0c1      	b.n	8004044 <HAL_RCC_OscConfig+0x1a8>
  if (((RCC_OscInitStruct->OscillatorType) & RCC_OSCILLATORTYPE_LSE) == RCC_OSCILLATORTYPE_LSE)
 8003ec0:	6823      	ldr	r3, [r4, #0]
 8003ec2:	075b      	lsls	r3, r3, #29
 8003ec4:	d500      	bpl.n	8003ec8 <HAL_RCC_OscConfig+0x2c>
 8003ec6:	e0f2      	b.n	80040ae <HAL_RCC_OscConfig+0x212>
  if (RCC_OscInitStruct->PLL.PLLState != RCC_PLL_NONE)
 8003ec8:	69e3      	ldr	r3, [r4, #28]
 8003eca:	2b00      	cmp	r3, #0
 8003ecc:	d000      	beq.n	8003ed0 <HAL_RCC_OscConfig+0x34>
 8003ece:	e179      	b.n	80041c4 <HAL_RCC_OscConfig+0x328>
  return HAL_OK;
 8003ed0:	2000      	movs	r0, #0
 8003ed2:	e7e9      	b.n	8003ea8 <HAL_RCC_OscConfig+0xc>
    temp_sysclksrc = __HAL_RCC_GET_SYSCLK_SOURCE();
 8003ed4:	2238      	movs	r2, #56	@ 0x38
 8003ed6:	4daf      	ldr	r5, [pc, #700]	@ (8004194 <HAL_RCC_OscConfig+0x2f8>)
 8003ed8:	68ab      	ldr	r3, [r5, #8]
 8003eda:	4013      	ands	r3, r2
    temp_pllckcfg = __HAL_RCC_GET_PLL_OSCSOURCE();
 8003edc:	68ea      	ldr	r2, [r5, #12]
    if (((temp_sysclksrc == RCC_SYSCLKSOURCE_STATUS_PLLCLK) && (temp_pllckcfg == RCC_PLLSOURCE_HSE))
 8003ede:	2b10      	cmp	r3, #16
 8003ee0:	d109      	bne.n	8003ef6 <HAL_RCC_OscConfig+0x5a>
    temp_pllckcfg = __HAL_RCC_GET_PLL_OSCSOURCE();
 8003ee2:	43d3      	mvns	r3, r2
    if (((temp_sysclksrc == RCC_SYSCLKSOURCE_STATUS_PLLCLK) && (temp_pllckcfg == RCC_PLLSOURCE_HSE))
 8003ee4:	079b      	lsls	r3, r3, #30
 8003ee6:	d108      	bne.n	8003efa <HAL_RCC_OscConfig+0x5e>
      if ((READ_BIT(RCC->CR, RCC_CR_HSERDY) != 0U) && (RCC_OscInitStruct->HSEState == RCC_HSE_OFF))
 8003ee8:	682b      	ldr	r3, [r5, #0]
 8003eea:	039b      	lsls	r3, r3, #14
 8003eec:	d5e1      	bpl.n	8003eb2 <HAL_RCC_OscConfig+0x16>
 8003eee:	6863      	ldr	r3, [r4, #4]
 8003ef0:	2b00      	cmp	r3, #0
 8003ef2:	d1de      	bne.n	8003eb2 <HAL_RCC_OscConfig+0x16>
 8003ef4:	e7d7      	b.n	8003ea6 <HAL_RCC_OscConfig+0xa>
        || (temp_sysclksrc == RCC_SYSCLKSOURCE_STATUS_HSE))
 8003ef6:	2b08      	cmp	r3, #8
 8003ef8:	d0f6      	beq.n	8003ee8 <HAL_RCC_OscConfig+0x4c>
      __HAL_RCC_HSE_CONFIG(RCC_OscInitStruct->HSEState);
 8003efa:	2280      	movs	r2, #128	@ 0x80
 8003efc:	6863      	ldr	r3, [r4, #4]
 8003efe:	0252      	lsls	r2, r2, #9
 8003f00:	4293      	cmp	r3, r2
 8003f02:	d111      	bne.n	8003f28 <HAL_RCC_OscConfig+0x8c>
 8003f04:	682a      	ldr	r2, [r5, #0]
 8003f06:	4313      	orrs	r3, r2
 8003f08:	602b      	str	r3, [r5, #0]
        tickstart = HAL_GetTick();
 8003f0a:	f7fe f919 	bl	8002140 <HAL_GetTick>
        while (READ_BIT(RCC->CR, RCC_CR_HSERDY) == 0U)
 8003f0e:	2780      	movs	r7, #128	@ 0x80
        tickstart = HAL_GetTick();
 8003f10:	0006      	movs	r6, r0
        while (READ_BIT(RCC->CR, RCC_CR_HSERDY) == 0U)
 8003f12:	02bf      	lsls	r7, r7, #10
 8003f14:	682b      	ldr	r3, [r5, #0]
 8003f16:	423b      	tst	r3, r7
 8003f18:	d1cb      	bne.n	8003eb2 <HAL_RCC_OscConfig+0x16>
          if ((HAL_GetTick() - tickstart) > HSE_TIMEOUT_VALUE)
 8003f1a:	f7fe f911 	bl	8002140 <HAL_GetTick>
 8003f1e:	1b80      	subs	r0, r0, r6
 8003f20:	2864      	cmp	r0, #100	@ 0x64
 8003f22:	d9f7      	bls.n	8003f14 <HAL_RCC_OscConfig+0x78>
            return HAL_TIMEOUT;
 8003f24:	2003      	movs	r0, #3
 8003f26:	e7bf      	b.n	8003ea8 <HAL_RCC_OscConfig+0xc>
      __HAL_RCC_HSE_CONFIG(RCC_OscInitStruct->HSEState);
 8003f28:	21a0      	movs	r1, #160	@ 0xa0
 8003f2a:	02c9      	lsls	r1, r1, #11
 8003f2c:	428b      	cmp	r3, r1
 8003f2e:	d108      	bne.n	8003f42 <HAL_RCC_OscConfig+0xa6>
 8003f30:	2380      	movs	r3, #128	@ 0x80
 8003f32:	6829      	ldr	r1, [r5, #0]
 8003f34:	02db      	lsls	r3, r3, #11
 8003f36:	430b      	orrs	r3, r1
 8003f38:	602b      	str	r3, [r5, #0]
 8003f3a:	682b      	ldr	r3, [r5, #0]
 8003f3c:	431a      	orrs	r2, r3
 8003f3e:	602a      	str	r2, [r5, #0]
      if (RCC_OscInitStruct->HSEState != RCC_HSE_OFF)
 8003f40:	e7e3      	b.n	8003f0a <HAL_RCC_OscConfig+0x6e>
      __HAL_RCC_HSE_CONFIG(RCC_OscInitStruct->HSEState);
 8003f42:	682a      	ldr	r2, [r5, #0]
 8003f44:	4994      	ldr	r1, [pc, #592]	@ (8004198 <HAL_RCC_OscConfig+0x2fc>)
 8003f46:	400a      	ands	r2, r1
 8003f48:	602a      	str	r2, [r5, #0]
 8003f4a:	682a      	ldr	r2, [r5, #0]
 8003f4c:	4993      	ldr	r1, [pc, #588]	@ (800419c <HAL_RCC_OscConfig+0x300>)
 8003f4e:	400a      	ands	r2, r1
 8003f50:	602a      	str	r2, [r5, #0]
      if (RCC_OscInitStruct->HSEState != RCC_HSE_OFF)
 8003f52:	2b00      	cmp	r3, #0
 8003f54:	d1d9      	bne.n	8003f0a <HAL_RCC_OscConfig+0x6e>
        tickstart = HAL_GetTick();
 8003f56:	f7fe f8f3 	bl	8002140 <HAL_GetTick>
        while (READ_BIT(RCC->CR, RCC_CR_HSERDY) != 0U)
 8003f5a:	2780      	movs	r7, #128	@ 0x80
        tickstart = HAL_GetTick();
 8003f5c:	0006      	movs	r6, r0
        while (READ_BIT(RCC->CR, RCC_CR_HSERDY) != 0U)
 8003f5e:	02bf      	lsls	r7, r7, #10
 8003f60:	682b      	ldr	r3, [r5, #0]
 8003f62:	423b      	tst	r3, r7
 8003f64:	d0a5      	beq.n	8003eb2 <HAL_RCC_OscConfig+0x16>
          if ((HAL_GetTick() - tickstart) > HSE_TIMEOUT_VALUE)
 8003f66:	f7fe f8eb 	bl	8002140 <HAL_GetTick>
 8003f6a:	1b80      	subs	r0, r0, r6
 8003f6c:	2864      	cmp	r0, #100	@ 0x64
 8003f6e:	d9f7      	bls.n	8003f60 <HAL_RCC_OscConfig+0xc4>
 8003f70:	e7d8      	b.n	8003f24 <HAL_RCC_OscConfig+0x88>
    temp_sysclksrc = __HAL_RCC_GET_SYSCLK_SOURCE();
 8003f72:	2238      	movs	r2, #56	@ 0x38
 8003f74:	4d87      	ldr	r5, [pc, #540]	@ (8004194 <HAL_RCC_OscConfig+0x2f8>)
 8003f76:	68ab      	ldr	r3, [r5, #8]
 8003f78:	4013      	ands	r3, r2
    temp_pllckcfg = __HAL_RCC_GET_PLL_OSCSOURCE();
 8003f7a:	68ea      	ldr	r2, [r5, #12]
    if (((temp_sysclksrc == RCC_SYSCLKSOURCE_STATUS_PLLCLK) && (temp_pllckcfg == RCC_PLLSOURCE_HSI))
 8003f7c:	2b10      	cmp	r3, #16
 8003f7e:	d128      	bne.n	8003fd2 <HAL_RCC_OscConfig+0x136>
    temp_pllckcfg = __HAL_RCC_GET_PLL_OSCSOURCE();
 8003f80:	2103      	movs	r1, #3
 8003f82:	400a      	ands	r2, r1
    if (((temp_sysclksrc == RCC_SYSCLKSOURCE_STATUS_PLLCLK) && (temp_pllckcfg == RCC_PLLSOURCE_HSI))
 8003f84:	2a02      	cmp	r2, #2
 8003f86:	d126      	bne.n	8003fd6 <HAL_RCC_OscConfig+0x13a>
      if ((READ_BIT(RCC->CR, RCC_CR_HSIRDY) != 0U) && (RCC_OscInitStruct->HSIState == RCC_HSI_OFF))
 8003f88:	682a      	ldr	r2, [r5, #0]
 8003f8a:	0552      	lsls	r2, r2, #21
 8003f8c:	d503      	bpl.n	8003f96 <HAL_RCC_OscConfig+0xfa>
 8003f8e:	68e2      	ldr	r2, [r4, #12]
 8003f90:	2a00      	cmp	r2, #0
 8003f92:	d100      	bne.n	8003f96 <HAL_RCC_OscConfig+0xfa>
 8003f94:	e787      	b.n	8003ea6 <HAL_RCC_OscConfig+0xa>
        __HAL_RCC_HSI_CALIBRATIONVALUE_ADJUST(RCC_OscInitStruct->HSICalibrationValue);
 8003f96:	6869      	ldr	r1, [r5, #4]
 8003f98:	6962      	ldr	r2, [r4, #20]
 8003f9a:	4881      	ldr	r0, [pc, #516]	@ (80041a0 <HAL_RCC_OscConfig+0x304>)
 8003f9c:	0212      	lsls	r2, r2, #8
 8003f9e:	4001      	ands	r1, r0
 8003fa0:	430a      	orrs	r2, r1
 8003fa2:	606a      	str	r2, [r5, #4]
        if (temp_sysclksrc == RCC_SYSCLKSOURCE_STATUS_HSI)
 8003fa4:	2b00      	cmp	r3, #0
 8003fa6:	d10c      	bne.n	8003fc2 <HAL_RCC_OscConfig+0x126>
          __HAL_RCC_HSI_CONFIG(RCC_OscInitStruct->HSIDiv);
 8003fa8:	682b      	ldr	r3, [r5, #0]
 8003faa:	4a7e      	ldr	r2, [pc, #504]	@ (80041a4 <HAL_RCC_OscConfig+0x308>)
          SystemCoreClock = (HSI_VALUE / (1UL << ((READ_BIT(RCC->CR, RCC_CR_HSIDIV)) >> RCC_CR_HSIDIV_Pos)));
 8003fac:	497e      	ldr	r1, [pc, #504]	@ (80041a8 <HAL_RCC_OscConfig+0x30c>)
          __HAL_RCC_HSI_CONFIG(RCC_OscInitStruct->HSIDiv);
 8003fae:	4013      	ands	r3, r2
 8003fb0:	6922      	ldr	r2, [r4, #16]
 8003fb2:	4313      	orrs	r3, r2
 8003fb4:	602b      	str	r3, [r5, #0]
          SystemCoreClock = (HSI_VALUE / (1UL << ((READ_BIT(RCC->CR, RCC_CR_HSIDIV)) >> RCC_CR_HSIDIV_Pos)));
 8003fb6:	682b      	ldr	r3, [r5, #0]
 8003fb8:	4a7c      	ldr	r2, [pc, #496]	@ (80041ac <HAL_RCC_OscConfig+0x310>)
 8003fba:	049b      	lsls	r3, r3, #18
 8003fbc:	0f5b      	lsrs	r3, r3, #29
 8003fbe:	40da      	lsrs	r2, r3
 8003fc0:	600a      	str	r2, [r1, #0]
        if (HAL_InitTick(uwTickPrio) != HAL_OK)
 8003fc2:	4b7b      	ldr	r3, [pc, #492]	@ (80041b0 <HAL_RCC_OscConfig+0x314>)
 8003fc4:	6818      	ldr	r0, [r3, #0]
 8003fc6:	f7fe f873 	bl	80020b0 <HAL_InitTick>
 8003fca:	2800      	cmp	r0, #0
 8003fcc:	d100      	bne.n	8003fd0 <HAL_RCC_OscConfig+0x134>
 8003fce:	e773      	b.n	8003eb8 <HAL_RCC_OscConfig+0x1c>
 8003fd0:	e769      	b.n	8003ea6 <HAL_RCC_OscConfig+0xa>
        || (temp_sysclksrc == RCC_SYSCLKSOURCE_STATUS_HSI))
 8003fd2:	2b00      	cmp	r3, #0
 8003fd4:	d0d8      	beq.n	8003f88 <HAL_RCC_OscConfig+0xec>
      if (RCC_OscInitStruct->HSIState != RCC_HSI_OFF)
 8003fd6:	68e3      	ldr	r3, [r4, #12]
 8003fd8:	2b00      	cmp	r3, #0
 8003fda:	d020      	beq.n	800401e <HAL_RCC_OscConfig+0x182>
        __HAL_RCC_HSI_CONFIG(RCC_OscInitStruct->HSIDiv);
 8003fdc:	682b      	ldr	r3, [r5, #0]
 8003fde:	4a71      	ldr	r2, [pc, #452]	@ (80041a4 <HAL_RCC_OscConfig+0x308>)
        while (READ_BIT(RCC->CR, RCC_CR_HSIRDY) == 0U)
 8003fe0:	2780      	movs	r7, #128	@ 0x80
        __HAL_RCC_HSI_CONFIG(RCC_OscInitStruct->HSIDiv);
 8003fe2:	4013      	ands	r3, r2
 8003fe4:	6922      	ldr	r2, [r4, #16]
        while (READ_BIT(RCC->CR, RCC_CR_HSIRDY) == 0U)
 8003fe6:	00ff      	lsls	r7, r7, #3
        __HAL_RCC_HSI_CONFIG(RCC_OscInitStruct->HSIDiv);
 8003fe8:	4313      	orrs	r3, r2
 8003fea:	602b      	str	r3, [r5, #0]
        __HAL_RCC_HSI_ENABLE();
 8003fec:	2380      	movs	r3, #128	@ 0x80
 8003fee:	682a      	ldr	r2, [r5, #0]
 8003ff0:	005b      	lsls	r3, r3, #1
 8003ff2:	4313      	orrs	r3, r2
 8003ff4:	602b      	str	r3, [r5, #0]
        tickstart = HAL_GetTick();
 8003ff6:	f7fe f8a3 	bl	8002140 <HAL_GetTick>
 8003ffa:	0006      	movs	r6, r0
        while (READ_BIT(RCC->CR, RCC_CR_HSIRDY) == 0U)
 8003ffc:	682b      	ldr	r3, [r5, #0]
 8003ffe:	423b      	tst	r3, r7
 8004000:	d007      	beq.n	8004012 <HAL_RCC_OscConfig+0x176>
        __HAL_RCC_HSI_CALIBRATIONVALUE_ADJUST(RCC_OscInitStruct->HSICalibrationValue);
 8004002:	686a      	ldr	r2, [r5, #4]
 8004004:	6963      	ldr	r3, [r4, #20]
 8004006:	4966      	ldr	r1, [pc, #408]	@ (80041a0 <HAL_RCC_OscConfig+0x304>)
 8004008:	021b      	lsls	r3, r3, #8
 800400a:	400a      	ands	r2, r1
 800400c:	4313      	orrs	r3, r2
 800400e:	606b      	str	r3, [r5, #4]
 8004010:	e752      	b.n	8003eb8 <HAL_RCC_OscConfig+0x1c>
          if ((HAL_GetTick() - tickstart) > HSI_TIMEOUT_VALUE)
 8004012:	f7fe f895 	bl	8002140 <HAL_GetTick>
 8004016:	1b80      	subs	r0, r0, r6
 8004018:	2802      	cmp	r0, #2
 800401a:	d9ef      	bls.n	8003ffc <HAL_RCC_OscConfig+0x160>
 800401c:	e782      	b.n	8003f24 <HAL_RCC_OscConfig+0x88>
        __HAL_RCC_HSI_DISABLE();
 800401e:	682b      	ldr	r3, [r5, #0]
 8004020:	4a64      	ldr	r2, [pc, #400]	@ (80041b4 <HAL_RCC_OscConfig+0x318>)
        while (READ_BIT(RCC->CR, RCC_CR_HSIRDY) != 0U)
 8004022:	2780      	movs	r7, #128	@ 0x80
        __HAL_RCC_HSI_DISABLE();
 8004024:	4013      	ands	r3, r2
 8004026:	602b      	str	r3, [r5, #0]
        tickstart = HAL_GetTick();
 8004028:	f7fe f88a 	bl	8002140 <HAL_GetTick>
 800402c:	0006      	movs	r6, r0
        while (READ_BIT(RCC->CR, RCC_CR_HSIRDY) != 0U)
 800402e:	00ff      	lsls	r7, r7, #3
 8004030:	682b      	ldr	r3, [r5, #0]
 8004032:	423b      	tst	r3, r7
 8004034:	d100      	bne.n	8004038 <HAL_RCC_OscConfig+0x19c>
 8004036:	e73f      	b.n	8003eb8 <HAL_RCC_OscConfig+0x1c>
          if ((HAL_GetTick() - tickstart) > HSI_TIMEOUT_VALUE)
 8004038:	f7fe f882 	bl	8002140 <HAL_GetTick>
 800403c:	1b80      	subs	r0, r0, r6
 800403e:	2802      	cmp	r0, #2
 8004040:	d9f6      	bls.n	8004030 <HAL_RCC_OscConfig+0x194>
 8004042:	e76f      	b.n	8003f24 <HAL_RCC_OscConfig+0x88>
    if (__HAL_RCC_GET_SYSCLK_SOURCE() == RCC_SYSCLKSOURCE_STATUS_LSI)
 8004044:	2238      	movs	r2, #56	@ 0x38
 8004046:	4d53      	ldr	r5, [pc, #332]	@ (8004194 <HAL_RCC_OscConfig+0x2f8>)
 8004048:	68ab      	ldr	r3, [r5, #8]
 800404a:	4013      	ands	r3, r2
 800404c:	2b18      	cmp	r3, #24
 800404e:	d108      	bne.n	8004062 <HAL_RCC_OscConfig+0x1c6>
      if ((((RCC->CSR) & RCC_CSR_LSIRDY) != 0U) && (RCC_OscInitStruct->LSIState == RCC_LSI_OFF))
 8004050:	6e2b      	ldr	r3, [r5, #96]	@ 0x60
 8004052:	079b      	lsls	r3, r3, #30
 8004054:	d400      	bmi.n	8004058 <HAL_RCC_OscConfig+0x1bc>
 8004056:	e733      	b.n	8003ec0 <HAL_RCC_OscConfig+0x24>
 8004058:	69a3      	ldr	r3, [r4, #24]
 800405a:	2b00      	cmp	r3, #0
 800405c:	d000      	beq.n	8004060 <HAL_RCC_OscConfig+0x1c4>
 800405e:	e72f      	b.n	8003ec0 <HAL_RCC_OscConfig+0x24>
 8004060:	e721      	b.n	8003ea6 <HAL_RCC_OscConfig+0xa>
      if (RCC_OscInitStruct->LSIState != RCC_LSI_OFF)
 8004062:	69a2      	ldr	r2, [r4, #24]
 8004064:	2301      	movs	r3, #1
 8004066:	2a00      	cmp	r2, #0
 8004068:	d010      	beq.n	800408c <HAL_RCC_OscConfig+0x1f0>
        __HAL_RCC_LSI_ENABLE();
 800406a:	6e2a      	ldr	r2, [r5, #96]	@ 0x60
        while (READ_BIT(RCC->CSR, RCC_CSR_LSIRDY) == 0U)
 800406c:	2702      	movs	r7, #2
        __HAL_RCC_LSI_ENABLE();
 800406e:	4313      	orrs	r3, r2
 8004070:	662b      	str	r3, [r5, #96]	@ 0x60
        tickstart = HAL_GetTick();
 8004072:	f7fe f865 	bl	8002140 <HAL_GetTick>
 8004076:	0006      	movs	r6, r0
        while (READ_BIT(RCC->CSR, RCC_CSR_LSIRDY) == 0U)
 8004078:	6e2b      	ldr	r3, [r5, #96]	@ 0x60
 800407a:	423b      	tst	r3, r7
 800407c:	d000      	beq.n	8004080 <HAL_RCC_OscConfig+0x1e4>
 800407e:	e71f      	b.n	8003ec0 <HAL_RCC_OscConfig+0x24>
          if ((HAL_GetTick() - tickstart) > LSI_TIMEOUT_VALUE)
 8004080:	f7fe f85e 	bl	8002140 <HAL_GetTick>
 8004084:	1b80      	subs	r0, r0, r6
 8004086:	2802      	cmp	r0, #2
 8004088:	d9f6      	bls.n	8004078 <HAL_RCC_OscConfig+0x1dc>
 800408a:	e74b      	b.n	8003f24 <HAL_RCC_OscConfig+0x88>
        __HAL_RCC_LSI_DISABLE();
 800408c:	6e2a      	ldr	r2, [r5, #96]	@ 0x60
        while (READ_BIT(RCC->CSR, RCC_CSR_LSIRDY) != 0U)
 800408e:	2702      	movs	r7, #2
        __HAL_RCC_LSI_DISABLE();
 8004090:	439a      	bics	r2, r3
 8004092:	662a      	str	r2, [r5, #96]	@ 0x60
        tickstart = HAL_GetTick();
 8004094:	f7fe f854 	bl	8002140 <HAL_GetTick>
 8004098:	0006      	movs	r6, r0
        while (READ_BIT(RCC->CSR, RCC_CSR_LSIRDY) != 0U)
 800409a:	6e2b      	ldr	r3, [r5, #96]	@ 0x60
 800409c:	423b      	tst	r3, r7
 800409e:	d100      	bne.n	80040a2 <HAL_RCC_OscConfig+0x206>
 80040a0:	e70e      	b.n	8003ec0 <HAL_RCC_OscConfig+0x24>
          if ((HAL_GetTick() - tickstart) > LSI_TIMEOUT_VALUE)
 80040a2:	f7fe f84d 	bl	8002140 <HAL_GetTick>
 80040a6:	1b80      	subs	r0, r0, r6
 80040a8:	2802      	cmp	r0, #2
 80040aa:	d9f6      	bls.n	800409a <HAL_RCC_OscConfig+0x1fe>
 80040ac:	e73a      	b.n	8003f24 <HAL_RCC_OscConfig+0x88>
    if (__HAL_RCC_GET_SYSCLK_SOURCE() == RCC_SYSCLKSOURCE_STATUS_LSE)
 80040ae:	2238      	movs	r2, #56	@ 0x38
 80040b0:	4d38      	ldr	r5, [pc, #224]	@ (8004194 <HAL_RCC_OscConfig+0x2f8>)
 80040b2:	68ab      	ldr	r3, [r5, #8]
 80040b4:	4013      	ands	r3, r2
 80040b6:	2b20      	cmp	r3, #32
 80040b8:	d108      	bne.n	80040cc <HAL_RCC_OscConfig+0x230>
      if ((((RCC->BDCR) & RCC_BDCR_LSERDY) != 0U) && (RCC_OscInitStruct->LSEState == RCC_LSE_OFF))
 80040ba:	6deb      	ldr	r3, [r5, #92]	@ 0x5c
 80040bc:	079b      	lsls	r3, r3, #30
 80040be:	d400      	bmi.n	80040c2 <HAL_RCC_OscConfig+0x226>
 80040c0:	e702      	b.n	8003ec8 <HAL_RCC_OscConfig+0x2c>
 80040c2:	68a3      	ldr	r3, [r4, #8]
 80040c4:	2b00      	cmp	r3, #0
 80040c6:	d000      	beq.n	80040ca <HAL_RCC_OscConfig+0x22e>
 80040c8:	e6fe      	b.n	8003ec8 <HAL_RCC_OscConfig+0x2c>
 80040ca:	e6ec      	b.n	8003ea6 <HAL_RCC_OscConfig+0xa>
      if (__HAL_RCC_PWR_IS_CLK_DISABLED() != 0U)
 80040cc:	2280      	movs	r2, #128	@ 0x80
    FlagStatus       pwrclkchanged = RESET;
 80040ce:	2100      	movs	r1, #0
      if (__HAL_RCC_PWR_IS_CLK_DISABLED() != 0U)
 80040d0:	6beb      	ldr	r3, [r5, #60]	@ 0x3c
 80040d2:	0552      	lsls	r2, r2, #21
    FlagStatus       pwrclkchanged = RESET;
 80040d4:	9100      	str	r1, [sp, #0]
      if (__HAL_RCC_PWR_IS_CLK_DISABLED() != 0U)
 80040d6:	4213      	tst	r3, r2
 80040d8:	d108      	bne.n	80040ec <HAL_RCC_OscConfig+0x250>
        __HAL_RCC_PWR_CLK_ENABLE();
 80040da:	6beb      	ldr	r3, [r5, #60]	@ 0x3c
 80040dc:	4313      	orrs	r3, r2
 80040de:	63eb      	str	r3, [r5, #60]	@ 0x3c
 80040e0:	6beb      	ldr	r3, [r5, #60]	@ 0x3c
 80040e2:	4013      	ands	r3, r2
 80040e4:	9303      	str	r3, [sp, #12]
 80040e6:	9b03      	ldr	r3, [sp, #12]
        pwrclkchanged = SET;
 80040e8:	2301      	movs	r3, #1
 80040ea:	9300      	str	r3, [sp, #0]
      if (HAL_IS_BIT_CLR(PWR->CR1, PWR_CR1_DBP))
 80040ec:	2780      	movs	r7, #128	@ 0x80
 80040ee:	4e32      	ldr	r6, [pc, #200]	@ (80041b8 <HAL_RCC_OscConfig+0x31c>)
 80040f0:	007f      	lsls	r7, r7, #1
 80040f2:	6833      	ldr	r3, [r6, #0]
 80040f4:	423b      	tst	r3, r7
 80040f6:	d015      	beq.n	8004124 <HAL_RCC_OscConfig+0x288>
      __HAL_RCC_LSE_CONFIG(RCC_OscInitStruct->LSEState);
 80040f8:	68a3      	ldr	r3, [r4, #8]
 80040fa:	2b01      	cmp	r3, #1
 80040fc:	d122      	bne.n	8004144 <HAL_RCC_OscConfig+0x2a8>
 80040fe:	6dea      	ldr	r2, [r5, #92]	@ 0x5c
 8004100:	4313      	orrs	r3, r2
 8004102:	65eb      	str	r3, [r5, #92]	@ 0x5c
        tickstart = HAL_GetTick();
 8004104:	f7fe f81c 	bl	8002140 <HAL_GetTick>
        while (READ_BIT(RCC->BDCR, RCC_BDCR_LSERDY) == 0U)
 8004108:	2702      	movs	r7, #2
        tickstart = HAL_GetTick();
 800410a:	0006      	movs	r6, r0
        while (READ_BIT(RCC->BDCR, RCC_BDCR_LSERDY) == 0U)
 800410c:	6deb      	ldr	r3, [r5, #92]	@ 0x5c
 800410e:	423b      	tst	r3, r7
 8004110:	d038      	beq.n	8004184 <HAL_RCC_OscConfig+0x2e8>
      if (pwrclkchanged == SET)
 8004112:	9b00      	ldr	r3, [sp, #0]
 8004114:	2b01      	cmp	r3, #1
 8004116:	d000      	beq.n	800411a <HAL_RCC_OscConfig+0x27e>
 8004118:	e6d6      	b.n	8003ec8 <HAL_RCC_OscConfig+0x2c>
        __HAL_RCC_PWR_CLK_DISABLE();
 800411a:	6beb      	ldr	r3, [r5, #60]	@ 0x3c
 800411c:	4a27      	ldr	r2, [pc, #156]	@ (80041bc <HAL_RCC_OscConfig+0x320>)
 800411e:	4013      	ands	r3, r2
 8004120:	63eb      	str	r3, [r5, #60]	@ 0x3c
 8004122:	e6d1      	b.n	8003ec8 <HAL_RCC_OscConfig+0x2c>
        SET_BIT(PWR->CR1, PWR_CR1_DBP);
 8004124:	6833      	ldr	r3, [r6, #0]
 8004126:	433b      	orrs	r3, r7
 8004128:	6033      	str	r3, [r6, #0]
        tickstart = HAL_GetTick();
 800412a:	f7fe f809 	bl	8002140 <HAL_GetTick>
 800412e:	9001      	str	r0, [sp, #4]
        while (HAL_IS_BIT_CLR(PWR->CR1, PWR_CR1_DBP))
 8004130:	6833      	ldr	r3, [r6, #0]
 8004132:	423b      	tst	r3, r7
 8004134:	d1e0      	bne.n	80040f8 <HAL_RCC_OscConfig+0x25c>
          if ((HAL_GetTick() - tickstart) > RCC_DBP_TIMEOUT_VALUE)
 8004136:	f7fe f803 	bl	8002140 <HAL_GetTick>
 800413a:	9b01      	ldr	r3, [sp, #4]
 800413c:	1ac0      	subs	r0, r0, r3
 800413e:	2802      	cmp	r0, #2
 8004140:	d9f6      	bls.n	8004130 <HAL_RCC_OscConfig+0x294>
 8004142:	e6ef      	b.n	8003f24 <HAL_RCC_OscConfig+0x88>
      __HAL_RCC_LSE_CONFIG(RCC_OscInitStruct->LSEState);
 8004144:	6dea      	ldr	r2, [r5, #92]	@ 0x5c
 8004146:	2b05      	cmp	r3, #5
 8004148:	d105      	bne.n	8004156 <HAL_RCC_OscConfig+0x2ba>
 800414a:	3b01      	subs	r3, #1
 800414c:	4313      	orrs	r3, r2
 800414e:	65eb      	str	r3, [r5, #92]	@ 0x5c
 8004150:	6dea      	ldr	r2, [r5, #92]	@ 0x5c
 8004152:	2301      	movs	r3, #1
 8004154:	e7d4      	b.n	8004100 <HAL_RCC_OscConfig+0x264>
 8004156:	2101      	movs	r1, #1
 8004158:	438a      	bics	r2, r1
 800415a:	65ea      	str	r2, [r5, #92]	@ 0x5c
 800415c:	6dea      	ldr	r2, [r5, #92]	@ 0x5c
 800415e:	3103      	adds	r1, #3
 8004160:	438a      	bics	r2, r1
 8004162:	65ea      	str	r2, [r5, #92]	@ 0x5c
      if (RCC_OscInitStruct->LSEState != RCC_LSE_OFF)
 8004164:	2b00      	cmp	r3, #0
 8004166:	d1cd      	bne.n	8004104 <HAL_RCC_OscConfig+0x268>
        tickstart = HAL_GetTick();
 8004168:	f7fd ffea 	bl	8002140 <HAL_GetTick>
        while (READ_BIT(RCC->BDCR, RCC_BDCR_LSERDY) != 0U)
 800416c:	2702      	movs	r7, #2
        tickstart = HAL_GetTick();
 800416e:	0006      	movs	r6, r0
        while (READ_BIT(RCC->BDCR, RCC_BDCR_LSERDY) != 0U)
 8004170:	6deb      	ldr	r3, [r5, #92]	@ 0x5c
 8004172:	423b      	tst	r3, r7
 8004174:	d0cd      	beq.n	8004112 <HAL_RCC_OscConfig+0x276>
          if ((HAL_GetTick() - tickstart) > RCC_LSE_TIMEOUT_VALUE)
 8004176:	f7fd ffe3 	bl	8002140 <HAL_GetTick>
 800417a:	4b11      	ldr	r3, [pc, #68]	@ (80041c0 <HAL_RCC_OscConfig+0x324>)
 800417c:	1b80      	subs	r0, r0, r6
 800417e:	4298      	cmp	r0, r3
 8004180:	d9f6      	bls.n	8004170 <HAL_RCC_OscConfig+0x2d4>
 8004182:	e6cf      	b.n	8003f24 <HAL_RCC_OscConfig+0x88>
          if ((HAL_GetTick() - tickstart) > RCC_LSE_TIMEOUT_VALUE)
 8004184:	f7fd ffdc 	bl	8002140 <HAL_GetTick>
 8004188:	4b0d      	ldr	r3, [pc, #52]	@ (80041c0 <HAL_RCC_OscConfig+0x324>)
 800418a:	1b80      	subs	r0, r0, r6
 800418c:	4298      	cmp	r0, r3
 800418e:	d9bd      	bls.n	800410c <HAL_RCC_OscConfig+0x270>
 8004190:	e6c8      	b.n	8003f24 <HAL_RCC_OscConfig+0x88>
 8004192:	46c0      	nop			@ (mov r8, r8)
 8004194:	40021000 	.word	0x40021000
 8004198:	fffeffff 	.word	0xfffeffff
 800419c:	fffbffff 	.word	0xfffbffff
 80041a0:	ffff80ff 	.word	0xffff80ff
 80041a4:	ffffc7ff 	.word	0xffffc7ff
 80041a8:	2000000c 	.word	0x2000000c
 80041ac:	00f42400 	.word	0x00f42400
 80041b0:	20000014 	.word	0x20000014
 80041b4:	fffffeff 	.word	0xfffffeff
 80041b8:	40007000 	.word	0x40007000
 80041bc:	efffffff 	.word	0xefffffff
 80041c0:	00001388 	.word	0x00001388
    if (__HAL_RCC_GET_SYSCLK_SOURCE() != RCC_SYSCLKSOURCE_STATUS_PLLCLK)
 80041c4:	2138      	movs	r1, #56	@ 0x38
 80041c6:	4d3f      	ldr	r5, [pc, #252]	@ (80042c4 <HAL_RCC_OscConfig+0x428>)
 80041c8:	68aa      	ldr	r2, [r5, #8]
 80041ca:	400a      	ands	r2, r1
 80041cc:	2a10      	cmp	r2, #16
 80041ce:	d051      	beq.n	8004274 <HAL_RCC_OscConfig+0x3d8>
      if (RCC_OscInitStruct->PLL.PLLState == RCC_PLL_ON)
 80041d0:	4a3d      	ldr	r2, [pc, #244]	@ (80042c8 <HAL_RCC_OscConfig+0x42c>)
 80041d2:	2b02      	cmp	r3, #2
 80041d4:	d138      	bne.n	8004248 <HAL_RCC_OscConfig+0x3ac>
        __HAL_RCC_PLL_DISABLE();
 80041d6:	682b      	ldr	r3, [r5, #0]
        while (READ_BIT(RCC->CR, RCC_CR_PLLRDY) != 0U)
 80041d8:	2780      	movs	r7, #128	@ 0x80
        __HAL_RCC_PLL_DISABLE();
 80041da:	4013      	ands	r3, r2
 80041dc:	602b      	str	r3, [r5, #0]
        tickstart = HAL_GetTick();
 80041de:	f7fd ffaf 	bl	8002140 <HAL_GetTick>
 80041e2:	0006      	movs	r6, r0
        while (READ_BIT(RCC->CR, RCC_CR_PLLRDY) != 0U)
 80041e4:	04bf      	lsls	r7, r7, #18
 80041e6:	682b      	ldr	r3, [r5, #0]
 80041e8:	423b      	tst	r3, r7
 80041ea:	d127      	bne.n	800423c <HAL_RCC_OscConfig+0x3a0>
        __HAL_RCC_PLL_CONFIG(RCC_OscInitStruct->PLL.PLLSource,
 80041ec:	6a61      	ldr	r1, [r4, #36]	@ 0x24
 80041ee:	6a23      	ldr	r3, [r4, #32]
 80041f0:	68ea      	ldr	r2, [r5, #12]
 80041f2:	430b      	orrs	r3, r1
 80041f4:	4935      	ldr	r1, [pc, #212]	@ (80042cc <HAL_RCC_OscConfig+0x430>)
        while (READ_BIT(RCC->CR, RCC_CR_PLLRDY) == 0U)
 80041f6:	2680      	movs	r6, #128	@ 0x80
        __HAL_RCC_PLL_CONFIG(RCC_OscInitStruct->PLL.PLLSource,
 80041f8:	400a      	ands	r2, r1
 80041fa:	4313      	orrs	r3, r2
 80041fc:	6ae2      	ldr	r2, [r4, #44]	@ 0x2c
        while (READ_BIT(RCC->CR, RCC_CR_PLLRDY) == 0U)
 80041fe:	04b6      	lsls	r6, r6, #18
        __HAL_RCC_PLL_CONFIG(RCC_OscInitStruct->PLL.PLLSource,
 8004200:	4313      	orrs	r3, r2
 8004202:	6b22      	ldr	r2, [r4, #48]	@ 0x30
 8004204:	4313      	orrs	r3, r2
 8004206:	6aa2      	ldr	r2, [r4, #40]	@ 0x28
 8004208:	0212      	lsls	r2, r2, #8
 800420a:	4313      	orrs	r3, r2
 800420c:	60eb      	str	r3, [r5, #12]
        __HAL_RCC_PLL_ENABLE();
 800420e:	2380      	movs	r3, #128	@ 0x80
 8004210:	682a      	ldr	r2, [r5, #0]
 8004212:	045b      	lsls	r3, r3, #17
 8004214:	4313      	orrs	r3, r2
 8004216:	602b      	str	r3, [r5, #0]
        __HAL_RCC_PLLCLKOUT_ENABLE(RCC_PLLRCLK);
 8004218:	2380      	movs	r3, #128	@ 0x80
 800421a:	68ea      	ldr	r2, [r5, #12]
 800421c:	055b      	lsls	r3, r3, #21
 800421e:	4313      	orrs	r3, r2
 8004220:	60eb      	str	r3, [r5, #12]
        tickstart = HAL_GetTick();
 8004222:	f7fd ff8d 	bl	8002140 <HAL_GetTick>
 8004226:	0004      	movs	r4, r0
        while (READ_BIT(RCC->CR, RCC_CR_PLLRDY) == 0U)
 8004228:	682b      	ldr	r3, [r5, #0]
 800422a:	4233      	tst	r3, r6
 800422c:	d000      	beq.n	8004230 <HAL_RCC_OscConfig+0x394>
 800422e:	e64f      	b.n	8003ed0 <HAL_RCC_OscConfig+0x34>
          if ((HAL_GetTick() - tickstart) > PLL_TIMEOUT_VALUE)
 8004230:	f7fd ff86 	bl	8002140 <HAL_GetTick>
 8004234:	1b00      	subs	r0, r0, r4
 8004236:	2802      	cmp	r0, #2
 8004238:	d9f6      	bls.n	8004228 <HAL_RCC_OscConfig+0x38c>
 800423a:	e673      	b.n	8003f24 <HAL_RCC_OscConfig+0x88>
          if ((HAL_GetTick() - tickstart) > PLL_TIMEOUT_VALUE)
 800423c:	f7fd ff80 	bl	8002140 <HAL_GetTick>
 8004240:	1b80      	subs	r0, r0, r6
 8004242:	2802      	cmp	r0, #2
 8004244:	d9cf      	bls.n	80041e6 <HAL_RCC_OscConfig+0x34a>
 8004246:	e66d      	b.n	8003f24 <HAL_RCC_OscConfig+0x88>
        __HAL_RCC_PLL_DISABLE();
 8004248:	682b      	ldr	r3, [r5, #0]
        while (READ_BIT(RCC->CR, RCC_CR_PLLRDY) != 0U)
 800424a:	2680      	movs	r6, #128	@ 0x80
        __HAL_RCC_PLL_DISABLE();
 800424c:	4013      	ands	r3, r2
 800424e:	602b      	str	r3, [r5, #0]
        tickstart = HAL_GetTick();
 8004250:	f7fd ff76 	bl	8002140 <HAL_GetTick>
 8004254:	0004      	movs	r4, r0
        while (READ_BIT(RCC->CR, RCC_CR_PLLRDY) != 0U)
 8004256:	04b6      	lsls	r6, r6, #18
 8004258:	682b      	ldr	r3, [r5, #0]
 800425a:	4233      	tst	r3, r6
 800425c:	d104      	bne.n	8004268 <HAL_RCC_OscConfig+0x3cc>
        RCC->PLLCFGR &= ~(RCC_PLLCFGR_PLLSRC | RCC_PLLCFGR_PLLPEN | RCC_PLLCFGR_PLLREN);
 800425e:	68eb      	ldr	r3, [r5, #12]
 8004260:	4a1b      	ldr	r2, [pc, #108]	@ (80042d0 <HAL_RCC_OscConfig+0x434>)
 8004262:	4013      	ands	r3, r2
 8004264:	60eb      	str	r3, [r5, #12]
 8004266:	e633      	b.n	8003ed0 <HAL_RCC_OscConfig+0x34>
          if ((HAL_GetTick() - tickstart) > PLL_TIMEOUT_VALUE)
 8004268:	f7fd ff6a 	bl	8002140 <HAL_GetTick>
 800426c:	1b00      	subs	r0, r0, r4
 800426e:	2802      	cmp	r0, #2
 8004270:	d9f2      	bls.n	8004258 <HAL_RCC_OscConfig+0x3bc>
 8004272:	e657      	b.n	8003f24 <HAL_RCC_OscConfig+0x88>
      if ((RCC_OscInitStruct->PLL.PLLState) == RCC_PLL_OFF)
 8004274:	2b01      	cmp	r3, #1
 8004276:	d100      	bne.n	800427a <HAL_RCC_OscConfig+0x3de>
 8004278:	e615      	b.n	8003ea6 <HAL_RCC_OscConfig+0xa>
        if ((READ_BIT(temp_pllckcfg, RCC_PLLCFGR_PLLSRC) != RCC_OscInitStruct->PLL.PLLSource) ||
 800427a:	2203      	movs	r2, #3
        temp_pllckcfg = RCC->PLLCFGR;
 800427c:	68e8      	ldr	r0, [r5, #12]
        if ((READ_BIT(temp_pllckcfg, RCC_PLLCFGR_PLLSRC) != RCC_OscInitStruct->PLL.PLLSource) ||
 800427e:	6a21      	ldr	r1, [r4, #32]
 8004280:	4002      	ands	r2, r0
 8004282:	428a      	cmp	r2, r1
 8004284:	d000      	beq.n	8004288 <HAL_RCC_OscConfig+0x3ec>
 8004286:	e60e      	b.n	8003ea6 <HAL_RCC_OscConfig+0xa>
            (READ_BIT(temp_pllckcfg, RCC_PLLCFGR_PLLM) != RCC_OscInitStruct->PLL.PLLM) ||
 8004288:	2270      	movs	r2, #112	@ 0x70
        if ((READ_BIT(temp_pllckcfg, RCC_PLLCFGR_PLLSRC) != RCC_OscInitStruct->PLL.PLLSource) ||
 800428a:	6a61      	ldr	r1, [r4, #36]	@ 0x24
            (READ_BIT(temp_pllckcfg, RCC_PLLCFGR_PLLM) != RCC_OscInitStruct->PLL.PLLM) ||
 800428c:	4002      	ands	r2, r0
        if ((READ_BIT(temp_pllckcfg, RCC_PLLCFGR_PLLSRC) != RCC_OscInitStruct->PLL.PLLSource) ||
 800428e:	428a      	cmp	r2, r1
 8004290:	d000      	beq.n	8004294 <HAL_RCC_OscConfig+0x3f8>
 8004292:	e608      	b.n	8003ea6 <HAL_RCC_OscConfig+0xa>
            (READ_BIT(temp_pllckcfg, RCC_PLLCFGR_PLLN) != (RCC_OscInitStruct->PLL.PLLN << RCC_PLLCFGR_PLLN_Pos)) ||
 8004294:	21fe      	movs	r1, #254	@ 0xfe
 8004296:	6aa2      	ldr	r2, [r4, #40]	@ 0x28
 8004298:	01c9      	lsls	r1, r1, #7
 800429a:	4001      	ands	r1, r0
 800429c:	0212      	lsls	r2, r2, #8
            (READ_BIT(temp_pllckcfg, RCC_PLLCFGR_PLLM) != RCC_OscInitStruct->PLL.PLLM) ||
 800429e:	4291      	cmp	r1, r2
 80042a0:	d000      	beq.n	80042a4 <HAL_RCC_OscConfig+0x408>
 80042a2:	e600      	b.n	8003ea6 <HAL_RCC_OscConfig+0xa>
            (READ_BIT(temp_pllckcfg, RCC_PLLCFGR_PLLP) != RCC_OscInitStruct->PLL.PLLP) ||
 80042a4:	22f8      	movs	r2, #248	@ 0xf8
            (READ_BIT(temp_pllckcfg, RCC_PLLCFGR_PLLN) != (RCC_OscInitStruct->PLL.PLLN << RCC_PLLCFGR_PLLN_Pos)) ||
 80042a6:	6ae1      	ldr	r1, [r4, #44]	@ 0x2c
            (READ_BIT(temp_pllckcfg, RCC_PLLCFGR_PLLP) != RCC_OscInitStruct->PLL.PLLP) ||
 80042a8:	0392      	lsls	r2, r2, #14
 80042aa:	4002      	ands	r2, r0
            (READ_BIT(temp_pllckcfg, RCC_PLLCFGR_PLLN) != (RCC_OscInitStruct->PLL.PLLN << RCC_PLLCFGR_PLLN_Pos)) ||
 80042ac:	428a      	cmp	r2, r1
 80042ae:	d000      	beq.n	80042b2 <HAL_RCC_OscConfig+0x416>
 80042b0:	e5f9      	b.n	8003ea6 <HAL_RCC_OscConfig+0xa>
            (READ_BIT(temp_pllckcfg, RCC_PLLCFGR_PLLP) != RCC_OscInitStruct->PLL.PLLP) ||
 80042b2:	6b23      	ldr	r3, [r4, #48]	@ 0x30
            (READ_BIT(temp_pllckcfg, RCC_PLLCFGR_PLLR) != RCC_OscInitStruct->PLL.PLLR))
 80042b4:	0f40      	lsrs	r0, r0, #29
 80042b6:	0740      	lsls	r0, r0, #29
            (READ_BIT(temp_pllckcfg, RCC_PLLCFGR_PLLP) != RCC_OscInitStruct->PLL.PLLP) ||
 80042b8:	1ac0      	subs	r0, r0, r3
 80042ba:	1e43      	subs	r3, r0, #1
 80042bc:	4198      	sbcs	r0, r3
 80042be:	b2c0      	uxtb	r0, r0
 80042c0:	e5f2      	b.n	8003ea8 <HAL_RCC_OscConfig+0xc>
 80042c2:	46c0      	nop			@ (mov r8, r8)
 80042c4:	40021000 	.word	0x40021000
 80042c8:	feffffff 	.word	0xfeffffff
 80042cc:	1fc1808c 	.word	0x1fc1808c
 80042d0:	effefffc 	.word	0xeffefffc

080042d4 <HAL_RCC_GetSysClockFreq>:
uint32_t HAL_RCC_GetSysClockFreq(void)
{
  uint32_t pllvco, pllsource, pllr, pllm, hsidiv;
  uint32_t sysclockfreq;

  if (__HAL_RCC_GET_SYSCLK_SOURCE() == RCC_SYSCLKSOURCE_STATUS_HSI)
 80042d4:	2338      	movs	r3, #56	@ 0x38
{
 80042d6:	b570      	push	{r4, r5, r6, lr}
  if (__HAL_RCC_GET_SYSCLK_SOURCE() == RCC_SYSCLKSOURCE_STATUS_HSI)
 80042d8:	4c1d      	ldr	r4, [pc, #116]	@ (8004350 <HAL_RCC_GetSysClockFreq+0x7c>)
 80042da:	68a2      	ldr	r2, [r4, #8]
 80042dc:	421a      	tst	r2, r3
 80042de:	d105      	bne.n	80042ec <HAL_RCC_GetSysClockFreq+0x18>
  {
    /* HSISYS can be derived for HSI16 */
    hsidiv = (1UL << ((READ_BIT(RCC->CR, RCC_CR_HSIDIV)) >> RCC_CR_HSIDIV_Pos));
 80042e0:	6823      	ldr	r3, [r4, #0]

    /* HSI used as system clock source */
    sysclockfreq = (HSI_VALUE / hsidiv);
 80042e2:	481c      	ldr	r0, [pc, #112]	@ (8004354 <HAL_RCC_GetSysClockFreq+0x80>)
    hsidiv = (1UL << ((READ_BIT(RCC->CR, RCC_CR_HSIDIV)) >> RCC_CR_HSIDIV_Pos));
 80042e4:	049b      	lsls	r3, r3, #18
 80042e6:	0f5b      	lsrs	r3, r3, #29
    sysclockfreq = (HSI_VALUE / hsidiv);
 80042e8:	40d8      	lsrs	r0, r3
  {
    sysclockfreq = 0U;
  }

  return sysclockfreq;
}
 80042ea:	bd70      	pop	{r4, r5, r6, pc}
  else if (__HAL_RCC_GET_SYSCLK_SOURCE() == RCC_SYSCLKSOURCE_STATUS_HSE)
 80042ec:	68a2      	ldr	r2, [r4, #8]
 80042ee:	401a      	ands	r2, r3
 80042f0:	2a08      	cmp	r2, #8
 80042f2:	d027      	beq.n	8004344 <HAL_RCC_GetSysClockFreq+0x70>
  else if (__HAL_RCC_GET_SYSCLK_SOURCE() == RCC_SYSCLKSOURCE_STATUS_PLLCLK)
 80042f4:	68a2      	ldr	r2, [r4, #8]
 80042f6:	401a      	ands	r2, r3
 80042f8:	2a10      	cmp	r2, #16
 80042fa:	d117      	bne.n	800432c <HAL_RCC_GetSysClockFreq+0x58>
    pllsource = (RCC->PLLCFGR & RCC_PLLCFGR_PLLSRC);
 80042fc:	68e3      	ldr	r3, [r4, #12]
    pllm = ((RCC->PLLCFGR & RCC_PLLCFGR_PLLM) >> RCC_PLLCFGR_PLLM_Pos) + 1U ;
 80042fe:	68e1      	ldr	r1, [r4, #12]
    pllsource = (RCC->PLLCFGR & RCC_PLLCFGR_PLLSRC);
 8004300:	43db      	mvns	r3, r3
        pllvco = (HSI_VALUE / pllm) * ((RCC->PLLCFGR & RCC_PLLCFGR_PLLN) >> RCC_PLLCFGR_PLLN_Pos) ;
 8004302:	68e5      	ldr	r5, [r4, #12]
    pllm = ((RCC->PLLCFGR & RCC_PLLCFGR_PLLM) >> RCC_PLLCFGR_PLLM_Pos) + 1U ;
 8004304:	0649      	lsls	r1, r1, #25
 8004306:	0f49      	lsrs	r1, r1, #29
 8004308:	326f      	adds	r2, #111	@ 0x6f
        pllvco = (HSI_VALUE / pllm) * ((RCC->PLLCFGR & RCC_PLLCFGR_PLLN) >> RCC_PLLCFGR_PLLN_Pos) ;
 800430a:	0a2d      	lsrs	r5, r5, #8
    pllm = ((RCC->PLLCFGR & RCC_PLLCFGR_PLLM) >> RCC_PLLCFGR_PLLM_Pos) + 1U ;
 800430c:	3101      	adds	r1, #1
        pllvco = (HSI_VALUE / pllm) * ((RCC->PLLCFGR & RCC_PLLCFGR_PLLN) >> RCC_PLLCFGR_PLLN_Pos) ;
 800430e:	4015      	ands	r5, r2
    switch (pllsource)
 8004310:	079b      	lsls	r3, r3, #30
 8004312:	d109      	bne.n	8004328 <HAL_RCC_GetSysClockFreq+0x54>
        pllvco = (HSE_VALUE / pllm) * ((RCC->PLLCFGR & RCC_PLLCFGR_PLLN) >> RCC_PLLCFGR_PLLN_Pos);
 8004314:	4810      	ldr	r0, [pc, #64]	@ (8004358 <HAL_RCC_GetSysClockFreq+0x84>)
        pllvco = (HSI_VALUE / pllm) * ((RCC->PLLCFGR & RCC_PLLCFGR_PLLN) >> RCC_PLLCFGR_PLLN_Pos) ;
 8004316:	f7fb fefd 	bl	8000114 <__udivsi3>
    pllr = (((RCC->PLLCFGR & RCC_PLLCFGR_PLLR) >> RCC_PLLCFGR_PLLR_Pos) + 1U);
 800431a:	68e1      	ldr	r1, [r4, #12]
        pllvco = (HSI_VALUE / pllm) * ((RCC->PLLCFGR & RCC_PLLCFGR_PLLN) >> RCC_PLLCFGR_PLLN_Pos) ;
 800431c:	4368      	muls	r0, r5
    pllr = (((RCC->PLLCFGR & RCC_PLLCFGR_PLLR) >> RCC_PLLCFGR_PLLR_Pos) + 1U);
 800431e:	0f49      	lsrs	r1, r1, #29
 8004320:	3101      	adds	r1, #1
    sysclockfreq = pllvco / pllr;
 8004322:	f7fb fef7 	bl	8000114 <__udivsi3>
 8004326:	e7e0      	b.n	80042ea <HAL_RCC_GetSysClockFreq+0x16>
        pllvco = (HSI_VALUE / pllm) * ((RCC->PLLCFGR & RCC_PLLCFGR_PLLN) >> RCC_PLLCFGR_PLLN_Pos) ;
 8004328:	480a      	ldr	r0, [pc, #40]	@ (8004354 <HAL_RCC_GetSysClockFreq+0x80>)
 800432a:	e7f4      	b.n	8004316 <HAL_RCC_GetSysClockFreq+0x42>
  else if (__HAL_RCC_GET_SYSCLK_SOURCE() == RCC_SYSCLKSOURCE_STATUS_LSE)
 800432c:	68a2      	ldr	r2, [r4, #8]
 800432e:	401a      	ands	r2, r3
 8004330:	2a20      	cmp	r2, #32
 8004332:	d009      	beq.n	8004348 <HAL_RCC_GetSysClockFreq+0x74>
  else if (__HAL_RCC_GET_SYSCLK_SOURCE() == RCC_SYSCLKSOURCE_STATUS_LSI)
 8004334:	68a2      	ldr	r2, [r4, #8]
    sysclockfreq = 0U;
 8004336:	2000      	movs	r0, #0
  else if (__HAL_RCC_GET_SYSCLK_SOURCE() == RCC_SYSCLKSOURCE_STATUS_LSI)
 8004338:	4013      	ands	r3, r2
 800433a:	2b18      	cmp	r3, #24
 800433c:	d1d5      	bne.n	80042ea <HAL_RCC_GetSysClockFreq+0x16>
    sysclockfreq = LSI_VALUE;
 800433e:	20fa      	movs	r0, #250	@ 0xfa
 8004340:	01c0      	lsls	r0, r0, #7
 8004342:	e7d2      	b.n	80042ea <HAL_RCC_GetSysClockFreq+0x16>
    sysclockfreq = HSE_VALUE;
 8004344:	4804      	ldr	r0, [pc, #16]	@ (8004358 <HAL_RCC_GetSysClockFreq+0x84>)
 8004346:	e7d0      	b.n	80042ea <HAL_RCC_GetSysClockFreq+0x16>
    sysclockfreq = LSE_VALUE;
 8004348:	2080      	movs	r0, #128	@ 0x80
 800434a:	0200      	lsls	r0, r0, #8
 800434c:	e7cd      	b.n	80042ea <HAL_RCC_GetSysClockFreq+0x16>
 800434e:	46c0      	nop			@ (mov r8, r8)
 8004350:	40021000 	.word	0x40021000
 8004354:	00f42400 	.word	0x00f42400
 8004358:	007a1200 	.word	0x007a1200

0800435c <HAL_RCC_ClockConfig>:
{
 800435c:	b5f7      	push	{r0, r1, r2, r4, r5, r6, r7, lr}
 800435e:	0004      	movs	r4, r0
 8004360:	000d      	movs	r5, r1
  if (RCC_ClkInitStruct == NULL)
 8004362:	2800      	cmp	r0, #0
 8004364:	d101      	bne.n	800436a <HAL_RCC_ClockConfig+0xe>
    return HAL_ERROR;
 8004366:	2001      	movs	r0, #1
}
 8004368:	bdfe      	pop	{r1, r2, r3, r4, r5, r6, r7, pc}
  if (FLatency > __HAL_FLASH_GET_LATENCY())
 800436a:	2707      	movs	r7, #7
 800436c:	4e48      	ldr	r6, [pc, #288]	@ (8004490 <HAL_RCC_ClockConfig+0x134>)
 800436e:	6833      	ldr	r3, [r6, #0]
 8004370:	403b      	ands	r3, r7
 8004372:	428b      	cmp	r3, r1
 8004374:	d32a      	bcc.n	80043cc <HAL_RCC_ClockConfig+0x70>
  if (((RCC_ClkInitStruct->ClockType) & RCC_CLOCKTYPE_HCLK) == RCC_CLOCKTYPE_HCLK)
 8004376:	6822      	ldr	r2, [r4, #0]
 8004378:	0793      	lsls	r3, r2, #30
 800437a:	d43b      	bmi.n	80043f4 <HAL_RCC_ClockConfig+0x98>
  if (((RCC_ClkInitStruct->ClockType) & RCC_CLOCKTYPE_SYSCLK) == RCC_CLOCKTYPE_SYSCLK)
 800437c:	07d2      	lsls	r2, r2, #31
 800437e:	d448      	bmi.n	8004412 <HAL_RCC_ClockConfig+0xb6>
  if (FLatency < __HAL_FLASH_GET_LATENCY())
 8004380:	2707      	movs	r7, #7
 8004382:	6833      	ldr	r3, [r6, #0]
 8004384:	403b      	ands	r3, r7
 8004386:	42ab      	cmp	r3, r5
 8004388:	d90a      	bls.n	80043a0 <HAL_RCC_ClockConfig+0x44>
    __HAL_FLASH_SET_LATENCY(FLatency);
 800438a:	6833      	ldr	r3, [r6, #0]
 800438c:	43bb      	bics	r3, r7
 800438e:	432b      	orrs	r3, r5
 8004390:	6033      	str	r3, [r6, #0]
    tickstart = HAL_GetTick();
 8004392:	f7fd fed5 	bl	8002140 <HAL_GetTick>
 8004396:	9001      	str	r0, [sp, #4]
    while ((FLASH->ACR & FLASH_ACR_LATENCY) != FLatency)
 8004398:	6833      	ldr	r3, [r6, #0]
 800439a:	403b      	ands	r3, r7
 800439c:	42ab      	cmp	r3, r5
 800439e:	d168      	bne.n	8004472 <HAL_RCC_ClockConfig+0x116>
  if (((RCC_ClkInitStruct->ClockType) & RCC_CLOCKTYPE_PCLK1) == RCC_CLOCKTYPE_PCLK1)
 80043a0:	6823      	ldr	r3, [r4, #0]
 80043a2:	4d3c      	ldr	r5, [pc, #240]	@ (8004494 <HAL_RCC_ClockConfig+0x138>)
 80043a4:	075b      	lsls	r3, r3, #29
 80043a6:	d46c      	bmi.n	8004482 <HAL_RCC_ClockConfig+0x126>
  SystemCoreClock = (HAL_RCC_GetSysClockFreq() >> ((AHBPrescTable[(RCC->CFGR & RCC_CFGR_HPRE) >> RCC_CFGR_HPRE_Pos]) & 0x1FU));
 80043a8:	f7ff ff94 	bl	80042d4 <HAL_RCC_GetSysClockFreq>
 80043ac:	68ab      	ldr	r3, [r5, #8]
 80043ae:	493a      	ldr	r1, [pc, #232]	@ (8004498 <HAL_RCC_ClockConfig+0x13c>)
 80043b0:	051b      	lsls	r3, r3, #20
 80043b2:	0f1b      	lsrs	r3, r3, #28
 80043b4:	009b      	lsls	r3, r3, #2
 80043b6:	585b      	ldr	r3, [r3, r1]
 80043b8:	211f      	movs	r1, #31
 80043ba:	400b      	ands	r3, r1
 80043bc:	40d8      	lsrs	r0, r3
 80043be:	4a37      	ldr	r2, [pc, #220]	@ (800449c <HAL_RCC_ClockConfig+0x140>)
  return HAL_InitTick(uwTickPrio);
 80043c0:	4b37      	ldr	r3, [pc, #220]	@ (80044a0 <HAL_RCC_ClockConfig+0x144>)
  SystemCoreClock = (HAL_RCC_GetSysClockFreq() >> ((AHBPrescTable[(RCC->CFGR & RCC_CFGR_HPRE) >> RCC_CFGR_HPRE_Pos]) & 0x1FU));
 80043c2:	6010      	str	r0, [r2, #0]
  return HAL_InitTick(uwTickPrio);
 80043c4:	6818      	ldr	r0, [r3, #0]
 80043c6:	f7fd fe73 	bl	80020b0 <HAL_InitTick>
 80043ca:	e7cd      	b.n	8004368 <HAL_RCC_ClockConfig+0xc>
    __HAL_FLASH_SET_LATENCY(FLatency);
 80043cc:	6833      	ldr	r3, [r6, #0]
 80043ce:	43bb      	bics	r3, r7
 80043d0:	430b      	orrs	r3, r1
 80043d2:	6033      	str	r3, [r6, #0]
    tickstart = HAL_GetTick();
 80043d4:	f7fd feb4 	bl	8002140 <HAL_GetTick>
 80043d8:	9001      	str	r0, [sp, #4]
    while ((FLASH->ACR & FLASH_ACR_LATENCY) != FLatency)
 80043da:	6833      	ldr	r3, [r6, #0]
 80043dc:	403b      	ands	r3, r7
 80043de:	42ab      	cmp	r3, r5
 80043e0:	d0c9      	beq.n	8004376 <HAL_RCC_ClockConfig+0x1a>
      if ((HAL_GetTick() - tickstart) > CLOCKSWITCH_TIMEOUT_VALUE)
 80043e2:	f7fd fead 	bl	8002140 <HAL_GetTick>
 80043e6:	9b01      	ldr	r3, [sp, #4]
 80043e8:	1ac0      	subs	r0, r0, r3
 80043ea:	4b2e      	ldr	r3, [pc, #184]	@ (80044a4 <HAL_RCC_ClockConfig+0x148>)
 80043ec:	4298      	cmp	r0, r3
 80043ee:	d9f4      	bls.n	80043da <HAL_RCC_ClockConfig+0x7e>
        return HAL_TIMEOUT;
 80043f0:	2003      	movs	r0, #3
 80043f2:	e7b9      	b.n	8004368 <HAL_RCC_ClockConfig+0xc>
    if (((RCC_ClkInitStruct->ClockType) & RCC_CLOCKTYPE_PCLK1) == RCC_CLOCKTYPE_PCLK1)
 80043f4:	4927      	ldr	r1, [pc, #156]	@ (8004494 <HAL_RCC_ClockConfig+0x138>)
 80043f6:	0753      	lsls	r3, r2, #29
 80043f8:	d504      	bpl.n	8004404 <HAL_RCC_ClockConfig+0xa8>
      MODIFY_REG(RCC->CFGR, RCC_CFGR_PPRE, RCC_HCLK_DIV16);
 80043fa:	23e0      	movs	r3, #224	@ 0xe0
 80043fc:	6888      	ldr	r0, [r1, #8]
 80043fe:	01db      	lsls	r3, r3, #7
 8004400:	4303      	orrs	r3, r0
 8004402:	608b      	str	r3, [r1, #8]
    MODIFY_REG(RCC->CFGR, RCC_CFGR_HPRE, RCC_ClkInitStruct->AHBCLKDivider);
 8004404:	688b      	ldr	r3, [r1, #8]
 8004406:	4828      	ldr	r0, [pc, #160]	@ (80044a8 <HAL_RCC_ClockConfig+0x14c>)
 8004408:	4003      	ands	r3, r0
 800440a:	68a0      	ldr	r0, [r4, #8]
 800440c:	4303      	orrs	r3, r0
 800440e:	608b      	str	r3, [r1, #8]
 8004410:	e7b4      	b.n	800437c <HAL_RCC_ClockConfig+0x20>
    if (RCC_ClkInitStruct->SYSCLKSource == RCC_SYSCLKSOURCE_HSE)
 8004412:	6860      	ldr	r0, [r4, #4]
 8004414:	4f1f      	ldr	r7, [pc, #124]	@ (8004494 <HAL_RCC_ClockConfig+0x138>)
 8004416:	2803      	cmp	r0, #3
 8004418:	d829      	bhi.n	800446e <HAL_RCC_ClockConfig+0x112>
 800441a:	f7fb fe71 	bl	8000100 <__gnu_thumb1_case_uqi>
 800441e:	0220      	.short	0x0220
 8004420:	241c      	.short	0x241c
      if (READ_BIT(RCC->CR, RCC_CR_HSERDY) == 0U)
 8004422:	683b      	ldr	r3, [r7, #0]
 8004424:	039b      	lsls	r3, r3, #14
 8004426:	d59e      	bpl.n	8004366 <HAL_RCC_ClockConfig+0xa>
    MODIFY_REG(RCC->CFGR, RCC_CFGR_SW, RCC_ClkInitStruct->SYSCLKSource);
 8004428:	2207      	movs	r2, #7
 800442a:	68bb      	ldr	r3, [r7, #8]
 800442c:	4393      	bics	r3, r2
 800442e:	4303      	orrs	r3, r0
 8004430:	60bb      	str	r3, [r7, #8]
    tickstart = HAL_GetTick();
 8004432:	f7fd fe85 	bl	8002140 <HAL_GetTick>
 8004436:	9001      	str	r0, [sp, #4]
    while (__HAL_RCC_GET_SYSCLK_SOURCE() != (RCC_ClkInitStruct->SYSCLKSource << RCC_CFGR_SWS_Pos))
 8004438:	2338      	movs	r3, #56	@ 0x38
 800443a:	68ba      	ldr	r2, [r7, #8]
 800443c:	401a      	ands	r2, r3
 800443e:	6863      	ldr	r3, [r4, #4]
 8004440:	00db      	lsls	r3, r3, #3
 8004442:	429a      	cmp	r2, r3
 8004444:	d09c      	beq.n	8004380 <HAL_RCC_ClockConfig+0x24>
      if ((HAL_GetTick() - tickstart) > CLOCKSWITCH_TIMEOUT_VALUE)
 8004446:	f7fd fe7b 	bl	8002140 <HAL_GetTick>
 800444a:	9b01      	ldr	r3, [sp, #4]
 800444c:	1ac0      	subs	r0, r0, r3
 800444e:	4b15      	ldr	r3, [pc, #84]	@ (80044a4 <HAL_RCC_ClockConfig+0x148>)
 8004450:	4298      	cmp	r0, r3
 8004452:	d9f1      	bls.n	8004438 <HAL_RCC_ClockConfig+0xdc>
 8004454:	e7cc      	b.n	80043f0 <HAL_RCC_ClockConfig+0x94>
      if (READ_BIT(RCC->CR, RCC_CR_PLLRDY) == 0U)
 8004456:	683b      	ldr	r3, [r7, #0]
 8004458:	019b      	lsls	r3, r3, #6
 800445a:	d4e5      	bmi.n	8004428 <HAL_RCC_ClockConfig+0xcc>
 800445c:	e783      	b.n	8004366 <HAL_RCC_ClockConfig+0xa>
      if (READ_BIT(RCC->CR, RCC_CR_HSIRDY) == 0U)
 800445e:	683b      	ldr	r3, [r7, #0]
 8004460:	055b      	lsls	r3, r3, #21
 8004462:	d4e1      	bmi.n	8004428 <HAL_RCC_ClockConfig+0xcc>
 8004464:	e77f      	b.n	8004366 <HAL_RCC_ClockConfig+0xa>
      if (READ_BIT(RCC->CSR, RCC_CSR_LSIRDY) == 0U)
 8004466:	6e3b      	ldr	r3, [r7, #96]	@ 0x60
      if (READ_BIT(RCC->BDCR, RCC_BDCR_LSERDY) == 0U)
 8004468:	079b      	lsls	r3, r3, #30
 800446a:	d4dd      	bmi.n	8004428 <HAL_RCC_ClockConfig+0xcc>
 800446c:	e77b      	b.n	8004366 <HAL_RCC_ClockConfig+0xa>
 800446e:	6dfb      	ldr	r3, [r7, #92]	@ 0x5c
 8004470:	e7fa      	b.n	8004468 <HAL_RCC_ClockConfig+0x10c>
      if ((HAL_GetTick() - tickstart) > CLOCKSWITCH_TIMEOUT_VALUE)
 8004472:	f7fd fe65 	bl	8002140 <HAL_GetTick>
 8004476:	9b01      	ldr	r3, [sp, #4]
 8004478:	1ac0      	subs	r0, r0, r3
 800447a:	4b0a      	ldr	r3, [pc, #40]	@ (80044a4 <HAL_RCC_ClockConfig+0x148>)
 800447c:	4298      	cmp	r0, r3
 800447e:	d98b      	bls.n	8004398 <HAL_RCC_ClockConfig+0x3c>
 8004480:	e7b6      	b.n	80043f0 <HAL_RCC_ClockConfig+0x94>
    MODIFY_REG(RCC->CFGR, RCC_CFGR_PPRE, RCC_ClkInitStruct->APB1CLKDivider);
 8004482:	68ab      	ldr	r3, [r5, #8]
 8004484:	4a09      	ldr	r2, [pc, #36]	@ (80044ac <HAL_RCC_ClockConfig+0x150>)
 8004486:	4013      	ands	r3, r2
 8004488:	68e2      	ldr	r2, [r4, #12]
 800448a:	4313      	orrs	r3, r2
 800448c:	60ab      	str	r3, [r5, #8]
 800448e:	e78b      	b.n	80043a8 <HAL_RCC_ClockConfig+0x4c>
 8004490:	40022000 	.word	0x40022000
 8004494:	40021000 	.word	0x40021000
 8004498:	08005f88 	.word	0x08005f88
 800449c:	2000000c 	.word	0x2000000c
 80044a0:	20000014 	.word	0x20000014
 80044a4:	00001388 	.word	0x00001388
 80044a8:	fffff0ff 	.word	0xfffff0ff
 80044ac:	ffff8fff 	.word	0xffff8fff

080044b0 <HAL_RCCEx_PeriphCLKConfig>:
  *         the RTC clock source: in this case the access to Backup domain is enabled.
  *
  * @retval HAL status
  */
HAL_StatusTypeDef HAL_RCCEx_PeriphCLKConfig(RCC_PeriphCLKInitTypeDef const *PeriphClkInit)
{
 80044b0:	b5f0      	push	{r4, r5, r6, r7, lr}

  /* Check the parameters */
  assert_param(IS_RCC_PERIPHCLOCK(PeriphClkInit->PeriphClockSelection));

  /*-------------------------- RTC clock source configuration ----------------------*/
  if ((PeriphClkInit->PeriphClockSelection & RCC_PERIPHCLK_RTC) == RCC_PERIPHCLK_RTC)
 80044b2:	6803      	ldr	r3, [r0, #0]
{
 80044b4:	0005      	movs	r5, r0
 80044b6:	b085      	sub	sp, #20
  HAL_StatusTypeDef status = HAL_OK;   /* Final status */
 80044b8:	2000      	movs	r0, #0
  if ((PeriphClkInit->PeriphClockSelection & RCC_PERIPHCLK_RTC) == RCC_PERIPHCLK_RTC)
 80044ba:	039b      	lsls	r3, r3, #14
 80044bc:	d551      	bpl.n	8004562 <HAL_RCCEx_PeriphCLKConfig+0xb2>

    /* Check for RTC Parameters used to output RTCCLK */
    assert_param(IS_RCC_RTCCLKSOURCE(PeriphClkInit->RTCClockSelection));

    /* Enable Power Clock */
    if (__HAL_RCC_PWR_IS_CLK_DISABLED())
 80044be:	2280      	movs	r2, #128	@ 0x80
 80044c0:	4c48      	ldr	r4, [pc, #288]	@ (80045e4 <HAL_RCCEx_PeriphCLKConfig+0x134>)
 80044c2:	0552      	lsls	r2, r2, #21
 80044c4:	6be3      	ldr	r3, [r4, #60]	@ 0x3c
    FlagStatus       pwrclkchanged = RESET;
 80044c6:	9000      	str	r0, [sp, #0]
    if (__HAL_RCC_PWR_IS_CLK_DISABLED())
 80044c8:	4213      	tst	r3, r2
 80044ca:	d108      	bne.n	80044de <HAL_RCCEx_PeriphCLKConfig+0x2e>
    {
      __HAL_RCC_PWR_CLK_ENABLE();
 80044cc:	6be3      	ldr	r3, [r4, #60]	@ 0x3c
 80044ce:	4313      	orrs	r3, r2
 80044d0:	63e3      	str	r3, [r4, #60]	@ 0x3c
 80044d2:	6be3      	ldr	r3, [r4, #60]	@ 0x3c
 80044d4:	4013      	ands	r3, r2
 80044d6:	9303      	str	r3, [sp, #12]
 80044d8:	9b03      	ldr	r3, [sp, #12]
      pwrclkchanged = SET;
 80044da:	2301      	movs	r3, #1
 80044dc:	9300      	str	r3, [sp, #0]
    }

    /* Enable write access to Backup domain */
    SET_BIT(PWR->CR1, PWR_CR1_DBP);
 80044de:	2780      	movs	r7, #128	@ 0x80
 80044e0:	4e41      	ldr	r6, [pc, #260]	@ (80045e8 <HAL_RCCEx_PeriphCLKConfig+0x138>)
 80044e2:	007f      	lsls	r7, r7, #1
 80044e4:	6833      	ldr	r3, [r6, #0]
 80044e6:	433b      	orrs	r3, r7
 80044e8:	6033      	str	r3, [r6, #0]

    /* Wait for Backup domain Write protection disable */
    tickstart = HAL_GetTick();
 80044ea:	f7fd fe29 	bl	8002140 <HAL_GetTick>
 80044ee:	9001      	str	r0, [sp, #4]

    while ((PWR->CR1 & PWR_CR1_DBP) == 0U)
 80044f0:	6833      	ldr	r3, [r6, #0]
 80044f2:	423b      	tst	r3, r7
 80044f4:	d027      	beq.n	8004546 <HAL_RCCEx_PeriphCLKConfig+0x96>
    }

    if (ret == HAL_OK)
    {
      /* Reset the Backup domain only if the RTC Clock source selection is modified from default */
      tmpregister = READ_BIT(RCC->BDCR, RCC_BDCR_RTCSEL);
 80044f6:	6de2      	ldr	r2, [r4, #92]	@ 0x5c
 80044f8:	23c0      	movs	r3, #192	@ 0xc0
 80044fa:	0010      	movs	r0, r2
 80044fc:	009b      	lsls	r3, r3, #2

      /* Reset the Backup domain only if the RTC Clock source selection is modified */
      if ((tmpregister != RCC_RTCCLKSOURCE_NONE) && (tmpregister != PeriphClkInit->RTCClockSelection))
 80044fe:	6969      	ldr	r1, [r5, #20]
 8004500:	4e3a      	ldr	r6, [pc, #232]	@ (80045ec <HAL_RCCEx_PeriphCLKConfig+0x13c>)
      tmpregister = READ_BIT(RCC->BDCR, RCC_BDCR_RTCSEL);
 8004502:	4018      	ands	r0, r3
      if ((tmpregister != RCC_RTCCLKSOURCE_NONE) && (tmpregister != PeriphClkInit->RTCClockSelection))
 8004504:	421a      	tst	r2, r3
 8004506:	d017      	beq.n	8004538 <HAL_RCCEx_PeriphCLKConfig+0x88>
 8004508:	4281      	cmp	r1, r0
 800450a:	d015      	beq.n	8004538 <HAL_RCCEx_PeriphCLKConfig+0x88>
      {
        /* Store the content of BDCR register before the reset of Backup Domain */
        tmpregister = READ_BIT(RCC->BDCR, ~(RCC_BDCR_RTCSEL));
        /* RTC Clock selection can be changed only if the Backup Domain is reset */
        __HAL_RCC_BACKUPRESET_FORCE();
 800450c:	2280      	movs	r2, #128	@ 0x80
        tmpregister = READ_BIT(RCC->BDCR, ~(RCC_BDCR_RTCSEL));
 800450e:	6de3      	ldr	r3, [r4, #92]	@ 0x5c
        __HAL_RCC_BACKUPRESET_FORCE();
 8004510:	6de0      	ldr	r0, [r4, #92]	@ 0x5c
        tmpregister = READ_BIT(RCC->BDCR, ~(RCC_BDCR_RTCSEL));
 8004512:	0019      	movs	r1, r3
        __HAL_RCC_BACKUPRESET_FORCE();
 8004514:	0252      	lsls	r2, r2, #9
 8004516:	4302      	orrs	r2, r0
 8004518:	65e2      	str	r2, [r4, #92]	@ 0x5c
        __HAL_RCC_BACKUPRESET_RELEASE();
 800451a:	6de2      	ldr	r2, [r4, #92]	@ 0x5c
 800451c:	4834      	ldr	r0, [pc, #208]	@ (80045f0 <HAL_RCCEx_PeriphCLKConfig+0x140>)
        tmpregister = READ_BIT(RCC->BDCR, ~(RCC_BDCR_RTCSEL));
 800451e:	4031      	ands	r1, r6
        __HAL_RCC_BACKUPRESET_RELEASE();
 8004520:	4002      	ands	r2, r0
 8004522:	65e2      	str	r2, [r4, #92]	@ 0x5c
        /* Restore the Content of BDCR register */
        RCC->BDCR = tmpregister;
 8004524:	65e1      	str	r1, [r4, #92]	@ 0x5c
      }

      /* Wait for LSE reactivation if LSE was enable prior to Backup Domain reset */
      if (HAL_IS_BIT_SET(tmpregister, RCC_BDCR_LSEON))
 8004526:	07db      	lsls	r3, r3, #31
 8004528:	d506      	bpl.n	8004538 <HAL_RCCEx_PeriphCLKConfig+0x88>
      {
        /* Get Start Tick*/
        tickstart = HAL_GetTick();
 800452a:	f7fd fe09 	bl	8002140 <HAL_GetTick>
 800452e:	0007      	movs	r7, r0

        /* Wait till LSE is ready */
        while (READ_BIT(RCC->BDCR, RCC_BDCR_LSERDY) == 0U)
 8004530:	2202      	movs	r2, #2
 8004532:	6de3      	ldr	r3, [r4, #92]	@ 0x5c
 8004534:	4213      	tst	r3, r2
 8004536:	d04d      	beq.n	80045d4 <HAL_RCCEx_PeriphCLKConfig+0x124>
      }

      if (ret == HAL_OK)
      {
        /* Apply new RTC clock source selection */
        __HAL_RCC_RTC_CONFIG(PeriphClkInit->RTCClockSelection);
 8004538:	6de3      	ldr	r3, [r4, #92]	@ 0x5c
 800453a:	696a      	ldr	r2, [r5, #20]
 800453c:	4033      	ands	r3, r6
 800453e:	4313      	orrs	r3, r2
  HAL_StatusTypeDef status = HAL_OK;   /* Final status */
 8004540:	2000      	movs	r0, #0
        __HAL_RCC_RTC_CONFIG(PeriphClkInit->RTCClockSelection);
 8004542:	65e3      	str	r3, [r4, #92]	@ 0x5c
 8004544:	e006      	b.n	8004554 <HAL_RCCEx_PeriphCLKConfig+0xa4>
      if ((HAL_GetTick() - tickstart) > RCC_DBP_TIMEOUT_VALUE)
 8004546:	f7fd fdfb 	bl	8002140 <HAL_GetTick>
 800454a:	9b01      	ldr	r3, [sp, #4]
 800454c:	1ac0      	subs	r0, r0, r3
 800454e:	2802      	cmp	r0, #2
 8004550:	d9ce      	bls.n	80044f0 <HAL_RCCEx_PeriphCLKConfig+0x40>
      }
      else
      {
        /* set overall return value */
        status = ret;
 8004552:	2003      	movs	r0, #3
      /* set overall return value */
      status = ret;
    }

    /* Restore clock configuration if changed */
    if (pwrclkchanged == SET)
 8004554:	9b00      	ldr	r3, [sp, #0]
 8004556:	2b01      	cmp	r3, #1
 8004558:	d103      	bne.n	8004562 <HAL_RCCEx_PeriphCLKConfig+0xb2>
    {
      __HAL_RCC_PWR_CLK_DISABLE();
 800455a:	6be3      	ldr	r3, [r4, #60]	@ 0x3c
 800455c:	4a25      	ldr	r2, [pc, #148]	@ (80045f4 <HAL_RCCEx_PeriphCLKConfig+0x144>)
 800455e:	4013      	ands	r3, r2
 8004560:	63e3      	str	r3, [r4, #60]	@ 0x3c
    }
  }

  /*-------------------------- USART1 clock source configuration -------------------*/
  if (((PeriphClkInit->PeriphClockSelection) & RCC_PERIPHCLK_USART1) == RCC_PERIPHCLK_USART1)
 8004562:	682a      	ldr	r2, [r5, #0]
 8004564:	07d3      	lsls	r3, r2, #31
 8004566:	d506      	bpl.n	8004576 <HAL_RCCEx_PeriphCLKConfig+0xc6>
  {
    /* Check the parameters */
    assert_param(IS_RCC_USART1CLKSOURCE(PeriphClkInit->Usart1ClockSelection));

    /* Configure the USART1 clock source */
    __HAL_RCC_USART1_CONFIG(PeriphClkInit->Usart1ClockSelection);
 8004568:	2403      	movs	r4, #3
 800456a:	491e      	ldr	r1, [pc, #120]	@ (80045e4 <HAL_RCCEx_PeriphCLKConfig+0x134>)
 800456c:	6d4b      	ldr	r3, [r1, #84]	@ 0x54
 800456e:	43a3      	bics	r3, r4
 8004570:	686c      	ldr	r4, [r5, #4]
 8004572:	4323      	orrs	r3, r4
 8004574:	654b      	str	r3, [r1, #84]	@ 0x54
    __HAL_RCC_LPTIM2_CONFIG(PeriphClkInit->Lptim2ClockSelection);
  }
#endif /* RCC_CCIPR_LPTIM2SEL */

  /*-------------------------- I2C1 clock source configuration ---------------------*/
  if (((PeriphClkInit->PeriphClockSelection) & RCC_PERIPHCLK_I2C1) == RCC_PERIPHCLK_I2C1)
 8004576:	0693      	lsls	r3, r2, #26
 8004578:	d506      	bpl.n	8004588 <HAL_RCCEx_PeriphCLKConfig+0xd8>
  {
    /* Check the parameters */
    assert_param(IS_RCC_I2C1CLKSOURCE(PeriphClkInit->I2c1ClockSelection));

    /* Configure the I2C1 clock source */
    __HAL_RCC_I2C1_CONFIG(PeriphClkInit->I2c1ClockSelection);
 800457a:	491a      	ldr	r1, [pc, #104]	@ (80045e4 <HAL_RCCEx_PeriphCLKConfig+0x134>)
 800457c:	4c1e      	ldr	r4, [pc, #120]	@ (80045f8 <HAL_RCCEx_PeriphCLKConfig+0x148>)
 800457e:	6d4b      	ldr	r3, [r1, #84]	@ 0x54
 8004580:	4023      	ands	r3, r4
 8004582:	68ac      	ldr	r4, [r5, #8]
 8004584:	4323      	orrs	r3, r4
 8004586:	654b      	str	r3, [r1, #84]	@ 0x54
      __HAL_RCC_PLLCLKOUT_ENABLE(RCC_PLLQCLK);
    }
  }
#endif /* RNG */
  /*-------------------------- ADC clock source configuration ----------------------*/
  if (((PeriphClkInit->PeriphClockSelection) & RCC_PERIPHCLK_ADC) == RCC_PERIPHCLK_ADC)
 8004588:	0453      	lsls	r3, r2, #17
 800458a:	d50f      	bpl.n	80045ac <HAL_RCCEx_PeriphCLKConfig+0xfc>
  {
    /* Check the parameters */
    assert_param(IS_RCC_ADCCLKSOURCE(PeriphClkInit->AdcClockSelection));

    /* Configure the ADC interface clock source */
    __HAL_RCC_ADC_CONFIG(PeriphClkInit->AdcClockSelection);
 800458c:	4915      	ldr	r1, [pc, #84]	@ (80045e4 <HAL_RCCEx_PeriphCLKConfig+0x134>)
 800458e:	692c      	ldr	r4, [r5, #16]
 8004590:	6d4b      	ldr	r3, [r1, #84]	@ 0x54
 8004592:	009b      	lsls	r3, r3, #2
 8004594:	089b      	lsrs	r3, r3, #2
 8004596:	4323      	orrs	r3, r4
 8004598:	654b      	str	r3, [r1, #84]	@ 0x54

    if (PeriphClkInit->AdcClockSelection == RCC_ADCCLKSOURCE_PLLADC)
 800459a:	2380      	movs	r3, #128	@ 0x80
 800459c:	05db      	lsls	r3, r3, #23
 800459e:	429c      	cmp	r4, r3
 80045a0:	d104      	bne.n	80045ac <HAL_RCCEx_PeriphCLKConfig+0xfc>
    {
      /* Enable PLLPCLK output */
      __HAL_RCC_PLLCLKOUT_ENABLE(RCC_PLLPCLK);
 80045a2:	2380      	movs	r3, #128	@ 0x80
 80045a4:	68cc      	ldr	r4, [r1, #12]
 80045a6:	025b      	lsls	r3, r3, #9
 80045a8:	4323      	orrs	r3, r4
 80045aa:	60cb      	str	r3, [r1, #12]
    }
  }
#endif /* RCC_CCIPR_TIM15SEL */

  /*-------------------------- I2S1 clock source configuration ---------------------*/
  if (((PeriphClkInit->PeriphClockSelection) & RCC_PERIPHCLK_I2S1) == RCC_PERIPHCLK_I2S1)
 80045ac:	0512      	lsls	r2, r2, #20
 80045ae:	d50f      	bpl.n	80045d0 <HAL_RCCEx_PeriphCLKConfig+0x120>
  {
    /* Check the parameters */
    assert_param(IS_RCC_I2S1CLKSOURCE(PeriphClkInit->I2s1ClockSelection));

    /* Configure the I2S1 clock source */
    __HAL_RCC_I2S1_CONFIG(PeriphClkInit->I2s1ClockSelection);
 80045b0:	4a0c      	ldr	r2, [pc, #48]	@ (80045e4 <HAL_RCCEx_PeriphCLKConfig+0x134>)
 80045b2:	4c12      	ldr	r4, [pc, #72]	@ (80045fc <HAL_RCCEx_PeriphCLKConfig+0x14c>)
 80045b4:	6d53      	ldr	r3, [r2, #84]	@ 0x54
 80045b6:	68e9      	ldr	r1, [r5, #12]
 80045b8:	4023      	ands	r3, r4
 80045ba:	430b      	orrs	r3, r1
 80045bc:	6553      	str	r3, [r2, #84]	@ 0x54

    if (PeriphClkInit->I2s1ClockSelection == RCC_I2S1CLKSOURCE_PLL)
 80045be:	2380      	movs	r3, #128	@ 0x80
 80045c0:	01db      	lsls	r3, r3, #7
 80045c2:	4299      	cmp	r1, r3
 80045c4:	d104      	bne.n	80045d0 <HAL_RCCEx_PeriphCLKConfig+0x120>
    {
      /* Enable PLLPCLK output */
      __HAL_RCC_PLLCLKOUT_ENABLE(RCC_PLLPCLK);
 80045c6:	2380      	movs	r3, #128	@ 0x80
 80045c8:	68d1      	ldr	r1, [r2, #12]
 80045ca:	025b      	lsls	r3, r3, #9
 80045cc:	430b      	orrs	r3, r1
 80045ce:	60d3      	str	r3, [r2, #12]
    }
  }
#endif /* FDCAN1 || FDCAN2 */

  return status;
}
 80045d0:	b005      	add	sp, #20
 80045d2:	bdf0      	pop	{r4, r5, r6, r7, pc}
          if ((HAL_GetTick() - tickstart) > RCC_LSE_TIMEOUT_VALUE)
 80045d4:	f7fd fdb4 	bl	8002140 <HAL_GetTick>
 80045d8:	4b09      	ldr	r3, [pc, #36]	@ (8004600 <HAL_RCCEx_PeriphCLKConfig+0x150>)
 80045da:	1bc0      	subs	r0, r0, r7
 80045dc:	4298      	cmp	r0, r3
 80045de:	d9a7      	bls.n	8004530 <HAL_RCCEx_PeriphCLKConfig+0x80>
 80045e0:	e7b7      	b.n	8004552 <HAL_RCCEx_PeriphCLKConfig+0xa2>
 80045e2:	46c0      	nop			@ (mov r8, r8)
 80045e4:	40021000 	.word	0x40021000
 80045e8:	40007000 	.word	0x40007000
 80045ec:	fffffcff 	.word	0xfffffcff
 80045f0:	fffeffff 	.word	0xfffeffff
 80045f4:	efffffff 	.word	0xefffffff
 80045f8:	ffffcfff 	.word	0xffffcfff
 80045fc:	ffff3fff 	.word	0xffff3fff
 8004600:	00001388 	.word	0x00001388

08004604 <TIM_OC1_SetConfig>:
  * @param  TIMx to select the TIM peripheral
  * @param  OC_Config The output configuration structure
  * @retval None
  */
static void TIM_OC1_SetConfig(TIM_TypeDef *TIMx, const TIM_OC_InitTypeDef *OC_Config)
{
 8004604:	b570      	push	{r4, r5, r6, lr}

  /* Get the TIMx CCER register value */
  tmpccer = TIMx->CCER;

  /* Disable the Channel 1: Reset the CC1E Bit */
  TIMx->CCER &= ~TIM_CCER_CC1E;
 8004606:	2401      	movs	r4, #1
  tmpccer = TIMx->CCER;
 8004608:	6a03      	ldr	r3, [r0, #32]
  TIMx->CCER &= ~TIM_CCER_CC1E;
 800460a:	6a02      	ldr	r2, [r0, #32]
 800460c:	43a2      	bics	r2, r4
 800460e:	6202      	str	r2, [r0, #32]
  /* Get the TIMx CCMR1 register value */
  tmpccmrx = TIMx->CCMR1;

  /* Reset the Output Compare Mode Bits */
  tmpccmrx &= ~TIM_CCMR1_OC1M;
  tmpccmrx &= ~TIM_CCMR1_CC1S;
 8004610:	4c13      	ldr	r4, [pc, #76]	@ (8004660 <TIM_OC1_SetConfig+0x5c>)
  tmpcr2 =  TIMx->CR2;
 8004612:	6842      	ldr	r2, [r0, #4]
  tmpccmrx = TIMx->CCMR1;
 8004614:	6985      	ldr	r5, [r0, #24]
  tmpccmrx &= ~TIM_CCMR1_CC1S;
 8004616:	4025      	ands	r5, r4
  /* Select the Output Compare Mode */
  tmpccmrx |= OC_Config->OCMode;
 8004618:	680c      	ldr	r4, [r1, #0]
 800461a:	4325      	orrs	r5, r4

  /* Reset the Output Polarity level */
  tmpccer &= ~TIM_CCER_CC1P;
 800461c:	2402      	movs	r4, #2
 800461e:	43a3      	bics	r3, r4
  /* Set the Output Compare Polarity */
  tmpccer |= OC_Config->OCPolarity;
 8004620:	688c      	ldr	r4, [r1, #8]
 8004622:	4323      	orrs	r3, r4

  if (IS_TIM_CCXN_INSTANCE(TIMx, TIM_CHANNEL_1))
 8004624:	4c0f      	ldr	r4, [pc, #60]	@ (8004664 <TIM_OC1_SetConfig+0x60>)
 8004626:	42a0      	cmp	r0, r4
 8004628:	d005      	beq.n	8004636 <TIM_OC1_SetConfig+0x32>
 800462a:	4c0f      	ldr	r4, [pc, #60]	@ (8004668 <TIM_OC1_SetConfig+0x64>)
 800462c:	42a0      	cmp	r0, r4
 800462e:	d002      	beq.n	8004636 <TIM_OC1_SetConfig+0x32>
 8004630:	4c0e      	ldr	r4, [pc, #56]	@ (800466c <TIM_OC1_SetConfig+0x68>)
 8004632:	42a0      	cmp	r0, r4
 8004634:	d10d      	bne.n	8004652 <TIM_OC1_SetConfig+0x4e>
  {
    /* Check parameters */
    assert_param(IS_TIM_OCN_POLARITY(OC_Config->OCNPolarity));

    /* Disable the Channel 1N: Reset the CC1NE Bit */
    TIMx->CCER &= ~TIM_CCER_CC1NE;
 8004636:	2604      	movs	r6, #4
 8004638:	6a04      	ldr	r4, [r0, #32]
 800463a:	43b4      	bics	r4, r6
 800463c:	6204      	str	r4, [r0, #32]

    /* Reset the Output N Polarity level */
    tmpccer &= ~TIM_CCER_CC1NP;
 800463e:	2408      	movs	r4, #8
 8004640:	43a3      	bics	r3, r4
    /* Set the Output N Polarity */
    tmpccer |= OC_Config->OCNPolarity;
 8004642:	68cc      	ldr	r4, [r1, #12]
    tmpcr2 &= ~TIM_CR2_OIS1;
    tmpcr2 &= ~TIM_CR2_OIS1N;
    /* Set the Output Idle state */
    tmpcr2 |= OC_Config->OCIdleState;
    /* Set the Output N Idle state */
    tmpcr2 |= OC_Config->OCNIdleState;
 8004644:	698e      	ldr	r6, [r1, #24]
    tmpccer |= OC_Config->OCNPolarity;
 8004646:	4323      	orrs	r3, r4
    tmpcr2 &= ~TIM_CR2_OIS1N;
 8004648:	4c09      	ldr	r4, [pc, #36]	@ (8004670 <TIM_OC1_SetConfig+0x6c>)
 800464a:	4014      	ands	r4, r2
    tmpcr2 |= OC_Config->OCNIdleState;
 800464c:	694a      	ldr	r2, [r1, #20]
 800464e:	4332      	orrs	r2, r6
 8004650:	4322      	orrs	r2, r4
  }

  /* Write to TIMx CR2 */
  TIMx->CR2 = tmpcr2;
 8004652:	6042      	str	r2, [r0, #4]

  /* Write to TIMx CCMR1 */
  TIMx->CCMR1 = tmpccmrx;

  /* Set the Capture Compare Register value */
  TIMx->CCR1 = OC_Config->Pulse;
 8004654:	684a      	ldr	r2, [r1, #4]
  TIMx->CCMR1 = tmpccmrx;
 8004656:	6185      	str	r5, [r0, #24]
  TIMx->CCR1 = OC_Config->Pulse;
 8004658:	6342      	str	r2, [r0, #52]	@ 0x34

  /* Write to TIMx CCER */
  TIMx->CCER = tmpccer;
 800465a:	6203      	str	r3, [r0, #32]
}
 800465c:	bd70      	pop	{r4, r5, r6, pc}
 800465e:	46c0      	nop			@ (mov r8, r8)
 8004660:	fffeff8c 	.word	0xfffeff8c
 8004664:	40012c00 	.word	0x40012c00
 8004668:	40014400 	.word	0x40014400
 800466c:	40014800 	.word	0x40014800
 8004670:	fffffcff 	.word	0xfffffcff

08004674 <TIM_OC3_SetConfig>:
  * @param  TIMx to select the TIM peripheral
  * @param  OC_Config The output configuration structure
  * @retval None
  */
static void TIM_OC3_SetConfig(TIM_TypeDef *TIMx, const TIM_OC_InitTypeDef *OC_Config)
{
 8004674:	b570      	push	{r4, r5, r6, lr}

  /* Get the TIMx CCER register value */
  tmpccer = TIMx->CCER;

  /* Disable the Channel 3: Reset the CC2E Bit */
  TIMx->CCER &= ~TIM_CCER_CC3E;
 8004676:	4a18      	ldr	r2, [pc, #96]	@ (80046d8 <TIM_OC3_SetConfig+0x64>)
  tmpccer = TIMx->CCER;
 8004678:	6a05      	ldr	r5, [r0, #32]
  TIMx->CCER &= ~TIM_CCER_CC3E;
 800467a:	6a03      	ldr	r3, [r0, #32]
 800467c:	4013      	ands	r3, r2
 800467e:	6203      	str	r3, [r0, #32]

  /* Get the TIMx CR2 register value */
  tmpcr2 =  TIMx->CR2;
 8004680:	6842      	ldr	r2, [r0, #4]
  /* Get the TIMx CCMR2 register value */
  tmpccmrx = TIMx->CCMR2;

  /* Reset the Output Compare mode and Capture/Compare selection Bits */
  tmpccmrx &= ~TIM_CCMR2_OC3M;
  tmpccmrx &= ~TIM_CCMR2_CC3S;
 8004682:	4b16      	ldr	r3, [pc, #88]	@ (80046dc <TIM_OC3_SetConfig+0x68>)
  tmpccmrx = TIMx->CCMR2;
 8004684:	69c4      	ldr	r4, [r0, #28]
  tmpccmrx &= ~TIM_CCMR2_CC3S;
 8004686:	401c      	ands	r4, r3
  /* Select the Output Compare Mode */
  tmpccmrx |= OC_Config->OCMode;
 8004688:	680b      	ldr	r3, [r1, #0]
 800468a:	431c      	orrs	r4, r3

  /* Reset the Output Polarity level */
  tmpccer &= ~TIM_CCER_CC3P;
 800468c:	4b14      	ldr	r3, [pc, #80]	@ (80046e0 <TIM_OC3_SetConfig+0x6c>)
 800468e:	401d      	ands	r5, r3
  /* Set the Output Compare Polarity */
  tmpccer |= (OC_Config->OCPolarity << 8U);
 8004690:	688b      	ldr	r3, [r1, #8]
 8004692:	021b      	lsls	r3, r3, #8
 8004694:	432b      	orrs	r3, r5

  if (IS_TIM_CCXN_INSTANCE(TIMx, TIM_CHANNEL_3))
 8004696:	4d13      	ldr	r5, [pc, #76]	@ (80046e4 <TIM_OC3_SetConfig+0x70>)
 8004698:	42a8      	cmp	r0, r5
 800469a:	d00a      	beq.n	80046b2 <TIM_OC3_SetConfig+0x3e>
    tmpccer &= ~TIM_CCER_CC3NP;
    /* Set the Output N Polarity */
    tmpccer |= (OC_Config->OCNPolarity << 8U);
  }

  if (IS_TIM_BREAK_INSTANCE(TIMx))
 800469c:	4d12      	ldr	r5, [pc, #72]	@ (80046e8 <TIM_OC3_SetConfig+0x74>)
 800469e:	42a8      	cmp	r0, r5
 80046a0:	d111      	bne.n	80046c6 <TIM_OC3_SetConfig+0x52>
    assert_param(IS_TIM_OCNIDLE_STATE(OC_Config->OCNIdleState));
    assert_param(IS_TIM_OCIDLE_STATE(OC_Config->OCIdleState));

    /* Reset the Output Compare and Output Compare N IDLE State */
    tmpcr2 &= ~TIM_CR2_OIS3;
    tmpcr2 &= ~TIM_CR2_OIS3N;
 80046a2:	4d12      	ldr	r5, [pc, #72]	@ (80046ec <TIM_OC3_SetConfig+0x78>)
    /* Set the Output Idle state */
    tmpcr2 |= (OC_Config->OCIdleState << 4U);
    /* Set the Output N Idle state */
    tmpcr2 |= (OC_Config->OCNIdleState << 4U);
 80046a4:	698e      	ldr	r6, [r1, #24]
    tmpcr2 &= ~TIM_CR2_OIS3N;
 80046a6:	4015      	ands	r5, r2
    tmpcr2 |= (OC_Config->OCNIdleState << 4U);
 80046a8:	694a      	ldr	r2, [r1, #20]
 80046aa:	4332      	orrs	r2, r6
 80046ac:	0112      	lsls	r2, r2, #4
 80046ae:	432a      	orrs	r2, r5
 80046b0:	e00c      	b.n	80046cc <TIM_OC3_SetConfig+0x58>
    TIMx->CCER &= ~TIM_CCER_CC3NE;
 80046b2:	6a05      	ldr	r5, [r0, #32]
 80046b4:	4e0e      	ldr	r6, [pc, #56]	@ (80046f0 <TIM_OC3_SetConfig+0x7c>)
 80046b6:	4035      	ands	r5, r6
 80046b8:	6205      	str	r5, [r0, #32]
    tmpccer &= ~TIM_CCER_CC3NP;
 80046ba:	4d0e      	ldr	r5, [pc, #56]	@ (80046f4 <TIM_OC3_SetConfig+0x80>)
 80046bc:	401d      	ands	r5, r3
    tmpccer |= (OC_Config->OCNPolarity << 8U);
 80046be:	68cb      	ldr	r3, [r1, #12]
 80046c0:	021b      	lsls	r3, r3, #8
 80046c2:	432b      	orrs	r3, r5
  if (IS_TIM_BREAK_INSTANCE(TIMx))
 80046c4:	e7ed      	b.n	80046a2 <TIM_OC3_SetConfig+0x2e>
 80046c6:	4d0c      	ldr	r5, [pc, #48]	@ (80046f8 <TIM_OC3_SetConfig+0x84>)
 80046c8:	42a8      	cmp	r0, r5
 80046ca:	d0ea      	beq.n	80046a2 <TIM_OC3_SetConfig+0x2e>
  }

  /* Write to TIMx CR2 */
  TIMx->CR2 = tmpcr2;
 80046cc:	6042      	str	r2, [r0, #4]

  /* Write to TIMx CCMR2 */
  TIMx->CCMR2 = tmpccmrx;

  /* Set the Capture Compare Register value */
  TIMx->CCR3 = OC_Config->Pulse;
 80046ce:	684a      	ldr	r2, [r1, #4]
  TIMx->CCMR2 = tmpccmrx;
 80046d0:	61c4      	str	r4, [r0, #28]
  TIMx->CCR3 = OC_Config->Pulse;
 80046d2:	63c2      	str	r2, [r0, #60]	@ 0x3c

  /* Write to TIMx CCER */
  TIMx->CCER = tmpccer;
 80046d4:	6203      	str	r3, [r0, #32]
}
 80046d6:	bd70      	pop	{r4, r5, r6, pc}
 80046d8:	fffffeff 	.word	0xfffffeff
 80046dc:	fffeff8c 	.word	0xfffeff8c
 80046e0:	fffffdff 	.word	0xfffffdff
 80046e4:	40012c00 	.word	0x40012c00
 80046e8:	40014400 	.word	0x40014400
 80046ec:	ffffcfff 	.word	0xffffcfff
 80046f0:	fffffbff 	.word	0xfffffbff
 80046f4:	fffff7ff 	.word	0xfffff7ff
 80046f8:	40014800 	.word	0x40014800

080046fc <TIM_OC4_SetConfig>:
  * @param  TIMx to select the TIM peripheral
  * @param  OC_Config The output configuration structure
  * @retval None
  */
static void TIM_OC4_SetConfig(TIM_TypeDef *TIMx, const TIM_OC_InitTypeDef *OC_Config)
{
 80046fc:	b530      	push	{r4, r5, lr}

  /* Get the TIMx CCER register value */
  tmpccer = TIMx->CCER;

  /* Disable the Channel 4: Reset the CC4E Bit */
  TIMx->CCER &= ~TIM_CCER_CC4E;
 80046fe:	4a12      	ldr	r2, [pc, #72]	@ (8004748 <TIM_OC4_SetConfig+0x4c>)
  tmpccer = TIMx->CCER;
 8004700:	6a04      	ldr	r4, [r0, #32]
  TIMx->CCER &= ~TIM_CCER_CC4E;
 8004702:	6a03      	ldr	r3, [r0, #32]
  /* Get the TIMx CCMR2 register value */
  tmpccmrx = TIMx->CCMR2;

  /* Reset the Output Compare mode and Capture/Compare selection Bits */
  tmpccmrx &= ~TIM_CCMR2_OC4M;
  tmpccmrx &= ~TIM_CCMR2_CC4S;
 8004704:	4d11      	ldr	r5, [pc, #68]	@ (800474c <TIM_OC4_SetConfig+0x50>)
  TIMx->CCER &= ~TIM_CCER_CC4E;
 8004706:	4013      	ands	r3, r2
 8004708:	6203      	str	r3, [r0, #32]
  tmpcr2 =  TIMx->CR2;
 800470a:	6843      	ldr	r3, [r0, #4]
  tmpccmrx = TIMx->CCMR2;
 800470c:	69c2      	ldr	r2, [r0, #28]
  tmpccmrx &= ~TIM_CCMR2_CC4S;
 800470e:	402a      	ands	r2, r5

  /* Select the Output Compare Mode */
  tmpccmrx |= (OC_Config->OCMode << 8U);
 8004710:	680d      	ldr	r5, [r1, #0]
 8004712:	022d      	lsls	r5, r5, #8
 8004714:	4315      	orrs	r5, r2

  /* Reset the Output Polarity level */
  tmpccer &= ~TIM_CCER_CC4P;
 8004716:	4a0e      	ldr	r2, [pc, #56]	@ (8004750 <TIM_OC4_SetConfig+0x54>)
 8004718:	4014      	ands	r4, r2
  /* Set the Output Compare Polarity */
  tmpccer |= (OC_Config->OCPolarity << 12U);
 800471a:	688a      	ldr	r2, [r1, #8]
 800471c:	0312      	lsls	r2, r2, #12
 800471e:	4322      	orrs	r2, r4

  if (IS_TIM_BREAK_INSTANCE(TIMx))
 8004720:	4c0c      	ldr	r4, [pc, #48]	@ (8004754 <TIM_OC4_SetConfig+0x58>)
 8004722:	42a0      	cmp	r0, r4
 8004724:	d005      	beq.n	8004732 <TIM_OC4_SetConfig+0x36>
 8004726:	4c0c      	ldr	r4, [pc, #48]	@ (8004758 <TIM_OC4_SetConfig+0x5c>)
 8004728:	42a0      	cmp	r0, r4
 800472a:	d002      	beq.n	8004732 <TIM_OC4_SetConfig+0x36>
 800472c:	4c0b      	ldr	r4, [pc, #44]	@ (800475c <TIM_OC4_SetConfig+0x60>)
 800472e:	42a0      	cmp	r0, r4
 8004730:	d104      	bne.n	800473c <TIM_OC4_SetConfig+0x40>
  {
    /* Check parameters */
    assert_param(IS_TIM_OCIDLE_STATE(OC_Config->OCIdleState));

    /* Reset the Output Compare IDLE State */
    tmpcr2 &= ~TIM_CR2_OIS4;
 8004732:	4c0b      	ldr	r4, [pc, #44]	@ (8004760 <TIM_OC4_SetConfig+0x64>)
 8004734:	401c      	ands	r4, r3

    /* Set the Output Idle state */
    tmpcr2 |= (OC_Config->OCIdleState << 6U);
 8004736:	694b      	ldr	r3, [r1, #20]
 8004738:	019b      	lsls	r3, r3, #6
 800473a:	4323      	orrs	r3, r4
  }

  /* Write to TIMx CR2 */
  TIMx->CR2 = tmpcr2;
 800473c:	6043      	str	r3, [r0, #4]

  /* Write to TIMx CCMR2 */
  TIMx->CCMR2 = tmpccmrx;

  /* Set the Capture Compare Register value */
  TIMx->CCR4 = OC_Config->Pulse;
 800473e:	684b      	ldr	r3, [r1, #4]
  TIMx->CCMR2 = tmpccmrx;
 8004740:	61c5      	str	r5, [r0, #28]
  TIMx->CCR4 = OC_Config->Pulse;
 8004742:	6403      	str	r3, [r0, #64]	@ 0x40

  /* Write to TIMx CCER */
  TIMx->CCER = tmpccer;
 8004744:	6202      	str	r2, [r0, #32]
}
 8004746:	bd30      	pop	{r4, r5, pc}
 8004748:	ffffefff 	.word	0xffffefff
 800474c:	feff8cff 	.word	0xfeff8cff
 8004750:	ffffdfff 	.word	0xffffdfff
 8004754:	40012c00 	.word	0x40012c00
 8004758:	40014400 	.word	0x40014400
 800475c:	40014800 	.word	0x40014800
 8004760:	ffffbfff 	.word	0xffffbfff

08004764 <TIM_OC5_SetConfig>:
  * @param  OC_Config The output configuration structure
  * @retval None
  */
static void TIM_OC5_SetConfig(TIM_TypeDef *TIMx,
                              const TIM_OC_InitTypeDef *OC_Config)
{
 8004764:	b570      	push	{r4, r5, r6, lr}
  uint32_t tmpccmrx;
  uint32_t tmpccer;
  uint32_t tmpcr2;

  /* Get the TIMx CCER register value */
  tmpccer = TIMx->CCER;
 8004766:	6a06      	ldr	r6, [r0, #32]

  /* Disable the output: Reset the CCxE Bit */
  TIMx->CCER &= ~TIM_CCER_CC5E;
 8004768:	4c10      	ldr	r4, [pc, #64]	@ (80047ac <TIM_OC5_SetConfig+0x48>)
 800476a:	6a03      	ldr	r3, [r0, #32]
  tmpcr2 =  TIMx->CR2;
  /* Get the TIMx CCMR1 register value */
  tmpccmrx = TIMx->CCMR3;

  /* Reset the Output Compare Mode Bits */
  tmpccmrx &= ~(TIM_CCMR3_OC5M);
 800476c:	4a10      	ldr	r2, [pc, #64]	@ (80047b0 <TIM_OC5_SetConfig+0x4c>)
  TIMx->CCER &= ~TIM_CCER_CC5E;
 800476e:	4023      	ands	r3, r4
 8004770:	6203      	str	r3, [r0, #32]
  tmpcr2 =  TIMx->CR2;
 8004772:	6843      	ldr	r3, [r0, #4]
  tmpccmrx = TIMx->CCMR3;
 8004774:	6d45      	ldr	r5, [r0, #84]	@ 0x54
  tmpccmrx &= ~(TIM_CCMR3_OC5M);
 8004776:	4015      	ands	r5, r2
  /* Select the Output Compare Mode */
  tmpccmrx |= OC_Config->OCMode;
 8004778:	680a      	ldr	r2, [r1, #0]
 800477a:	4315      	orrs	r5, r2

  /* Reset the Output Polarity level */
  tmpccer &= ~TIM_CCER_CC5P;
 800477c:	4a0d      	ldr	r2, [pc, #52]	@ (80047b4 <TIM_OC5_SetConfig+0x50>)
 800477e:	4016      	ands	r6, r2
  /* Set the Output Compare Polarity */
  tmpccer |= (OC_Config->OCPolarity << 16U);
 8004780:	688a      	ldr	r2, [r1, #8]
 8004782:	0412      	lsls	r2, r2, #16
 8004784:	4332      	orrs	r2, r6

  if (IS_TIM_BREAK_INSTANCE(TIMx))
 8004786:	4e0c      	ldr	r6, [pc, #48]	@ (80047b8 <TIM_OC5_SetConfig+0x54>)
 8004788:	42b0      	cmp	r0, r6
 800478a:	d005      	beq.n	8004798 <TIM_OC5_SetConfig+0x34>
 800478c:	4e0b      	ldr	r6, [pc, #44]	@ (80047bc <TIM_OC5_SetConfig+0x58>)
 800478e:	42b0      	cmp	r0, r6
 8004790:	d002      	beq.n	8004798 <TIM_OC5_SetConfig+0x34>
 8004792:	4e0b      	ldr	r6, [pc, #44]	@ (80047c0 <TIM_OC5_SetConfig+0x5c>)
 8004794:	42b0      	cmp	r0, r6
 8004796:	d103      	bne.n	80047a0 <TIM_OC5_SetConfig+0x3c>
  {
    /* Reset the Output Compare IDLE State */
    tmpcr2 &= ~TIM_CR2_OIS5;
 8004798:	401c      	ands	r4, r3
    /* Set the Output Idle state */
    tmpcr2 |= (OC_Config->OCIdleState << 8U);
 800479a:	694b      	ldr	r3, [r1, #20]
 800479c:	021b      	lsls	r3, r3, #8
 800479e:	4323      	orrs	r3, r4
  }
  /* Write to TIMx CR2 */
  TIMx->CR2 = tmpcr2;
 80047a0:	6043      	str	r3, [r0, #4]

  /* Write to TIMx CCMR3 */
  TIMx->CCMR3 = tmpccmrx;

  /* Set the Capture Compare Register value */
  TIMx->CCR5 = OC_Config->Pulse;
 80047a2:	684b      	ldr	r3, [r1, #4]
  TIMx->CCMR3 = tmpccmrx;
 80047a4:	6545      	str	r5, [r0, #84]	@ 0x54
  TIMx->CCR5 = OC_Config->Pulse;
 80047a6:	6583      	str	r3, [r0, #88]	@ 0x58

  /* Write to TIMx CCER */
  TIMx->CCER = tmpccer;
 80047a8:	6202      	str	r2, [r0, #32]
}
 80047aa:	bd70      	pop	{r4, r5, r6, pc}
 80047ac:	fffeffff 	.word	0xfffeffff
 80047b0:	fffeff8f 	.word	0xfffeff8f
 80047b4:	fffdffff 	.word	0xfffdffff
 80047b8:	40012c00 	.word	0x40012c00
 80047bc:	40014400 	.word	0x40014400
 80047c0:	40014800 	.word	0x40014800

080047c4 <TIM_OC6_SetConfig>:
  * @param  OC_Config The output configuration structure
  * @retval None
  */
static void TIM_OC6_SetConfig(TIM_TypeDef *TIMx,
                              const TIM_OC_InitTypeDef *OC_Config)
{
 80047c4:	b530      	push	{r4, r5, lr}

  /* Get the TIMx CCER register value */
  tmpccer = TIMx->CCER;

  /* Disable the output: Reset the CCxE Bit */
  TIMx->CCER &= ~TIM_CCER_CC6E;
 80047c6:	4a12      	ldr	r2, [pc, #72]	@ (8004810 <TIM_OC6_SetConfig+0x4c>)
  tmpccer = TIMx->CCER;
 80047c8:	6a04      	ldr	r4, [r0, #32]
  TIMx->CCER &= ~TIM_CCER_CC6E;
 80047ca:	6a03      	ldr	r3, [r0, #32]
  tmpcr2 =  TIMx->CR2;
  /* Get the TIMx CCMR1 register value */
  tmpccmrx = TIMx->CCMR3;

  /* Reset the Output Compare Mode Bits */
  tmpccmrx &= ~(TIM_CCMR3_OC6M);
 80047cc:	4d11      	ldr	r5, [pc, #68]	@ (8004814 <TIM_OC6_SetConfig+0x50>)
  TIMx->CCER &= ~TIM_CCER_CC6E;
 80047ce:	4013      	ands	r3, r2
 80047d0:	6203      	str	r3, [r0, #32]
  tmpcr2 =  TIMx->CR2;
 80047d2:	6843      	ldr	r3, [r0, #4]
  tmpccmrx = TIMx->CCMR3;
 80047d4:	6d42      	ldr	r2, [r0, #84]	@ 0x54
  tmpccmrx &= ~(TIM_CCMR3_OC6M);
 80047d6:	402a      	ands	r2, r5
  /* Select the Output Compare Mode */
  tmpccmrx |= (OC_Config->OCMode << 8U);
 80047d8:	680d      	ldr	r5, [r1, #0]
 80047da:	022d      	lsls	r5, r5, #8
 80047dc:	4315      	orrs	r5, r2

  /* Reset the Output Polarity level */
  tmpccer &= (uint32_t)~TIM_CCER_CC6P;
 80047de:	4a0e      	ldr	r2, [pc, #56]	@ (8004818 <TIM_OC6_SetConfig+0x54>)
 80047e0:	4014      	ands	r4, r2
  /* Set the Output Compare Polarity */
  tmpccer |= (OC_Config->OCPolarity << 20U);
 80047e2:	688a      	ldr	r2, [r1, #8]
 80047e4:	0512      	lsls	r2, r2, #20
 80047e6:	4322      	orrs	r2, r4

  if (IS_TIM_BREAK_INSTANCE(TIMx))
 80047e8:	4c0c      	ldr	r4, [pc, #48]	@ (800481c <TIM_OC6_SetConfig+0x58>)
 80047ea:	42a0      	cmp	r0, r4
 80047ec:	d005      	beq.n	80047fa <TIM_OC6_SetConfig+0x36>
 80047ee:	4c0c      	ldr	r4, [pc, #48]	@ (8004820 <TIM_OC6_SetConfig+0x5c>)
 80047f0:	42a0      	cmp	r0, r4
 80047f2:	d002      	beq.n	80047fa <TIM_OC6_SetConfig+0x36>
 80047f4:	4c0b      	ldr	r4, [pc, #44]	@ (8004824 <TIM_OC6_SetConfig+0x60>)
 80047f6:	42a0      	cmp	r0, r4
 80047f8:	d104      	bne.n	8004804 <TIM_OC6_SetConfig+0x40>
  {
    /* Reset the Output Compare IDLE State */
    tmpcr2 &= ~TIM_CR2_OIS6;
 80047fa:	4c0b      	ldr	r4, [pc, #44]	@ (8004828 <TIM_OC6_SetConfig+0x64>)
 80047fc:	401c      	ands	r4, r3
    /* Set the Output Idle state */
    tmpcr2 |= (OC_Config->OCIdleState << 10U);
 80047fe:	694b      	ldr	r3, [r1, #20]
 8004800:	029b      	lsls	r3, r3, #10
 8004802:	4323      	orrs	r3, r4
  }

  /* Write to TIMx CR2 */
  TIMx->CR2 = tmpcr2;
 8004804:	6043      	str	r3, [r0, #4]

  /* Write to TIMx CCMR3 */
  TIMx->CCMR3 = tmpccmrx;

  /* Set the Capture Compare Register value */
  TIMx->CCR6 = OC_Config->Pulse;
 8004806:	684b      	ldr	r3, [r1, #4]
  TIMx->CCMR3 = tmpccmrx;
 8004808:	6545      	str	r5, [r0, #84]	@ 0x54
  TIMx->CCR6 = OC_Config->Pulse;
 800480a:	65c3      	str	r3, [r0, #92]	@ 0x5c

  /* Write to TIMx CCER */
  TIMx->CCER = tmpccer;
 800480c:	6202      	str	r2, [r0, #32]
}
 800480e:	bd30      	pop	{r4, r5, pc}
 8004810:	ffefffff 	.word	0xffefffff
 8004814:	feff8fff 	.word	0xfeff8fff
 8004818:	ffdfffff 	.word	0xffdfffff
 800481c:	40012c00 	.word	0x40012c00
 8004820:	40014400 	.word	0x40014400
 8004824:	40014800 	.word	0x40014800
 8004828:	fffbffff 	.word	0xfffbffff

0800482c <TIM_TI1_ConfigInputStage>:
  * @param  TIM_ICFilter Specifies the Input Capture Filter.
  *          This parameter must be a value between 0x00 and 0x0F.
  * @retval None
  */
static void TIM_TI1_ConfigInputStage(TIM_TypeDef *TIMx, uint32_t TIM_ICPolarity, uint32_t TIM_ICFilter)
{
 800482c:	b530      	push	{r4, r5, lr}

  /* Get the TIMx CCER register value */
  tmpccer = TIMx->CCER;

  /* Disable the Channel 1: Reset the CC1E Bit */
  TIMx->CCER &= ~TIM_CCER_CC1E;
 800482e:	2501      	movs	r5, #1
{
 8004830:	000b      	movs	r3, r1
  tmpccer = TIMx->CCER;
 8004832:	6a01      	ldr	r1, [r0, #32]
  TIMx->CCER &= ~TIM_CCER_CC1E;
 8004834:	6a04      	ldr	r4, [r0, #32]
 8004836:	43ac      	bics	r4, r5
 8004838:	6204      	str	r4, [r0, #32]
  /* Disable the Channel 1N: Reset the CC1NE Bit */
  if (IS_TIM_CCXN_INSTANCE(TIMx, TIM_CHANNEL_1))
 800483a:	4c0c      	ldr	r4, [pc, #48]	@ (800486c <TIM_TI1_ConfigInputStage+0x40>)
 800483c:	42a0      	cmp	r0, r4
 800483e:	d005      	beq.n	800484c <TIM_TI1_ConfigInputStage+0x20>
 8004840:	4c0b      	ldr	r4, [pc, #44]	@ (8004870 <TIM_TI1_ConfigInputStage+0x44>)
 8004842:	42a0      	cmp	r0, r4
 8004844:	d002      	beq.n	800484c <TIM_TI1_ConfigInputStage+0x20>
 8004846:	4c0b      	ldr	r4, [pc, #44]	@ (8004874 <TIM_TI1_ConfigInputStage+0x48>)
 8004848:	42a0      	cmp	r0, r4
 800484a:	d103      	bne.n	8004854 <TIM_TI1_ConfigInputStage+0x28>
  {
    TIMx->CCER &= ~TIM_CCER_CC1NE;
 800484c:	2504      	movs	r5, #4
 800484e:	6a04      	ldr	r4, [r0, #32]
 8004850:	43ac      	bics	r4, r5
 8004852:	6204      	str	r4, [r0, #32]

  /* Get the TIMx CCMR1 register value */
  tmpccmr1 = TIMx->CCMR1;

  /* Set the filter */
  tmpccmr1 &= ~TIM_CCMR1_IC1F;
 8004854:	25f0      	movs	r5, #240	@ 0xf0
  tmpccmr1 = TIMx->CCMR1;
 8004856:	6984      	ldr	r4, [r0, #24]
  tmpccmr1 |= (TIM_ICFilter << 4U);
 8004858:	0112      	lsls	r2, r2, #4
  tmpccmr1 &= ~TIM_CCMR1_IC1F;
 800485a:	43ac      	bics	r4, r5
  tmpccmr1 |= (TIM_ICFilter << 4U);
 800485c:	4322      	orrs	r2, r4

  /* Select the Polarity and set the CC1E Bit */
  tmpccer &= ~(TIM_CCER_CC1P | TIM_CCER_CC1NP);
 800485e:	240a      	movs	r4, #10
 8004860:	43a1      	bics	r1, r4
  tmpccer |= TIM_ICPolarity;
 8004862:	4319      	orrs	r1, r3

  /* Write to TIMx CCMR1 and CCER registers */
  TIMx->CCMR1 = tmpccmr1;
 8004864:	6182      	str	r2, [r0, #24]
  TIMx->CCER = tmpccer;
 8004866:	6201      	str	r1, [r0, #32]
}
 8004868:	bd30      	pop	{r4, r5, pc}
 800486a:	46c0      	nop			@ (mov r8, r8)
 800486c:	40012c00 	.word	0x40012c00
 8004870:	40014400 	.word	0x40014400
 8004874:	40014800 	.word	0x40014800

08004878 <TIM_TI2_ConfigInputStage>:
  * @param  TIM_ICFilter Specifies the Input Capture Filter.
  *          This parameter must be a value between 0x00 and 0x0F.
  * @retval None
  */
static void TIM_TI2_ConfigInputStage(TIM_TypeDef *TIMx, uint32_t TIM_ICPolarity, uint32_t TIM_ICFilter)
{
 8004878:	b530      	push	{r4, r5, lr}

  /* Get the TIMx CCER register value */
  tmpccer = TIMx->CCER;

  /* Disable the Channel 2: Reset the CC2E Bit */
  TIMx->CCER &= ~TIM_CCER_CC2E;
 800487a:	2510      	movs	r5, #16
  tmpccer = TIMx->CCER;
 800487c:	6a03      	ldr	r3, [r0, #32]
  TIMx->CCER &= ~TIM_CCER_CC2E;
 800487e:	6a04      	ldr	r4, [r0, #32]
 8004880:	43ac      	bics	r4, r5
 8004882:	6204      	str	r4, [r0, #32]
  /* Disable the Channel 2N: Reset the CC2NE Bit */
  if (IS_TIM_CCXN_INSTANCE(TIMx, TIM_CHANNEL_2))
 8004884:	4c09      	ldr	r4, [pc, #36]	@ (80048ac <TIM_TI2_ConfigInputStage+0x34>)
 8004886:	42a0      	cmp	r0, r4
 8004888:	d103      	bne.n	8004892 <TIM_TI2_ConfigInputStage+0x1a>
  {
    TIMx->CCER &= ~TIM_CCER_CC2NE;
 800488a:	6a04      	ldr	r4, [r0, #32]
 800488c:	3530      	adds	r5, #48	@ 0x30
 800488e:	43ac      	bics	r4, r5
 8004890:	6204      	str	r4, [r0, #32]
  }

  /* Get the TIMx CCMR1 register value */
  tmpccmr1 = TIMx->CCMR1;
 8004892:	6984      	ldr	r4, [r0, #24]

  /* Set the filter */
  tmpccmr1 &= ~TIM_CCMR1_IC2F;
 8004894:	4d06      	ldr	r5, [pc, #24]	@ (80048b0 <TIM_TI2_ConfigInputStage+0x38>)
  tmpccmr1 |= (TIM_ICFilter << 12U);
 8004896:	0312      	lsls	r2, r2, #12
  tmpccmr1 &= ~TIM_CCMR1_IC2F;
 8004898:	402c      	ands	r4, r5
  tmpccmr1 |= (TIM_ICFilter << 12U);
 800489a:	4322      	orrs	r2, r4

  /* Select the Polarity and set the CC2E Bit */
  tmpccer &= ~(TIM_CCER_CC2P | TIM_CCER_CC2NP);
 800489c:	24a0      	movs	r4, #160	@ 0xa0
 800489e:	43a3      	bics	r3, r4
  tmpccer |= (TIM_ICPolarity << 4U);
 80048a0:	0109      	lsls	r1, r1, #4
 80048a2:	4319      	orrs	r1, r3

  /* Write to TIMx CCMR1 and CCER registers */
  TIMx->CCMR1 = tmpccmr1 ;
 80048a4:	6182      	str	r2, [r0, #24]
  TIMx->CCER = tmpccer;
 80048a6:	6201      	str	r1, [r0, #32]
}
 80048a8:	bd30      	pop	{r4, r5, pc}
 80048aa:	46c0      	nop			@ (mov r8, r8)
 80048ac:	40012c00 	.word	0x40012c00
 80048b0:	ffff0fff 	.word	0xffff0fff

080048b4 <HAL_TIM_PWM_MspInit>:
__weak void HAL_TIM_PWM_MspInit(TIM_HandleTypeDef *htim)
 80048b4:	4770      	bx	lr
	...

080048b8 <TIM_Base_SetConfig>:
{
 80048b8:	b510      	push	{r4, lr}
  if (IS_TIM_COUNTER_MODE_SELECT_INSTANCE(TIMx))
 80048ba:	4c1b      	ldr	r4, [pc, #108]	@ (8004928 <TIM_Base_SetConfig+0x70>)
  tmpcr1 = TIMx->CR1;
 80048bc:	6803      	ldr	r3, [r0, #0]
  if (IS_TIM_COUNTER_MODE_SELECT_INSTANCE(TIMx))
 80048be:	42a0      	cmp	r0, r4
 80048c0:	d00a      	beq.n	80048d8 <TIM_Base_SetConfig+0x20>
 80048c2:	4a1a      	ldr	r2, [pc, #104]	@ (800492c <TIM_Base_SetConfig+0x74>)
 80048c4:	4290      	cmp	r0, r2
 80048c6:	d007      	beq.n	80048d8 <TIM_Base_SetConfig+0x20>
  if (IS_TIM_CLOCK_DIVISION_INSTANCE(TIMx))
 80048c8:	4a19      	ldr	r2, [pc, #100]	@ (8004930 <TIM_Base_SetConfig+0x78>)
 80048ca:	4290      	cmp	r0, r2
 80048cc:	d109      	bne.n	80048e2 <TIM_Base_SetConfig+0x2a>
    tmpcr1 &= ~TIM_CR1_CKD;
 80048ce:	4a19      	ldr	r2, [pc, #100]	@ (8004934 <TIM_Base_SetConfig+0x7c>)
 80048d0:	401a      	ands	r2, r3
    tmpcr1 |= (uint32_t)Structure->ClockDivision;
 80048d2:	68cb      	ldr	r3, [r1, #12]
 80048d4:	4313      	orrs	r3, r2
 80048d6:	e00a      	b.n	80048ee <TIM_Base_SetConfig+0x36>
    tmpcr1 &= ~(TIM_CR1_DIR | TIM_CR1_CMS);
 80048d8:	2270      	movs	r2, #112	@ 0x70
 80048da:	4393      	bics	r3, r2
    tmpcr1 |= Structure->CounterMode;
 80048dc:	684a      	ldr	r2, [r1, #4]
 80048de:	4313      	orrs	r3, r2
  if (IS_TIM_CLOCK_DIVISION_INSTANCE(TIMx))
 80048e0:	e7f5      	b.n	80048ce <TIM_Base_SetConfig+0x16>
 80048e2:	4a15      	ldr	r2, [pc, #84]	@ (8004938 <TIM_Base_SetConfig+0x80>)
 80048e4:	4290      	cmp	r0, r2
 80048e6:	d0f2      	beq.n	80048ce <TIM_Base_SetConfig+0x16>
 80048e8:	4a14      	ldr	r2, [pc, #80]	@ (800493c <TIM_Base_SetConfig+0x84>)
 80048ea:	4290      	cmp	r0, r2
 80048ec:	d0ef      	beq.n	80048ce <TIM_Base_SetConfig+0x16>
  MODIFY_REG(tmpcr1, TIM_CR1_ARPE, Structure->AutoReloadPreload);
 80048ee:	2280      	movs	r2, #128	@ 0x80
 80048f0:	4393      	bics	r3, r2
 80048f2:	694a      	ldr	r2, [r1, #20]
 80048f4:	4313      	orrs	r3, r2
  TIMx->ARR = (uint32_t)Structure->Period ;
 80048f6:	688a      	ldr	r2, [r1, #8]
 80048f8:	62c2      	str	r2, [r0, #44]	@ 0x2c
  TIMx->PSC = Structure->Prescaler;
 80048fa:	680a      	ldr	r2, [r1, #0]
 80048fc:	6282      	str	r2, [r0, #40]	@ 0x28
  if (IS_TIM_REPETITION_COUNTER_INSTANCE(TIMx))
 80048fe:	42a0      	cmp	r0, r4
 8004900:	d005      	beq.n	800490e <TIM_Base_SetConfig+0x56>
 8004902:	4a0d      	ldr	r2, [pc, #52]	@ (8004938 <TIM_Base_SetConfig+0x80>)
 8004904:	4290      	cmp	r0, r2
 8004906:	d002      	beq.n	800490e <TIM_Base_SetConfig+0x56>
 8004908:	4a0c      	ldr	r2, [pc, #48]	@ (800493c <TIM_Base_SetConfig+0x84>)
 800490a:	4290      	cmp	r0, r2
 800490c:	d101      	bne.n	8004912 <TIM_Base_SetConfig+0x5a>
    TIMx->RCR = Structure->RepetitionCounter;
 800490e:	690a      	ldr	r2, [r1, #16]
 8004910:	6302      	str	r2, [r0, #48]	@ 0x30
  SET_BIT(TIMx->CR1, TIM_CR1_URS);
 8004912:	2204      	movs	r2, #4
 8004914:	6801      	ldr	r1, [r0, #0]
 8004916:	430a      	orrs	r2, r1
 8004918:	6002      	str	r2, [r0, #0]
  TIMx->EGR = TIM_EGR_UG;
 800491a:	2201      	movs	r2, #1
 800491c:	6142      	str	r2, [r0, #20]
  \details Acts as a special kind of Data Memory Barrier.
           It completes when all explicit memory accesses before this instruction complete.
 */
__STATIC_FORCEINLINE void __DSB(void)
{
  __ASM volatile ("dsb 0xF":::"memory");
 800491e:	f3bf 8f4f 	dsb	sy
  TIMx->CR1 = tmpcr1;
 8004922:	6003      	str	r3, [r0, #0]
}
 8004924:	bd10      	pop	{r4, pc}
 8004926:	46c0      	nop			@ (mov r8, r8)
 8004928:	40012c00 	.word	0x40012c00
 800492c:	40000400 	.word	0x40000400
 8004930:	40002000 	.word	0x40002000
 8004934:	fffffcff 	.word	0xfffffcff
 8004938:	40014400 	.word	0x40014400
 800493c:	40014800 	.word	0x40014800

08004940 <HAL_TIM_Base_Init>:
{
 8004940:	b570      	push	{r4, r5, r6, lr}
 8004942:	0004      	movs	r4, r0
    return HAL_ERROR;
 8004944:	2001      	movs	r0, #1
  if (htim == NULL)
 8004946:	2c00      	cmp	r4, #0
 8004948:	d023      	beq.n	8004992 <HAL_TIM_Base_Init+0x52>
  if (htim->State == HAL_TIM_STATE_RESET)
 800494a:	0025      	movs	r5, r4
 800494c:	353d      	adds	r5, #61	@ 0x3d
 800494e:	782b      	ldrb	r3, [r5, #0]
 8004950:	b2da      	uxtb	r2, r3
 8004952:	2b00      	cmp	r3, #0
 8004954:	d105      	bne.n	8004962 <HAL_TIM_Base_Init+0x22>
    htim->Lock = HAL_UNLOCKED;
 8004956:	0023      	movs	r3, r4
 8004958:	333c      	adds	r3, #60	@ 0x3c
    HAL_TIM_Base_MspInit(htim);
 800495a:	0020      	movs	r0, r4
    htim->Lock = HAL_UNLOCKED;
 800495c:	701a      	strb	r2, [r3, #0]
    HAL_TIM_Base_MspInit(htim);
 800495e:	f7fd facb 	bl	8001ef8 <HAL_TIM_Base_MspInit>
  htim->State = HAL_TIM_STATE_BUSY;
 8004962:	2302      	movs	r3, #2
 8004964:	702b      	strb	r3, [r5, #0]
  TIM_Base_SetConfig(htim->Instance, &htim->Init);
 8004966:	6820      	ldr	r0, [r4, #0]
 8004968:	1d21      	adds	r1, r4, #4
 800496a:	f7ff ffa5 	bl	80048b8 <TIM_Base_SetConfig>
  htim->DMABurstState = HAL_DMA_BURST_STATE_READY;
 800496e:	0022      	movs	r2, r4
 8004970:	2301      	movs	r3, #1
  return HAL_OK;
 8004972:	2000      	movs	r0, #0
  htim->DMABurstState = HAL_DMA_BURST_STATE_READY;
 8004974:	3248      	adds	r2, #72	@ 0x48
 8004976:	7013      	strb	r3, [r2, #0]
  TIM_CHANNEL_N_STATE_SET_ALL(htim, HAL_TIM_CHANNEL_STATE_READY);
 8004978:	3447      	adds	r4, #71	@ 0x47
  TIM_CHANNEL_STATE_SET_ALL(htim, HAL_TIM_CHANNEL_STATE_READY);
 800497a:	3a0a      	subs	r2, #10
 800497c:	7013      	strb	r3, [r2, #0]
 800497e:	7053      	strb	r3, [r2, #1]
 8004980:	7093      	strb	r3, [r2, #2]
 8004982:	70d3      	strb	r3, [r2, #3]
 8004984:	7113      	strb	r3, [r2, #4]
 8004986:	7153      	strb	r3, [r2, #5]
  TIM_CHANNEL_N_STATE_SET_ALL(htim, HAL_TIM_CHANNEL_STATE_READY);
 8004988:	7193      	strb	r3, [r2, #6]
 800498a:	71d3      	strb	r3, [r2, #7]
 800498c:	7213      	strb	r3, [r2, #8]
 800498e:	7023      	strb	r3, [r4, #0]
  htim->State = HAL_TIM_STATE_READY;
 8004990:	702b      	strb	r3, [r5, #0]
}
 8004992:	bd70      	pop	{r4, r5, r6, pc}

08004994 <HAL_TIM_PWM_Init>:
{
 8004994:	b570      	push	{r4, r5, r6, lr}
 8004996:	0004      	movs	r4, r0
    return HAL_ERROR;
 8004998:	2001      	movs	r0, #1
  if (htim == NULL)
 800499a:	2c00      	cmp	r4, #0
 800499c:	d023      	beq.n	80049e6 <HAL_TIM_PWM_Init+0x52>
  if (htim->State == HAL_TIM_STATE_RESET)
 800499e:	0025      	movs	r5, r4
 80049a0:	353d      	adds	r5, #61	@ 0x3d
 80049a2:	782b      	ldrb	r3, [r5, #0]
 80049a4:	b2da      	uxtb	r2, r3
 80049a6:	2b00      	cmp	r3, #0
 80049a8:	d105      	bne.n	80049b6 <HAL_TIM_PWM_Init+0x22>
    htim->Lock = HAL_UNLOCKED;
 80049aa:	0023      	movs	r3, r4
 80049ac:	333c      	adds	r3, #60	@ 0x3c
    HAL_TIM_PWM_MspInit(htim);
 80049ae:	0020      	movs	r0, r4
    htim->Lock = HAL_UNLOCKED;
 80049b0:	701a      	strb	r2, [r3, #0]
    HAL_TIM_PWM_MspInit(htim);
 80049b2:	f7ff ff7f 	bl	80048b4 <HAL_TIM_PWM_MspInit>
  htim->State = HAL_TIM_STATE_BUSY;
 80049b6:	2302      	movs	r3, #2
 80049b8:	702b      	strb	r3, [r5, #0]
  TIM_Base_SetConfig(htim->Instance, &htim->Init);
 80049ba:	6820      	ldr	r0, [r4, #0]
 80049bc:	1d21      	adds	r1, r4, #4
 80049be:	f7ff ff7b 	bl	80048b8 <TIM_Base_SetConfig>
  htim->DMABurstState = HAL_DMA_BURST_STATE_READY;
 80049c2:	0022      	movs	r2, r4
 80049c4:	2301      	movs	r3, #1
  return HAL_OK;
 80049c6:	2000      	movs	r0, #0
  htim->DMABurstState = HAL_DMA_BURST_STATE_READY;
 80049c8:	3248      	adds	r2, #72	@ 0x48
 80049ca:	7013      	strb	r3, [r2, #0]
  TIM_CHANNEL_N_STATE_SET_ALL(htim, HAL_TIM_CHANNEL_STATE_READY);
 80049cc:	3447      	adds	r4, #71	@ 0x47
  TIM_CHANNEL_STATE_SET_ALL(htim, HAL_TIM_CHANNEL_STATE_READY);
 80049ce:	3a0a      	subs	r2, #10
 80049d0:	7013      	strb	r3, [r2, #0]
 80049d2:	7053      	strb	r3, [r2, #1]
 80049d4:	7093      	strb	r3, [r2, #2]
 80049d6:	70d3      	strb	r3, [r2, #3]
 80049d8:	7113      	strb	r3, [r2, #4]
 80049da:	7153      	strb	r3, [r2, #5]
  TIM_CHANNEL_N_STATE_SET_ALL(htim, HAL_TIM_CHANNEL_STATE_READY);
 80049dc:	7193      	strb	r3, [r2, #6]
 80049de:	71d3      	strb	r3, [r2, #7]
 80049e0:	7213      	strb	r3, [r2, #8]
 80049e2:	7023      	strb	r3, [r4, #0]
  htim->State = HAL_TIM_STATE_READY;
 80049e4:	702b      	strb	r3, [r5, #0]
}
 80049e6:	bd70      	pop	{r4, r5, r6, pc}

080049e8 <TIM_OC2_SetConfig>:
  TIMx->CCER &= ~TIM_CCER_CC2E;
 80049e8:	2210      	movs	r2, #16
{
 80049ea:	b570      	push	{r4, r5, r6, lr}
  tmpccer = TIMx->CCER;
 80049ec:	6a05      	ldr	r5, [r0, #32]
  TIMx->CCER &= ~TIM_CCER_CC2E;
 80049ee:	6a03      	ldr	r3, [r0, #32]
  tmpccmrx &= ~TIM_CCMR1_CC2S;
 80049f0:	4c17      	ldr	r4, [pc, #92]	@ (8004a50 <TIM_OC2_SetConfig+0x68>)
  TIMx->CCER &= ~TIM_CCER_CC2E;
 80049f2:	4393      	bics	r3, r2
 80049f4:	6203      	str	r3, [r0, #32]
  tmpcr2 =  TIMx->CR2;
 80049f6:	6842      	ldr	r2, [r0, #4]
  tmpccmrx = TIMx->CCMR1;
 80049f8:	6983      	ldr	r3, [r0, #24]
  tmpccmrx &= ~TIM_CCMR1_CC2S;
 80049fa:	4023      	ands	r3, r4
  tmpccmrx |= (OC_Config->OCMode << 8U);
 80049fc:	680c      	ldr	r4, [r1, #0]
 80049fe:	0224      	lsls	r4, r4, #8
 8004a00:	431c      	orrs	r4, r3
  tmpccer &= ~TIM_CCER_CC2P;
 8004a02:	2320      	movs	r3, #32
 8004a04:	439d      	bics	r5, r3
  tmpccer |= (OC_Config->OCPolarity << 4U);
 8004a06:	688b      	ldr	r3, [r1, #8]
 8004a08:	011b      	lsls	r3, r3, #4
 8004a0a:	432b      	orrs	r3, r5
  if (IS_TIM_CCXN_INSTANCE(TIMx, TIM_CHANNEL_2))
 8004a0c:	4d11      	ldr	r5, [pc, #68]	@ (8004a54 <TIM_OC2_SetConfig+0x6c>)
 8004a0e:	42a8      	cmp	r0, r5
 8004a10:	d00a      	beq.n	8004a28 <TIM_OC2_SetConfig+0x40>
  if (IS_TIM_BREAK_INSTANCE(TIMx))
 8004a12:	4d11      	ldr	r5, [pc, #68]	@ (8004a58 <TIM_OC2_SetConfig+0x70>)
 8004a14:	42a8      	cmp	r0, r5
 8004a16:	d111      	bne.n	8004a3c <TIM_OC2_SetConfig+0x54>
    tmpcr2 &= ~TIM_CR2_OIS2N;
 8004a18:	4d10      	ldr	r5, [pc, #64]	@ (8004a5c <TIM_OC2_SetConfig+0x74>)
    tmpcr2 |= (OC_Config->OCNIdleState << 2U);
 8004a1a:	698e      	ldr	r6, [r1, #24]
    tmpcr2 &= ~TIM_CR2_OIS2N;
 8004a1c:	4015      	ands	r5, r2
    tmpcr2 |= (OC_Config->OCNIdleState << 2U);
 8004a1e:	694a      	ldr	r2, [r1, #20]
 8004a20:	4332      	orrs	r2, r6
 8004a22:	0092      	lsls	r2, r2, #2
 8004a24:	432a      	orrs	r2, r5
 8004a26:	e00c      	b.n	8004a42 <TIM_OC2_SetConfig+0x5a>
    TIMx->CCER &= ~TIM_CCER_CC2NE;
 8004a28:	2640      	movs	r6, #64	@ 0x40
 8004a2a:	6a05      	ldr	r5, [r0, #32]
 8004a2c:	43b5      	bics	r5, r6
 8004a2e:	6205      	str	r5, [r0, #32]
    tmpccer &= ~TIM_CCER_CC2NP;
 8004a30:	2580      	movs	r5, #128	@ 0x80
 8004a32:	43ab      	bics	r3, r5
    tmpccer |= (OC_Config->OCNPolarity << 4U);
 8004a34:	68cd      	ldr	r5, [r1, #12]
 8004a36:	012d      	lsls	r5, r5, #4
 8004a38:	432b      	orrs	r3, r5
  if (IS_TIM_BREAK_INSTANCE(TIMx))
 8004a3a:	e7ed      	b.n	8004a18 <TIM_OC2_SetConfig+0x30>
 8004a3c:	4d08      	ldr	r5, [pc, #32]	@ (8004a60 <TIM_OC2_SetConfig+0x78>)
 8004a3e:	42a8      	cmp	r0, r5
 8004a40:	d0ea      	beq.n	8004a18 <TIM_OC2_SetConfig+0x30>
  TIMx->CR2 = tmpcr2;
 8004a42:	6042      	str	r2, [r0, #4]
  TIMx->CCR2 = OC_Config->Pulse;
 8004a44:	684a      	ldr	r2, [r1, #4]
  TIMx->CCMR1 = tmpccmrx;
 8004a46:	6184      	str	r4, [r0, #24]
  TIMx->CCR2 = OC_Config->Pulse;
 8004a48:	6382      	str	r2, [r0, #56]	@ 0x38
  TIMx->CCER = tmpccer;
 8004a4a:	6203      	str	r3, [r0, #32]
}
 8004a4c:	bd70      	pop	{r4, r5, r6, pc}
 8004a4e:	46c0      	nop			@ (mov r8, r8)
 8004a50:	feff8cff 	.word	0xfeff8cff
 8004a54:	40012c00 	.word	0x40012c00
 8004a58:	40014400 	.word	0x40014400
 8004a5c:	fffff3ff 	.word	0xfffff3ff
 8004a60:	40014800 	.word	0x40014800

08004a64 <HAL_TIM_PWM_ConfigChannel>:
{
 8004a64:	b5f8      	push	{r3, r4, r5, r6, r7, lr}
  __HAL_LOCK(htim);
 8004a66:	0007      	movs	r7, r0
 8004a68:	373c      	adds	r7, #60	@ 0x3c
{
 8004a6a:	0015      	movs	r5, r2
  __HAL_LOCK(htim);
 8004a6c:	783a      	ldrb	r2, [r7, #0]
{
 8004a6e:	0003      	movs	r3, r0
 8004a70:	000c      	movs	r4, r1
  __HAL_LOCK(htim);
 8004a72:	2002      	movs	r0, #2
 8004a74:	2a01      	cmp	r2, #1
 8004a76:	d00c      	beq.n	8004a92 <HAL_TIM_PWM_ConfigChannel+0x2e>
 8004a78:	3801      	subs	r0, #1
 8004a7a:	7038      	strb	r0, [r7, #0]
  switch (Channel)
 8004a7c:	2d0c      	cmp	r5, #12
 8004a7e:	d051      	beq.n	8004b24 <HAL_TIM_PWM_ConfigChannel+0xc0>
 8004a80:	d808      	bhi.n	8004a94 <HAL_TIM_PWM_ConfigChannel+0x30>
 8004a82:	2d04      	cmp	r5, #4
 8004a84:	d02d      	beq.n	8004ae2 <HAL_TIM_PWM_ConfigChannel+0x7e>
 8004a86:	2d08      	cmp	r5, #8
 8004a88:	d03c      	beq.n	8004b04 <HAL_TIM_PWM_ConfigChannel+0xa0>
 8004a8a:	2d00      	cmp	r5, #0
 8004a8c:	d017      	beq.n	8004abe <HAL_TIM_PWM_ConfigChannel+0x5a>
  __HAL_UNLOCK(htim);
 8004a8e:	2300      	movs	r3, #0
 8004a90:	703b      	strb	r3, [r7, #0]
}
 8004a92:	bdf8      	pop	{r3, r4, r5, r6, r7, pc}
  switch (Channel)
 8004a94:	2d10      	cmp	r5, #16
 8004a96:	d058      	beq.n	8004b4a <HAL_TIM_PWM_ConfigChannel+0xe6>
 8004a98:	2d14      	cmp	r5, #20
 8004a9a:	d1f8      	bne.n	8004a8e <HAL_TIM_PWM_ConfigChannel+0x2a>
      TIM_OC6_SetConfig(htim->Instance, sConfig);
 8004a9c:	681d      	ldr	r5, [r3, #0]
 8004a9e:	0028      	movs	r0, r5
 8004aa0:	f7ff fe90 	bl	80047c4 <TIM_OC6_SetConfig>
      htim->Instance->CCMR3 |= TIM_CCMR3_OC6PE;
 8004aa4:	2380      	movs	r3, #128	@ 0x80
 8004aa6:	6d6a      	ldr	r2, [r5, #84]	@ 0x54
 8004aa8:	011b      	lsls	r3, r3, #4
 8004aaa:	4313      	orrs	r3, r2
 8004aac:	656b      	str	r3, [r5, #84]	@ 0x54
      htim->Instance->CCMR3 &= ~TIM_CCMR3_OC6FE;
 8004aae:	6d6b      	ldr	r3, [r5, #84]	@ 0x54
 8004ab0:	4a2e      	ldr	r2, [pc, #184]	@ (8004b6c <HAL_TIM_PWM_ConfigChannel+0x108>)
 8004ab2:	4013      	ands	r3, r2
 8004ab4:	656b      	str	r3, [r5, #84]	@ 0x54
      htim->Instance->CCMR3 |= sConfig->OCFastMode << 8U;
 8004ab6:	6923      	ldr	r3, [r4, #16]
 8004ab8:	6d6a      	ldr	r2, [r5, #84]	@ 0x54
 8004aba:	021b      	lsls	r3, r3, #8
 8004abc:	e053      	b.n	8004b66 <HAL_TIM_PWM_ConfigChannel+0x102>
      TIM_OC1_SetConfig(htim->Instance, sConfig);
 8004abe:	681d      	ldr	r5, [r3, #0]
 8004ac0:	0028      	movs	r0, r5
 8004ac2:	f7ff fd9f 	bl	8004604 <TIM_OC1_SetConfig>
      htim->Instance->CCMR1 |= TIM_CCMR1_OC1PE;
 8004ac6:	2308      	movs	r3, #8
 8004ac8:	69aa      	ldr	r2, [r5, #24]
 8004aca:	4313      	orrs	r3, r2
      htim->Instance->CCMR1 &= ~TIM_CCMR1_OC1FE;
 8004acc:	2204      	movs	r2, #4
      htim->Instance->CCMR1 |= TIM_CCMR1_OC1PE;
 8004ace:	61ab      	str	r3, [r5, #24]
      htim->Instance->CCMR1 &= ~TIM_CCMR1_OC1FE;
 8004ad0:	69ab      	ldr	r3, [r5, #24]
 8004ad2:	4393      	bics	r3, r2
 8004ad4:	61ab      	str	r3, [r5, #24]
      htim->Instance->CCMR1 |= sConfig->OCFastMode;
 8004ad6:	69ab      	ldr	r3, [r5, #24]
 8004ad8:	6922      	ldr	r2, [r4, #16]
      htim->Instance->CCMR1 |= sConfig->OCFastMode << 8U;
 8004ada:	4313      	orrs	r3, r2
 8004adc:	61ab      	str	r3, [r5, #24]
  HAL_StatusTypeDef status = HAL_OK;
 8004ade:	2000      	movs	r0, #0
 8004ae0:	e7d5      	b.n	8004a8e <HAL_TIM_PWM_ConfigChannel+0x2a>
      TIM_OC2_SetConfig(htim->Instance, sConfig);
 8004ae2:	681d      	ldr	r5, [r3, #0]
 8004ae4:	0028      	movs	r0, r5
 8004ae6:	f7ff ff7f 	bl	80049e8 <TIM_OC2_SetConfig>
      htim->Instance->CCMR1 |= TIM_CCMR1_OC2PE;
 8004aea:	2380      	movs	r3, #128	@ 0x80
 8004aec:	69aa      	ldr	r2, [r5, #24]
 8004aee:	011b      	lsls	r3, r3, #4
 8004af0:	4313      	orrs	r3, r2
 8004af2:	61ab      	str	r3, [r5, #24]
      htim->Instance->CCMR1 &= ~TIM_CCMR1_OC2FE;
 8004af4:	69ab      	ldr	r3, [r5, #24]
 8004af6:	4a1d      	ldr	r2, [pc, #116]	@ (8004b6c <HAL_TIM_PWM_ConfigChannel+0x108>)
 8004af8:	4013      	ands	r3, r2
 8004afa:	61ab      	str	r3, [r5, #24]
      htim->Instance->CCMR1 |= sConfig->OCFastMode << 8U;
 8004afc:	6923      	ldr	r3, [r4, #16]
 8004afe:	69aa      	ldr	r2, [r5, #24]
 8004b00:	021b      	lsls	r3, r3, #8
 8004b02:	e7ea      	b.n	8004ada <HAL_TIM_PWM_ConfigChannel+0x76>
      TIM_OC3_SetConfig(htim->Instance, sConfig);
 8004b04:	681e      	ldr	r6, [r3, #0]
 8004b06:	0030      	movs	r0, r6
 8004b08:	f7ff fdb4 	bl	8004674 <TIM_OC3_SetConfig>
      htim->Instance->CCMR2 &= ~TIM_CCMR2_OC3FE;
 8004b0c:	2204      	movs	r2, #4
      htim->Instance->CCMR2 |= TIM_CCMR2_OC3PE;
 8004b0e:	69f3      	ldr	r3, [r6, #28]
 8004b10:	431d      	orrs	r5, r3
 8004b12:	61f5      	str	r5, [r6, #28]
      htim->Instance->CCMR2 &= ~TIM_CCMR2_OC3FE;
 8004b14:	69f3      	ldr	r3, [r6, #28]
 8004b16:	4393      	bics	r3, r2
 8004b18:	61f3      	str	r3, [r6, #28]
      htim->Instance->CCMR2 |= sConfig->OCFastMode;
 8004b1a:	69f3      	ldr	r3, [r6, #28]
 8004b1c:	6922      	ldr	r2, [r4, #16]
 8004b1e:	4313      	orrs	r3, r2
 8004b20:	61f3      	str	r3, [r6, #28]
      break;
 8004b22:	e7dc      	b.n	8004ade <HAL_TIM_PWM_ConfigChannel+0x7a>
      TIM_OC4_SetConfig(htim->Instance, sConfig);
 8004b24:	681d      	ldr	r5, [r3, #0]
 8004b26:	0028      	movs	r0, r5
 8004b28:	f7ff fde8 	bl	80046fc <TIM_OC4_SetConfig>
      htim->Instance->CCMR2 |= TIM_CCMR2_OC4PE;
 8004b2c:	2380      	movs	r3, #128	@ 0x80
 8004b2e:	69ea      	ldr	r2, [r5, #28]
 8004b30:	011b      	lsls	r3, r3, #4
 8004b32:	4313      	orrs	r3, r2
 8004b34:	61eb      	str	r3, [r5, #28]
      htim->Instance->CCMR2 &= ~TIM_CCMR2_OC4FE;
 8004b36:	69eb      	ldr	r3, [r5, #28]
 8004b38:	4a0c      	ldr	r2, [pc, #48]	@ (8004b6c <HAL_TIM_PWM_ConfigChannel+0x108>)
 8004b3a:	4013      	ands	r3, r2
 8004b3c:	61eb      	str	r3, [r5, #28]
      htim->Instance->CCMR2 |= sConfig->OCFastMode << 8U;
 8004b3e:	6923      	ldr	r3, [r4, #16]
 8004b40:	69ea      	ldr	r2, [r5, #28]
 8004b42:	021b      	lsls	r3, r3, #8
 8004b44:	4313      	orrs	r3, r2
 8004b46:	61eb      	str	r3, [r5, #28]
      break;
 8004b48:	e7c9      	b.n	8004ade <HAL_TIM_PWM_ConfigChannel+0x7a>
      TIM_OC5_SetConfig(htim->Instance, sConfig);
 8004b4a:	681d      	ldr	r5, [r3, #0]
 8004b4c:	0028      	movs	r0, r5
 8004b4e:	f7ff fe09 	bl	8004764 <TIM_OC5_SetConfig>
      htim->Instance->CCMR3 |= TIM_CCMR3_OC5PE;
 8004b52:	2308      	movs	r3, #8
 8004b54:	6d6a      	ldr	r2, [r5, #84]	@ 0x54
 8004b56:	4313      	orrs	r3, r2
      htim->Instance->CCMR3 &= ~TIM_CCMR3_OC5FE;
 8004b58:	2204      	movs	r2, #4
      htim->Instance->CCMR3 |= TIM_CCMR3_OC5PE;
 8004b5a:	656b      	str	r3, [r5, #84]	@ 0x54
      htim->Instance->CCMR3 &= ~TIM_CCMR3_OC5FE;
 8004b5c:	6d6b      	ldr	r3, [r5, #84]	@ 0x54
 8004b5e:	4393      	bics	r3, r2
 8004b60:	656b      	str	r3, [r5, #84]	@ 0x54
      htim->Instance->CCMR3 |= sConfig->OCFastMode;
 8004b62:	6d6b      	ldr	r3, [r5, #84]	@ 0x54
 8004b64:	6922      	ldr	r2, [r4, #16]
      htim->Instance->CCMR3 |= sConfig->OCFastMode << 8U;
 8004b66:	4313      	orrs	r3, r2
 8004b68:	656b      	str	r3, [r5, #84]	@ 0x54
      break;
 8004b6a:	e7b8      	b.n	8004ade <HAL_TIM_PWM_ConfigChannel+0x7a>
 8004b6c:	fffffbff 	.word	0xfffffbff

08004b70 <TIM_ETR_SetConfig>:
  *          This parameter must be a value between 0x00 and 0x0F
  * @retval None
  */
void TIM_ETR_SetConfig(TIM_TypeDef *TIMx, uint32_t TIM_ExtTRGPrescaler,
                       uint32_t TIM_ExtTRGPolarity, uint32_t ExtTRGFilter)
{
 8004b70:	b530      	push	{r4, r5, lr}
  uint32_t tmpsmcr;

  tmpsmcr = TIMx->SMCR;
 8004b72:	6884      	ldr	r4, [r0, #8]

  /* Reset the ETR Bits */
  tmpsmcr &= ~(TIM_SMCR_ETF | TIM_SMCR_ETPS | TIM_SMCR_ECE | TIM_SMCR_ETP);
 8004b74:	4d03      	ldr	r5, [pc, #12]	@ (8004b84 <TIM_ETR_SetConfig+0x14>)

  /* Set the Prescaler, the Filter value and the Polarity */
  tmpsmcr |= (uint32_t)(TIM_ExtTRGPrescaler | (TIM_ExtTRGPolarity | (ExtTRGFilter << 8U)));
 8004b76:	430a      	orrs	r2, r1
 8004b78:	021b      	lsls	r3, r3, #8
  tmpsmcr &= ~(TIM_SMCR_ETF | TIM_SMCR_ETPS | TIM_SMCR_ECE | TIM_SMCR_ETP);
 8004b7a:	402c      	ands	r4, r5
  tmpsmcr |= (uint32_t)(TIM_ExtTRGPrescaler | (TIM_ExtTRGPolarity | (ExtTRGFilter << 8U)));
 8004b7c:	4313      	orrs	r3, r2
 8004b7e:	4323      	orrs	r3, r4

  /* Write to TIMx SMCR */
  TIMx->SMCR = tmpsmcr;
 8004b80:	6083      	str	r3, [r0, #8]
}
 8004b82:	bd30      	pop	{r4, r5, pc}
 8004b84:	ffff00ff 	.word	0xffff00ff

08004b88 <HAL_TIM_ConfigClockSource>:
{
 8004b88:	b570      	push	{r4, r5, r6, lr}
  __HAL_LOCK(htim);
 8004b8a:	0005      	movs	r5, r0
 8004b8c:	2202      	movs	r2, #2
 8004b8e:	353c      	adds	r5, #60	@ 0x3c
 8004b90:	782c      	ldrb	r4, [r5, #0]
{
 8004b92:	0003      	movs	r3, r0
  __HAL_LOCK(htim);
 8004b94:	0010      	movs	r0, r2
 8004b96:	2c01      	cmp	r4, #1
 8004b98:	d01b      	beq.n	8004bd2 <HAL_TIM_ConfigClockSource+0x4a>
  htim->State = HAL_TIM_STATE_BUSY;
 8004b9a:	001e      	movs	r6, r3
  __HAL_LOCK(htim);
 8004b9c:	3801      	subs	r0, #1
  htim->State = HAL_TIM_STATE_BUSY;
 8004b9e:	363d      	adds	r6, #61	@ 0x3d
  __HAL_LOCK(htim);
 8004ba0:	7028      	strb	r0, [r5, #0]
  htim->State = HAL_TIM_STATE_BUSY;
 8004ba2:	7032      	strb	r2, [r6, #0]
  tmpsmcr = htim->Instance->SMCR;
 8004ba4:	681c      	ldr	r4, [r3, #0]
  tmpsmcr &= ~(TIM_SMCR_ETF | TIM_SMCR_ETPS | TIM_SMCR_ECE | TIM_SMCR_ETP);
 8004ba6:	4a2f      	ldr	r2, [pc, #188]	@ (8004c64 <HAL_TIM_ConfigClockSource+0xdc>)
  tmpsmcr = htim->Instance->SMCR;
 8004ba8:	68a3      	ldr	r3, [r4, #8]
  tmpsmcr &= ~(TIM_SMCR_ETF | TIM_SMCR_ETPS | TIM_SMCR_ECE | TIM_SMCR_ETP);
 8004baa:	4013      	ands	r3, r2
  htim->Instance->SMCR = tmpsmcr;
 8004bac:	60a3      	str	r3, [r4, #8]
  switch (sClockSourceConfig->ClockSource)
 8004bae:	680b      	ldr	r3, [r1, #0]
 8004bb0:	2b60      	cmp	r3, #96	@ 0x60
 8004bb2:	d043      	beq.n	8004c3c <HAL_TIM_ConfigClockSource+0xb4>
 8004bb4:	d822      	bhi.n	8004bfc <HAL_TIM_ConfigClockSource+0x74>
 8004bb6:	2b40      	cmp	r3, #64	@ 0x40
 8004bb8:	d04a      	beq.n	8004c50 <HAL_TIM_ConfigClockSource+0xc8>
 8004bba:	d813      	bhi.n	8004be4 <HAL_TIM_ConfigClockSource+0x5c>
 8004bbc:	2b20      	cmp	r3, #32
 8004bbe:	d00b      	beq.n	8004bd8 <HAL_TIM_ConfigClockSource+0x50>
 8004bc0:	d808      	bhi.n	8004bd4 <HAL_TIM_ConfigClockSource+0x4c>
 8004bc2:	2210      	movs	r2, #16
 8004bc4:	0019      	movs	r1, r3
 8004bc6:	4391      	bics	r1, r2
 8004bc8:	d006      	beq.n	8004bd8 <HAL_TIM_ConfigClockSource+0x50>
  htim->State = HAL_TIM_STATE_READY;
 8004bca:	2301      	movs	r3, #1
 8004bcc:	7033      	strb	r3, [r6, #0]
  __HAL_UNLOCK(htim);
 8004bce:	2300      	movs	r3, #0
 8004bd0:	702b      	strb	r3, [r5, #0]
}
 8004bd2:	bd70      	pop	{r4, r5, r6, pc}
  switch (sClockSourceConfig->ClockSource)
 8004bd4:	2b30      	cmp	r3, #48	@ 0x30
 8004bd6:	d1f8      	bne.n	8004bca <HAL_TIM_ConfigClockSource+0x42>
  tmpsmcr = TIMx->SMCR;
 8004bd8:	68a2      	ldr	r2, [r4, #8]
  tmpsmcr &= ~TIM_SMCR_TS;
 8004bda:	4923      	ldr	r1, [pc, #140]	@ (8004c68 <HAL_TIM_ConfigClockSource+0xe0>)
 8004bdc:	400a      	ands	r2, r1
  tmpsmcr |= (InputTriggerSource | TIM_SLAVEMODE_EXTERNAL1);
 8004bde:	4313      	orrs	r3, r2
 8004be0:	2207      	movs	r2, #7
 8004be2:	e01d      	b.n	8004c20 <HAL_TIM_ConfigClockSource+0x98>
  switch (sClockSourceConfig->ClockSource)
 8004be4:	2b50      	cmp	r3, #80	@ 0x50
 8004be6:	d1f0      	bne.n	8004bca <HAL_TIM_ConfigClockSource+0x42>
      TIM_TI1_ConfigInputStage(htim->Instance,
 8004be8:	68ca      	ldr	r2, [r1, #12]
 8004bea:	0020      	movs	r0, r4
 8004bec:	6849      	ldr	r1, [r1, #4]
 8004bee:	f7ff fe1d 	bl	800482c <TIM_TI1_ConfigInputStage>
  tmpsmcr &= ~TIM_SMCR_TS;
 8004bf2:	4b1d      	ldr	r3, [pc, #116]	@ (8004c68 <HAL_TIM_ConfigClockSource+0xe0>)
  tmpsmcr = TIMx->SMCR;
 8004bf4:	68a2      	ldr	r2, [r4, #8]
  tmpsmcr &= ~TIM_SMCR_TS;
 8004bf6:	401a      	ands	r2, r3
  tmpsmcr |= (InputTriggerSource | TIM_SLAVEMODE_EXTERNAL1);
 8004bf8:	2357      	movs	r3, #87	@ 0x57
 8004bfa:	e011      	b.n	8004c20 <HAL_TIM_ConfigClockSource+0x98>
  switch (sClockSourceConfig->ClockSource)
 8004bfc:	2280      	movs	r2, #128	@ 0x80
 8004bfe:	0152      	lsls	r2, r2, #5
 8004c00:	4293      	cmp	r3, r2
 8004c02:	d00f      	beq.n	8004c24 <HAL_TIM_ConfigClockSource+0x9c>
 8004c04:	2280      	movs	r2, #128	@ 0x80
 8004c06:	0192      	lsls	r2, r2, #6
 8004c08:	4293      	cmp	r3, r2
 8004c0a:	d00d      	beq.n	8004c28 <HAL_TIM_ConfigClockSource+0xa0>
 8004c0c:	2b70      	cmp	r3, #112	@ 0x70
 8004c0e:	d1dc      	bne.n	8004bca <HAL_TIM_ConfigClockSource+0x42>
      TIM_ETR_SetConfig(htim->Instance,
 8004c10:	68cb      	ldr	r3, [r1, #12]
 8004c12:	684a      	ldr	r2, [r1, #4]
 8004c14:	0020      	movs	r0, r4
 8004c16:	6889      	ldr	r1, [r1, #8]
 8004c18:	f7ff ffaa 	bl	8004b70 <TIM_ETR_SetConfig>
      tmpsmcr |= (TIM_SLAVEMODE_EXTERNAL1 | TIM_CLOCKSOURCE_ETRMODE1);
 8004c1c:	2377      	movs	r3, #119	@ 0x77
      tmpsmcr = htim->Instance->SMCR;
 8004c1e:	68a2      	ldr	r2, [r4, #8]
      tmpsmcr |= (TIM_SLAVEMODE_EXTERNAL1 | TIM_CLOCKSOURCE_ETRMODE1);
 8004c20:	4313      	orrs	r3, r2
      htim->Instance->SMCR = tmpsmcr;
 8004c22:	60a3      	str	r3, [r4, #8]
  HAL_StatusTypeDef status = HAL_OK;
 8004c24:	2000      	movs	r0, #0
 8004c26:	e7d0      	b.n	8004bca <HAL_TIM_ConfigClockSource+0x42>
      TIM_ETR_SetConfig(htim->Instance,
 8004c28:	68cb      	ldr	r3, [r1, #12]
 8004c2a:	684a      	ldr	r2, [r1, #4]
 8004c2c:	0020      	movs	r0, r4
 8004c2e:	6889      	ldr	r1, [r1, #8]
 8004c30:	f7ff ff9e 	bl	8004b70 <TIM_ETR_SetConfig>
      htim->Instance->SMCR |= TIM_SMCR_ECE;
 8004c34:	2380      	movs	r3, #128	@ 0x80
 8004c36:	68a2      	ldr	r2, [r4, #8]
 8004c38:	01db      	lsls	r3, r3, #7
 8004c3a:	e7f1      	b.n	8004c20 <HAL_TIM_ConfigClockSource+0x98>
      TIM_TI2_ConfigInputStage(htim->Instance,
 8004c3c:	68ca      	ldr	r2, [r1, #12]
 8004c3e:	0020      	movs	r0, r4
 8004c40:	6849      	ldr	r1, [r1, #4]
 8004c42:	f7ff fe19 	bl	8004878 <TIM_TI2_ConfigInputStage>
  tmpsmcr &= ~TIM_SMCR_TS;
 8004c46:	4b08      	ldr	r3, [pc, #32]	@ (8004c68 <HAL_TIM_ConfigClockSource+0xe0>)
  tmpsmcr = TIMx->SMCR;
 8004c48:	68a2      	ldr	r2, [r4, #8]
  tmpsmcr &= ~TIM_SMCR_TS;
 8004c4a:	401a      	ands	r2, r3
  tmpsmcr |= (InputTriggerSource | TIM_SLAVEMODE_EXTERNAL1);
 8004c4c:	2367      	movs	r3, #103	@ 0x67
 8004c4e:	e7e7      	b.n	8004c20 <HAL_TIM_ConfigClockSource+0x98>
      TIM_TI1_ConfigInputStage(htim->Instance,
 8004c50:	68ca      	ldr	r2, [r1, #12]
 8004c52:	0020      	movs	r0, r4
 8004c54:	6849      	ldr	r1, [r1, #4]
 8004c56:	f7ff fde9 	bl	800482c <TIM_TI1_ConfigInputStage>
  tmpsmcr &= ~TIM_SMCR_TS;
 8004c5a:	4b03      	ldr	r3, [pc, #12]	@ (8004c68 <HAL_TIM_ConfigClockSource+0xe0>)
  tmpsmcr = TIMx->SMCR;
 8004c5c:	68a2      	ldr	r2, [r4, #8]
  tmpsmcr &= ~TIM_SMCR_TS;
 8004c5e:	401a      	ands	r2, r3
  tmpsmcr |= (InputTriggerSource | TIM_SLAVEMODE_EXTERNAL1);
 8004c60:	2347      	movs	r3, #71	@ 0x47
 8004c62:	e7dd      	b.n	8004c20 <HAL_TIM_ConfigClockSource+0x98>
 8004c64:	ffce0088 	.word	0xffce0088
 8004c68:	ffcfff8f 	.word	0xffcfff8f

08004c6c <TIM_CCxChannelCmd>:

  /* Check the parameters */
  assert_param(IS_TIM_CC1_INSTANCE(TIMx));
  assert_param(IS_TIM_CHANNELS(Channel));

  tmp = TIM_CCER_CC1E << (Channel & 0x1FU); /* 0x1FU = 31 bits max shift */
 8004c6c:	231f      	movs	r3, #31
{
 8004c6e:	b510      	push	{r4, lr}
  tmp = TIM_CCER_CC1E << (Channel & 0x1FU); /* 0x1FU = 31 bits max shift */
 8004c70:	2401      	movs	r4, #1
 8004c72:	4019      	ands	r1, r3
 8004c74:	408c      	lsls	r4, r1

  /* Reset the CCxE Bit */
  TIMx->CCER &= ~tmp;

  /* Set or reset the CCxE Bit */
  TIMx->CCER |= (uint32_t)(ChannelState << (Channel & 0x1FU)); /* 0x1FU = 31 bits max shift */
 8004c76:	408a      	lsls	r2, r1
  TIMx->CCER &= ~tmp;
 8004c78:	6a03      	ldr	r3, [r0, #32]
 8004c7a:	43a3      	bics	r3, r4
 8004c7c:	6203      	str	r3, [r0, #32]
  TIMx->CCER |= (uint32_t)(ChannelState << (Channel & 0x1FU)); /* 0x1FU = 31 bits max shift */
 8004c7e:	6a03      	ldr	r3, [r0, #32]
 8004c80:	431a      	orrs	r2, r3
 8004c82:	6202      	str	r2, [r0, #32]
}
 8004c84:	bd10      	pop	{r4, pc}
	...

08004c88 <HAL_TIM_OC_Start>:
{
 8004c88:	0002      	movs	r2, r0
 8004c8a:	b510      	push	{r4, lr}
 8004c8c:	2908      	cmp	r1, #8
 8004c8e:	d01c      	beq.n	8004cca <HAL_TIM_OC_Start+0x42>
 8004c90:	d806      	bhi.n	8004ca0 <HAL_TIM_OC_Start+0x18>
 8004c92:	2900      	cmp	r1, #0
 8004c94:	d00b      	beq.n	8004cae <HAL_TIM_OC_Start+0x26>
 8004c96:	2904      	cmp	r1, #4
 8004c98:	d014      	beq.n	8004cc4 <HAL_TIM_OC_Start+0x3c>
  if (TIM_CHANNEL_STATE_GET(htim, Channel) != HAL_TIM_CHANNEL_STATE_READY)
 8004c9a:	0013      	movs	r3, r2
 8004c9c:	3343      	adds	r3, #67	@ 0x43
 8004c9e:	e008      	b.n	8004cb2 <HAL_TIM_OC_Start+0x2a>
 8004ca0:	290c      	cmp	r1, #12
 8004ca2:	d015      	beq.n	8004cd0 <HAL_TIM_OC_Start+0x48>
 8004ca4:	2910      	cmp	r1, #16
 8004ca6:	d1f8      	bne.n	8004c9a <HAL_TIM_OC_Start+0x12>
 8004ca8:	0003      	movs	r3, r0
 8004caa:	3342      	adds	r3, #66	@ 0x42
 8004cac:	e001      	b.n	8004cb2 <HAL_TIM_OC_Start+0x2a>
 8004cae:	0003      	movs	r3, r0
 8004cb0:	333e      	adds	r3, #62	@ 0x3e
 8004cb2:	781b      	ldrb	r3, [r3, #0]
 8004cb4:	3b01      	subs	r3, #1
 8004cb6:	1e58      	subs	r0, r3, #1
 8004cb8:	4183      	sbcs	r3, r0
 8004cba:	b2db      	uxtb	r3, r3
    return HAL_ERROR;
 8004cbc:	2001      	movs	r0, #1
  if (TIM_CHANNEL_STATE_GET(htim, Channel) != HAL_TIM_CHANNEL_STATE_READY)
 8004cbe:	2b00      	cmp	r3, #0
 8004cc0:	d009      	beq.n	8004cd6 <HAL_TIM_OC_Start+0x4e>
}
 8004cc2:	bd10      	pop	{r4, pc}
  if (TIM_CHANNEL_STATE_GET(htim, Channel) != HAL_TIM_CHANNEL_STATE_READY)
 8004cc4:	0003      	movs	r3, r0
 8004cc6:	333f      	adds	r3, #63	@ 0x3f
 8004cc8:	e7f3      	b.n	8004cb2 <HAL_TIM_OC_Start+0x2a>
 8004cca:	0003      	movs	r3, r0
 8004ccc:	3340      	adds	r3, #64	@ 0x40
 8004cce:	e7f0      	b.n	8004cb2 <HAL_TIM_OC_Start+0x2a>
 8004cd0:	0003      	movs	r3, r0
 8004cd2:	3341      	adds	r3, #65	@ 0x41
 8004cd4:	e7ed      	b.n	8004cb2 <HAL_TIM_OC_Start+0x2a>
  TIM_CHANNEL_STATE_SET(htim, Channel, HAL_TIM_CHANNEL_STATE_BUSY);
 8004cd6:	2302      	movs	r3, #2
 8004cd8:	2908      	cmp	r1, #8
 8004cda:	d030      	beq.n	8004d3e <HAL_TIM_OC_Start+0xb6>
 8004cdc:	d806      	bhi.n	8004cec <HAL_TIM_OC_Start+0x64>
 8004cde:	2900      	cmp	r1, #0
 8004ce0:	d00b      	beq.n	8004cfa <HAL_TIM_OC_Start+0x72>
 8004ce2:	2904      	cmp	r1, #4
 8004ce4:	d028      	beq.n	8004d38 <HAL_TIM_OC_Start+0xb0>
 8004ce6:	0010      	movs	r0, r2
 8004ce8:	3043      	adds	r0, #67	@ 0x43
 8004cea:	e008      	b.n	8004cfe <HAL_TIM_OC_Start+0x76>
 8004cec:	290c      	cmp	r1, #12
 8004cee:	d029      	beq.n	8004d44 <HAL_TIM_OC_Start+0xbc>
 8004cf0:	2910      	cmp	r1, #16
 8004cf2:	d1f8      	bne.n	8004ce6 <HAL_TIM_OC_Start+0x5e>
 8004cf4:	0010      	movs	r0, r2
 8004cf6:	3042      	adds	r0, #66	@ 0x42
 8004cf8:	e001      	b.n	8004cfe <HAL_TIM_OC_Start+0x76>
 8004cfa:	0010      	movs	r0, r2
 8004cfc:	303e      	adds	r0, #62	@ 0x3e
 8004cfe:	7003      	strb	r3, [r0, #0]
  TIM_CCxChannelCmd(htim->Instance, Channel, TIM_CCx_ENABLE);
 8004d00:	6814      	ldr	r4, [r2, #0]
 8004d02:	2201      	movs	r2, #1
 8004d04:	0020      	movs	r0, r4
 8004d06:	f7ff ffb1 	bl	8004c6c <TIM_CCxChannelCmd>
  if (IS_TIM_BREAK_INSTANCE(htim->Instance) != RESET)
 8004d0a:	4a16      	ldr	r2, [pc, #88]	@ (8004d64 <HAL_TIM_OC_Start+0xdc>)
 8004d0c:	4294      	cmp	r4, r2
 8004d0e:	d005      	beq.n	8004d1c <HAL_TIM_OC_Start+0x94>
 8004d10:	4b15      	ldr	r3, [pc, #84]	@ (8004d68 <HAL_TIM_OC_Start+0xe0>)
 8004d12:	429c      	cmp	r4, r3
 8004d14:	d002      	beq.n	8004d1c <HAL_TIM_OC_Start+0x94>
 8004d16:	4b15      	ldr	r3, [pc, #84]	@ (8004d6c <HAL_TIM_OC_Start+0xe4>)
 8004d18:	429c      	cmp	r4, r3
 8004d1a:	d116      	bne.n	8004d4a <HAL_TIM_OC_Start+0xc2>
    __HAL_TIM_MOE_ENABLE(htim);
 8004d1c:	2380      	movs	r3, #128	@ 0x80
 8004d1e:	6c61      	ldr	r1, [r4, #68]	@ 0x44
 8004d20:	021b      	lsls	r3, r3, #8
 8004d22:	430b      	orrs	r3, r1
 8004d24:	6463      	str	r3, [r4, #68]	@ 0x44
  if (IS_TIM_SLAVE_INSTANCE(htim->Instance))
 8004d26:	4294      	cmp	r4, r2
 8004d28:	d112      	bne.n	8004d50 <HAL_TIM_OC_Start+0xc8>
    tmpsmcr = htim->Instance->SMCR & TIM_SMCR_SMS;
 8004d2a:	68a3      	ldr	r3, [r4, #8]
 8004d2c:	4a10      	ldr	r2, [pc, #64]	@ (8004d70 <HAL_TIM_OC_Start+0xe8>)
 8004d2e:	4013      	ands	r3, r2
    if (!IS_TIM_SLAVEMODE_TRIGGER_ENABLED(tmpsmcr))
 8004d30:	2b06      	cmp	r3, #6
 8004d32:	d112      	bne.n	8004d5a <HAL_TIM_OC_Start+0xd2>
  return HAL_OK;
 8004d34:	2000      	movs	r0, #0
 8004d36:	e7c4      	b.n	8004cc2 <HAL_TIM_OC_Start+0x3a>
  TIM_CHANNEL_STATE_SET(htim, Channel, HAL_TIM_CHANNEL_STATE_BUSY);
 8004d38:	0010      	movs	r0, r2
 8004d3a:	303f      	adds	r0, #63	@ 0x3f
 8004d3c:	e7df      	b.n	8004cfe <HAL_TIM_OC_Start+0x76>
 8004d3e:	0010      	movs	r0, r2
 8004d40:	3040      	adds	r0, #64	@ 0x40
 8004d42:	e7dc      	b.n	8004cfe <HAL_TIM_OC_Start+0x76>
 8004d44:	0010      	movs	r0, r2
 8004d46:	3041      	adds	r0, #65	@ 0x41
 8004d48:	e7d9      	b.n	8004cfe <HAL_TIM_OC_Start+0x76>
  if (IS_TIM_SLAVE_INSTANCE(htim->Instance))
 8004d4a:	4b0a      	ldr	r3, [pc, #40]	@ (8004d74 <HAL_TIM_OC_Start+0xec>)
 8004d4c:	429c      	cmp	r4, r3
 8004d4e:	d0ec      	beq.n	8004d2a <HAL_TIM_OC_Start+0xa2>
      __HAL_TIM_ENABLE(htim);
 8004d50:	2301      	movs	r3, #1
 8004d52:	6822      	ldr	r2, [r4, #0]
 8004d54:	4313      	orrs	r3, r2
 8004d56:	6023      	str	r3, [r4, #0]
 8004d58:	e7ec      	b.n	8004d34 <HAL_TIM_OC_Start+0xac>
    if (!IS_TIM_SLAVEMODE_TRIGGER_ENABLED(tmpsmcr))
 8004d5a:	2280      	movs	r2, #128	@ 0x80
 8004d5c:	0252      	lsls	r2, r2, #9
 8004d5e:	4293      	cmp	r3, r2
 8004d60:	d1f6      	bne.n	8004d50 <HAL_TIM_OC_Start+0xc8>
 8004d62:	e7e7      	b.n	8004d34 <HAL_TIM_OC_Start+0xac>
 8004d64:	40012c00 	.word	0x40012c00
 8004d68:	40014400 	.word	0x40014400
 8004d6c:	40014800 	.word	0x40014800
 8004d70:	00010007 	.word	0x00010007
 8004d74:	40000400 	.word	0x40000400

08004d78 <HAL_TIM_PWM_Start>:
HAL_StatusTypeDef HAL_TIM_PWM_Start(TIM_HandleTypeDef *htim, uint32_t Channel)
 8004d78:	b510      	push	{r4, lr}
 8004d7a:	f7ff ff85 	bl	8004c88 <HAL_TIM_OC_Start>
 8004d7e:	bd10      	pop	{r4, pc}

08004d80 <HAL_TIMEx_MasterConfigSynchronization>:
  *         mode.
  * @retval HAL status
  */
HAL_StatusTypeDef HAL_TIMEx_MasterConfigSynchronization(TIM_HandleTypeDef *htim,
                                                        const TIM_MasterConfigTypeDef *sMasterConfig)
{
 8004d80:	b5f0      	push	{r4, r5, r6, r7, lr}
  assert_param(IS_TIM_MASTER_INSTANCE(htim->Instance));
  assert_param(IS_TIM_TRGO_SOURCE(sMasterConfig->MasterOutputTrigger));
  assert_param(IS_TIM_MSM_STATE(sMasterConfig->MasterSlaveMode));

  /* Check input state */
  __HAL_LOCK(htim);
 8004d82:	0004      	movs	r4, r0
 8004d84:	2202      	movs	r2, #2
 8004d86:	343c      	adds	r4, #60	@ 0x3c
 8004d88:	7825      	ldrb	r5, [r4, #0]
{
 8004d8a:	0003      	movs	r3, r0
  __HAL_LOCK(htim);
 8004d8c:	0010      	movs	r0, r2
 8004d8e:	2d01      	cmp	r5, #1
 8004d90:	d01f      	beq.n	8004dd2 <HAL_TIMEx_MasterConfigSynchronization+0x52>

  /* Change the handler state */
  htim->State = HAL_TIM_STATE_BUSY;
 8004d92:	001d      	movs	r5, r3
 8004d94:	353d      	adds	r5, #61	@ 0x3d
 8004d96:	702a      	strb	r2, [r5, #0]

  /* Get the TIMx CR2 register value */
  tmpcr2 = htim->Instance->CR2;
 8004d98:	681a      	ldr	r2, [r3, #0]

  /* Get the TIMx SMCR register value */
  tmpsmcr = htim->Instance->SMCR;

  /* If the timer supports ADC synchronization through TRGO2, set the master mode selection 2 */
  if (IS_TIM_TRGO2_INSTANCE(htim->Instance))
 8004d9a:	4e0e      	ldr	r6, [pc, #56]	@ (8004dd4 <HAL_TIMEx_MasterConfigSynchronization+0x54>)
  tmpcr2 = htim->Instance->CR2;
 8004d9c:	6853      	ldr	r3, [r2, #4]
  tmpsmcr = htim->Instance->SMCR;
 8004d9e:	6890      	ldr	r0, [r2, #8]
  if (IS_TIM_TRGO2_INSTANCE(htim->Instance))
 8004da0:	42b2      	cmp	r2, r6
 8004da2:	d103      	bne.n	8004dac <HAL_TIMEx_MasterConfigSynchronization+0x2c>
  {
    /* Check the parameters */
    assert_param(IS_TIM_TRGO2_SOURCE(sMasterConfig->MasterOutputTrigger2));

    /* Clear the MMS2 bits */
    tmpcr2 &= ~TIM_CR2_MMS2;
 8004da4:	4f0c      	ldr	r7, [pc, #48]	@ (8004dd8 <HAL_TIMEx_MasterConfigSynchronization+0x58>)
 8004da6:	403b      	ands	r3, r7
    /* Select the TRGO2 source*/
    tmpcr2 |= sMasterConfig->MasterOutputTrigger2;
 8004da8:	684f      	ldr	r7, [r1, #4]
 8004daa:	433b      	orrs	r3, r7
  }

  /* Reset the MMS Bits */
  tmpcr2 &= ~TIM_CR2_MMS;
 8004dac:	2770      	movs	r7, #112	@ 0x70
 8004dae:	43bb      	bics	r3, r7
  /* Select the TRGO source */
  tmpcr2 |=  sMasterConfig->MasterOutputTrigger;
 8004db0:	680f      	ldr	r7, [r1, #0]
 8004db2:	433b      	orrs	r3, r7

  /* Update TIMx CR2 */
  htim->Instance->CR2 = tmpcr2;
 8004db4:	6053      	str	r3, [r2, #4]

  if (IS_TIM_SLAVE_INSTANCE(htim->Instance))
 8004db6:	42b2      	cmp	r2, r6
 8004db8:	d002      	beq.n	8004dc0 <HAL_TIMEx_MasterConfigSynchronization+0x40>
 8004dba:	4b08      	ldr	r3, [pc, #32]	@ (8004ddc <HAL_TIMEx_MasterConfigSynchronization+0x5c>)
 8004dbc:	429a      	cmp	r2, r3
 8004dbe:	d104      	bne.n	8004dca <HAL_TIMEx_MasterConfigSynchronization+0x4a>
  {
    /* Reset the MSM Bit */
    tmpsmcr &= ~TIM_SMCR_MSM;
 8004dc0:	2380      	movs	r3, #128	@ 0x80
 8004dc2:	4398      	bics	r0, r3
    /* Set master mode */
    tmpsmcr |= sMasterConfig->MasterSlaveMode;
 8004dc4:	688b      	ldr	r3, [r1, #8]
 8004dc6:	4318      	orrs	r0, r3

    /* Update TIMx SMCR */
    htim->Instance->SMCR = tmpsmcr;
 8004dc8:	6090      	str	r0, [r2, #8]
  }

  /* Change the htim state */
  htim->State = HAL_TIM_STATE_READY;
 8004dca:	2301      	movs	r3, #1

  __HAL_UNLOCK(htim);
 8004dcc:	2000      	movs	r0, #0
  htim->State = HAL_TIM_STATE_READY;
 8004dce:	702b      	strb	r3, [r5, #0]
  __HAL_UNLOCK(htim);
 8004dd0:	7020      	strb	r0, [r4, #0]

  return HAL_OK;
}
 8004dd2:	bdf0      	pop	{r4, r5, r6, r7, pc}
 8004dd4:	40012c00 	.word	0x40012c00
 8004dd8:	ff0fffff 	.word	0xff0fffff
 8004ddc:	40000400 	.word	0x40000400

08004de0 <HAL_TIMEx_ConfigBreakDeadTime>:
  *         interrupt can be enabled by calling the @ref __HAL_TIM_ENABLE_IT macro.
  * @retval HAL status
  */
HAL_StatusTypeDef HAL_TIMEx_ConfigBreakDeadTime(TIM_HandleTypeDef *htim,
                                                const TIM_BreakDeadTimeConfigTypeDef *sBreakDeadTimeConfig)
{
 8004de0:	b510      	push	{r4, lr}
  assert_param(IS_TIM_BREAK_FILTER(sBreakDeadTimeConfig->BreakFilter));
  assert_param(IS_TIM_AUTOMATIC_OUTPUT_STATE(sBreakDeadTimeConfig->AutomaticOutput));
  assert_param(IS_TIM_BREAK_AFMODE(sBreakDeadTimeConfig->BreakAFMode));

  /* Check input state */
  __HAL_LOCK(htim);
 8004de2:	0004      	movs	r4, r0
 8004de4:	343c      	adds	r4, #60	@ 0x3c
 8004de6:	7823      	ldrb	r3, [r4, #0]
{
 8004de8:	0002      	movs	r2, r0
  __HAL_LOCK(htim);
 8004dea:	2002      	movs	r0, #2
 8004dec:	2b01      	cmp	r3, #1
 8004dee:	d039      	beq.n	8004e64 <HAL_TIMEx_ConfigBreakDeadTime+0x84>
  /* Set the Lock level, the Break enable Bit and the Polarity, the OSSR State,
     the OSSI State, the dead time value and the Automatic Output Enable Bit */

  /* Set the BDTR bits */
  MODIFY_REG(tmpbdtr, TIM_BDTR_DTG, sBreakDeadTimeConfig->DeadTime);
  MODIFY_REG(tmpbdtr, TIM_BDTR_LOCK, sBreakDeadTimeConfig->LockLevel);
 8004df0:	481d      	ldr	r0, [pc, #116]	@ (8004e68 <HAL_TIMEx_ConfigBreakDeadTime+0x88>)
 8004df2:	68cb      	ldr	r3, [r1, #12]
 8004df4:	4003      	ands	r3, r0
 8004df6:	6888      	ldr	r0, [r1, #8]
 8004df8:	4303      	orrs	r3, r0
  MODIFY_REG(tmpbdtr, TIM_BDTR_OSSI, sBreakDeadTimeConfig->OffStateIDLEMode);
 8004dfa:	481c      	ldr	r0, [pc, #112]	@ (8004e6c <HAL_TIMEx_ConfigBreakDeadTime+0x8c>)
 8004dfc:	4003      	ands	r3, r0
 8004dfe:	6848      	ldr	r0, [r1, #4]
 8004e00:	4303      	orrs	r3, r0
  MODIFY_REG(tmpbdtr, TIM_BDTR_OSSR, sBreakDeadTimeConfig->OffStateRunMode);
 8004e02:	481b      	ldr	r0, [pc, #108]	@ (8004e70 <HAL_TIMEx_ConfigBreakDeadTime+0x90>)
 8004e04:	4003      	ands	r3, r0
 8004e06:	6808      	ldr	r0, [r1, #0]
 8004e08:	4303      	orrs	r3, r0
  MODIFY_REG(tmpbdtr, TIM_BDTR_BKE, sBreakDeadTimeConfig->BreakState);
 8004e0a:	481a      	ldr	r0, [pc, #104]	@ (8004e74 <HAL_TIMEx_ConfigBreakDeadTime+0x94>)
 8004e0c:	4003      	ands	r3, r0
 8004e0e:	6908      	ldr	r0, [r1, #16]
 8004e10:	4303      	orrs	r3, r0
  MODIFY_REG(tmpbdtr, TIM_BDTR_BKP, sBreakDeadTimeConfig->BreakPolarity);
 8004e12:	4819      	ldr	r0, [pc, #100]	@ (8004e78 <HAL_TIMEx_ConfigBreakDeadTime+0x98>)
 8004e14:	4003      	ands	r3, r0
 8004e16:	6948      	ldr	r0, [r1, #20]
 8004e18:	4303      	orrs	r3, r0
  MODIFY_REG(tmpbdtr, TIM_BDTR_AOE, sBreakDeadTimeConfig->AutomaticOutput);
 8004e1a:	4818      	ldr	r0, [pc, #96]	@ (8004e7c <HAL_TIMEx_ConfigBreakDeadTime+0x9c>)
 8004e1c:	4003      	ands	r3, r0
 8004e1e:	6b08      	ldr	r0, [r1, #48]	@ 0x30
 8004e20:	4303      	orrs	r3, r0
  MODIFY_REG(tmpbdtr, TIM_BDTR_BKF, (sBreakDeadTimeConfig->BreakFilter << TIM_BDTR_BKF_Pos));
 8004e22:	4817      	ldr	r0, [pc, #92]	@ (8004e80 <HAL_TIMEx_ConfigBreakDeadTime+0xa0>)
 8004e24:	4003      	ands	r3, r0
 8004e26:	6988      	ldr	r0, [r1, #24]
 8004e28:	0400      	lsls	r0, r0, #16
 8004e2a:	4303      	orrs	r3, r0
  MODIFY_REG(tmpbdtr, TIM_BDTR_BKBID, sBreakDeadTimeConfig->BreakAFMode);
 8004e2c:	4815      	ldr	r0, [pc, #84]	@ (8004e84 <HAL_TIMEx_ConfigBreakDeadTime+0xa4>)
 8004e2e:	4003      	ands	r3, r0
 8004e30:	69c8      	ldr	r0, [r1, #28]
 8004e32:	4303      	orrs	r3, r0

  if (IS_TIM_BKIN2_INSTANCE(htim->Instance))
 8004e34:	6810      	ldr	r0, [r2, #0]
 8004e36:	4a14      	ldr	r2, [pc, #80]	@ (8004e88 <HAL_TIMEx_ConfigBreakDeadTime+0xa8>)
 8004e38:	4290      	cmp	r0, r2
 8004e3a:	d110      	bne.n	8004e5e <HAL_TIMEx_ConfigBreakDeadTime+0x7e>
    assert_param(IS_TIM_BREAK2_POLARITY(sBreakDeadTimeConfig->Break2Polarity));
    assert_param(IS_TIM_BREAK_FILTER(sBreakDeadTimeConfig->Break2Filter));
    assert_param(IS_TIM_BREAK2_AFMODE(sBreakDeadTimeConfig->Break2AFMode));

    /* Set the BREAK2 input related BDTR bits */
    MODIFY_REG(tmpbdtr, TIM_BDTR_BK2F, (sBreakDeadTimeConfig->Break2Filter << TIM_BDTR_BK2F_Pos));
 8004e3c:	4a13      	ldr	r2, [pc, #76]	@ (8004e8c <HAL_TIMEx_ConfigBreakDeadTime+0xac>)
 8004e3e:	4013      	ands	r3, r2
 8004e40:	6a8a      	ldr	r2, [r1, #40]	@ 0x28
 8004e42:	0512      	lsls	r2, r2, #20
 8004e44:	431a      	orrs	r2, r3
    MODIFY_REG(tmpbdtr, TIM_BDTR_BK2E, sBreakDeadTimeConfig->Break2State);
 8004e46:	4b12      	ldr	r3, [pc, #72]	@ (8004e90 <HAL_TIMEx_ConfigBreakDeadTime+0xb0>)
 8004e48:	401a      	ands	r2, r3
 8004e4a:	6a0b      	ldr	r3, [r1, #32]
 8004e4c:	431a      	orrs	r2, r3
    MODIFY_REG(tmpbdtr, TIM_BDTR_BK2P, sBreakDeadTimeConfig->Break2Polarity);
 8004e4e:	4b11      	ldr	r3, [pc, #68]	@ (8004e94 <HAL_TIMEx_ConfigBreakDeadTime+0xb4>)
 8004e50:	401a      	ands	r2, r3
 8004e52:	6a4b      	ldr	r3, [r1, #36]	@ 0x24
 8004e54:	431a      	orrs	r2, r3
    MODIFY_REG(tmpbdtr, TIM_BDTR_BK2BID, sBreakDeadTimeConfig->Break2AFMode);
 8004e56:	4b10      	ldr	r3, [pc, #64]	@ (8004e98 <HAL_TIMEx_ConfigBreakDeadTime+0xb8>)
 8004e58:	401a      	ands	r2, r3
 8004e5a:	6acb      	ldr	r3, [r1, #44]	@ 0x2c
 8004e5c:	4313      	orrs	r3, r2
  }

  /* Set TIMx_BDTR */
  htim->Instance->BDTR = tmpbdtr;
 8004e5e:	6443      	str	r3, [r0, #68]	@ 0x44

  __HAL_UNLOCK(htim);
 8004e60:	2000      	movs	r0, #0
 8004e62:	7020      	strb	r0, [r4, #0]

  return HAL_OK;
}
 8004e64:	bd10      	pop	{r4, pc}
 8004e66:	46c0      	nop			@ (mov r8, r8)
 8004e68:	fffffcff 	.word	0xfffffcff
 8004e6c:	fffffbff 	.word	0xfffffbff
 8004e70:	fffff7ff 	.word	0xfffff7ff
 8004e74:	ffffefff 	.word	0xffffefff
 8004e78:	ffffdfff 	.word	0xffffdfff
 8004e7c:	ffffbfff 	.word	0xffffbfff
 8004e80:	fff0ffff 	.word	0xfff0ffff
 8004e84:	efffffff 	.word	0xefffffff
 8004e88:	40012c00 	.word	0x40012c00
 8004e8c:	ff0fffff 	.word	0xff0fffff
 8004e90:	feffffff 	.word	0xfeffffff
 8004e94:	fdffffff 	.word	0xfdffffff
 8004e98:	dfffffff 	.word	0xdfffffff

08004e9c <memset>:
 8004e9c:	0003      	movs	r3, r0
 8004e9e:	1882      	adds	r2, r0, r2
 8004ea0:	4293      	cmp	r3, r2
 8004ea2:	d100      	bne.n	8004ea6 <memset+0xa>
 8004ea4:	4770      	bx	lr
 8004ea6:	7019      	strb	r1, [r3, #0]
 8004ea8:	3301      	adds	r3, #1
 8004eaa:	e7f9      	b.n	8004ea0 <memset+0x4>

08004eac <__libc_init_array>:
 8004eac:	b570      	push	{r4, r5, r6, lr}
 8004eae:	2600      	movs	r6, #0
 8004eb0:	4c0c      	ldr	r4, [pc, #48]	@ (8004ee4 <__libc_init_array+0x38>)
 8004eb2:	4d0d      	ldr	r5, [pc, #52]	@ (8004ee8 <__libc_init_array+0x3c>)
 8004eb4:	1b64      	subs	r4, r4, r5
 8004eb6:	10a4      	asrs	r4, r4, #2
 8004eb8:	42a6      	cmp	r6, r4
 8004eba:	d109      	bne.n	8004ed0 <__libc_init_array+0x24>
 8004ebc:	2600      	movs	r6, #0
 8004ebe:	f000 f819 	bl	8004ef4 <_init>
 8004ec2:	4c0a      	ldr	r4, [pc, #40]	@ (8004eec <__libc_init_array+0x40>)
 8004ec4:	4d0a      	ldr	r5, [pc, #40]	@ (8004ef0 <__libc_init_array+0x44>)
 8004ec6:	1b64      	subs	r4, r4, r5
 8004ec8:	10a4      	asrs	r4, r4, #2
 8004eca:	42a6      	cmp	r6, r4
 8004ecc:	d105      	bne.n	8004eda <__libc_init_array+0x2e>
 8004ece:	bd70      	pop	{r4, r5, r6, pc}
 8004ed0:	00b3      	lsls	r3, r6, #2
 8004ed2:	58eb      	ldr	r3, [r5, r3]
 8004ed4:	4798      	blx	r3
 8004ed6:	3601      	adds	r6, #1
 8004ed8:	e7ee      	b.n	8004eb8 <__libc_init_array+0xc>
 8004eda:	00b3      	lsls	r3, r6, #2
 8004edc:	58eb      	ldr	r3, [r5, r3]
 8004ede:	4798      	blx	r3
 8004ee0:	3601      	adds	r6, #1
 8004ee2:	e7f2      	b.n	8004eca <__libc_init_array+0x1e>
 8004ee4:	08005fc8 	.word	0x08005fc8
 8004ee8:	08005fc8 	.word	0x08005fc8
 8004eec:	08005fcc 	.word	0x08005fcc
 8004ef0:	08005fc8 	.word	0x08005fc8

08004ef4 <_init>:
 8004ef4:	b5f8      	push	{r3, r4, r5, r6, r7, lr}
 8004ef6:	46c0      	nop			@ (mov r8, r8)
 8004ef8:	bcf8      	pop	{r3, r4, r5, r6, r7}
 8004efa:	bc08      	pop	{r3}
 8004efc:	469e      	mov	lr, r3
 8004efe:	4770      	bx	lr

08004f00 <_fini>:
 8004f00:	b5f8      	push	{r3, r4, r5, r6, r7, lr}
 8004f02:	46c0      	nop			@ (mov r8, r8)
 8004f04:	bcf8      	pop	{r3, r4, r5, r6, r7}
 8004f06:	bc08      	pop	{r3}
 8004f08:	469e      	mov	lr, r3
 8004f0a:	4770      	bx	lr
